
obj/os_kernel.elf:     file format elf64-littleriscv


Disassembly of section .text:

0000000080200000 <_start>:
    80200000:	0001a117          	auipc	sp,0x1a
    80200004:	00010113          	mv	sp,sp
    80200008:	119010ef          	jal	ra,80201920 <main_os>
	...

0000000080201000 <port_write>:
    80201000:	1101                	addi	sp,sp,-32
    80201002:	ec06                	sd	ra,24(sp)
    80201004:	e822                	sd	s0,16(sp)
    80201006:	1000                	addi	s0,sp,32
    80201008:	fea43423          	sd	a0,-24(s0)
    8020100c:	a821                	j	80201024 <port_write+0x24>
    8020100e:	fe843783          	ld	a5,-24(s0)
    80201012:	00178713          	addi	a4,a5,1
    80201016:	fee43423          	sd	a4,-24(s0)
    8020101a:	0007c783          	lbu	a5,0(a5)
    8020101e:	853e                	mv	a0,a5
    80201020:	274010ef          	jal	ra,80202294 <console_putchar>
    80201024:	fe843783          	ld	a5,-24(s0)
    80201028:	0007c783          	lbu	a5,0(a5)
    8020102c:	f3ed                	bnez	a5,8020100e <port_write+0xe>
    8020102e:	0001                	nop
    80201030:	0001                	nop
    80201032:	60e2                	ld	ra,24(sp)
    80201034:	6442                	ld	s0,16(sp)
    80201036:	6105                	addi	sp,sp,32
    80201038:	8082                	ret

000000008020103a <mini_strlen>:
    8020103a:	7179                	addi	sp,sp,-48
    8020103c:	f422                	sd	s0,40(sp)
    8020103e:	1800                	addi	s0,sp,48
    80201040:	fca43c23          	sd	a0,-40(s0)
    80201044:	fe042623          	sw	zero,-20(s0)
    80201048:	a031                	j	80201054 <mini_strlen+0x1a>
    8020104a:	fec42783          	lw	a5,-20(s0)
    8020104e:	2785                	addiw	a5,a5,1
    80201050:	fef42623          	sw	a5,-20(s0)
    80201054:	fec46783          	lwu	a5,-20(s0)
    80201058:	fd843703          	ld	a4,-40(s0)
    8020105c:	97ba                	add	a5,a5,a4
    8020105e:	0007c783          	lbu	a5,0(a5)
    80201062:	f7e5                	bnez	a5,8020104a <mini_strlen+0x10>
    80201064:	fec42783          	lw	a5,-20(s0)
    80201068:	853e                	mv	a0,a5
    8020106a:	7422                	ld	s0,40(sp)
    8020106c:	6145                	addi	sp,sp,48
    8020106e:	8082                	ret

0000000080201070 <mini_itoa>:
    80201070:	715d                	addi	sp,sp,-80
    80201072:	e4a2                	sd	s0,72(sp)
    80201074:	0880                	addi	s0,sp,80
    80201076:	fca43423          	sd	a0,-56(s0)
    8020107a:	fae43823          	sd	a4,-80(s0)
    8020107e:	873e                	mv	a4,a5
    80201080:	87ae                	mv	a5,a1
    80201082:	fcf42223          	sw	a5,-60(s0)
    80201086:	87b2                	mv	a5,a2
    80201088:	fcf42023          	sw	a5,-64(s0)
    8020108c:	87b6                	mv	a5,a3
    8020108e:	faf42e23          	sw	a5,-68(s0)
    80201092:	87ba                	mv	a5,a4
    80201094:	faf42c23          	sw	a5,-72(s0)
    80201098:	fb043783          	ld	a5,-80(s0)
    8020109c:	fef43423          	sd	a5,-24(s0)
    802010a0:	fe042223          	sw	zero,-28(s0)
    802010a4:	fc442783          	lw	a5,-60(s0)
    802010a8:	0007871b          	sext.w	a4,a5
    802010ac:	47c1                	li	a5,16
    802010ae:	00e7f463          	bgeu	a5,a4,802010b6 <mini_itoa+0x46>
    802010b2:	4781                	li	a5,0
    802010b4:	aae9                	j	8020128e <mini_itoa+0x21e>
    802010b6:	fc843783          	ld	a5,-56(s0)
    802010ba:	0007df63          	bgez	a5,802010d8 <mini_itoa+0x68>
    802010be:	fbc42783          	lw	a5,-68(s0)
    802010c2:	2781                	sext.w	a5,a5
    802010c4:	eb91                	bnez	a5,802010d8 <mini_itoa+0x68>
    802010c6:	4785                	li	a5,1
    802010c8:	fef42223          	sw	a5,-28(s0)
    802010cc:	fc843783          	ld	a5,-56(s0)
    802010d0:	40f007b3          	neg	a5,a5
    802010d4:	fcf43423          	sd	a5,-56(s0)
    802010d8:	fc042e23          	sw	zero,-36(s0)
    802010dc:	fbc42783          	lw	a5,-68(s0)
    802010e0:	2781                	sext.w	a5,a5
    802010e2:	cb91                	beqz	a5,802010f6 <mini_itoa+0x86>
    802010e4:	fc843703          	ld	a4,-56(s0)
    802010e8:	fc446783          	lwu	a5,-60(s0)
    802010ec:	02f777b3          	remu	a5,a4,a5
    802010f0:	fcf42e23          	sw	a5,-36(s0)
    802010f4:	a809                	j	80201106 <mini_itoa+0x96>
    802010f6:	fc446783          	lwu	a5,-60(s0)
    802010fa:	fc843703          	ld	a4,-56(s0)
    802010fe:	02f767b3          	rem	a5,a4,a5
    80201102:	fcf42e23          	sw	a5,-36(s0)
    80201106:	fdc42783          	lw	a5,-36(s0)
    8020110a:	0007871b          	sext.w	a4,a5
    8020110e:	47a5                	li	a5,9
    80201110:	00e7cb63          	blt	a5,a4,80201126 <mini_itoa+0xb6>
    80201114:	fdc42783          	lw	a5,-36(s0)
    80201118:	0ff7f793          	andi	a5,a5,255
    8020111c:	0307879b          	addiw	a5,a5,48
    80201120:	0ff7f713          	andi	a4,a5,255
    80201124:	a025                	j	8020114c <mini_itoa+0xdc>
    80201126:	fc042783          	lw	a5,-64(s0)
    8020112a:	2781                	sext.w	a5,a5
    8020112c:	c781                	beqz	a5,80201134 <mini_itoa+0xc4>
    8020112e:	04100793          	li	a5,65
    80201132:	a019                	j	80201138 <mini_itoa+0xc8>
    80201134:	06100793          	li	a5,97
    80201138:	fdc42703          	lw	a4,-36(s0)
    8020113c:	0ff77713          	andi	a4,a4,255
    80201140:	9fb9                	addw	a5,a5,a4
    80201142:	0ff7f793          	andi	a5,a5,255
    80201146:	37d9                	addiw	a5,a5,-10
    80201148:	0ff7f713          	andi	a4,a5,255
    8020114c:	fe843783          	ld	a5,-24(s0)
    80201150:	00178693          	addi	a3,a5,1
    80201154:	fed43423          	sd	a3,-24(s0)
    80201158:	00e78023          	sb	a4,0(a5)
    8020115c:	fbc42783          	lw	a5,-68(s0)
    80201160:	2781                	sext.w	a5,a5
    80201162:	cb91                	beqz	a5,80201176 <mini_itoa+0x106>
    80201164:	fc843703          	ld	a4,-56(s0)
    80201168:	fc446783          	lwu	a5,-60(s0)
    8020116c:	02f757b3          	divu	a5,a4,a5
    80201170:	fcf43423          	sd	a5,-56(s0)
    80201174:	a809                	j	80201186 <mini_itoa+0x116>
    80201176:	fc446783          	lwu	a5,-60(s0)
    8020117a:	fc843703          	ld	a4,-56(s0)
    8020117e:	02f747b3          	div	a5,a4,a5
    80201182:	fcf43423          	sd	a5,-56(s0)
    80201186:	fc843783          	ld	a5,-56(s0)
    8020118a:	f7b9                	bnez	a5,802010d8 <mini_itoa+0x68>
    8020118c:	fe843703          	ld	a4,-24(s0)
    80201190:	fb043783          	ld	a5,-80(s0)
    80201194:	40f707b3          	sub	a5,a4,a5
    80201198:	fef42023          	sw	a5,-32(s0)
    8020119c:	a005                	j	802011bc <mini_itoa+0x14c>
    8020119e:	fe843783          	ld	a5,-24(s0)
    802011a2:	00178713          	addi	a4,a5,1
    802011a6:	fee43423          	sd	a4,-24(s0)
    802011aa:	03000713          	li	a4,48
    802011ae:	00e78023          	sb	a4,0(a5)
    802011b2:	fe042783          	lw	a5,-32(s0)
    802011b6:	2785                	addiw	a5,a5,1
    802011b8:	fef42023          	sw	a5,-32(s0)
    802011bc:	fe042703          	lw	a4,-32(s0)
    802011c0:	fb842783          	lw	a5,-72(s0)
    802011c4:	2701                	sext.w	a4,a4
    802011c6:	2781                	sext.w	a5,a5
    802011c8:	fcf76be3          	bltu	a4,a5,8020119e <mini_itoa+0x12e>
    802011cc:	fe442783          	lw	a5,-28(s0)
    802011d0:	2781                	sext.w	a5,a5
    802011d2:	cb99                	beqz	a5,802011e8 <mini_itoa+0x178>
    802011d4:	fe843783          	ld	a5,-24(s0)
    802011d8:	00178713          	addi	a4,a5,1
    802011dc:	fee43423          	sd	a4,-24(s0)
    802011e0:	02d00713          	li	a4,45
    802011e4:	00e78023          	sb	a4,0(a5)
    802011e8:	fe843783          	ld	a5,-24(s0)
    802011ec:	00078023          	sb	zero,0(a5)
    802011f0:	fe843703          	ld	a4,-24(s0)
    802011f4:	fb043783          	ld	a5,-80(s0)
    802011f8:	40f707b3          	sub	a5,a4,a5
    802011fc:	fcf42c23          	sw	a5,-40(s0)
    80201200:	fe042023          	sw	zero,-32(s0)
    80201204:	a885                	j	80201274 <mini_itoa+0x204>
    80201206:	fe046783          	lwu	a5,-32(s0)
    8020120a:	fb043703          	ld	a4,-80(s0)
    8020120e:	97ba                	add	a5,a5,a4
    80201210:	0007c783          	lbu	a5,0(a5)
    80201214:	fcf40ba3          	sb	a5,-41(s0)
    80201218:	fd842703          	lw	a4,-40(s0)
    8020121c:	fe042783          	lw	a5,-32(s0)
    80201220:	40f707bb          	subw	a5,a4,a5
    80201224:	2781                	sext.w	a5,a5
    80201226:	37fd                	addiw	a5,a5,-1
    80201228:	2781                	sext.w	a5,a5
    8020122a:	1782                	slli	a5,a5,0x20
    8020122c:	9381                	srli	a5,a5,0x20
    8020122e:	fb043703          	ld	a4,-80(s0)
    80201232:	973e                	add	a4,a4,a5
    80201234:	fe046783          	lwu	a5,-32(s0)
    80201238:	fb043683          	ld	a3,-80(s0)
    8020123c:	97b6                	add	a5,a5,a3
    8020123e:	00074703          	lbu	a4,0(a4)
    80201242:	00e78023          	sb	a4,0(a5)
    80201246:	fd842703          	lw	a4,-40(s0)
    8020124a:	fe042783          	lw	a5,-32(s0)
    8020124e:	40f707bb          	subw	a5,a4,a5
    80201252:	2781                	sext.w	a5,a5
    80201254:	37fd                	addiw	a5,a5,-1
    80201256:	2781                	sext.w	a5,a5
    80201258:	1782                	slli	a5,a5,0x20
    8020125a:	9381                	srli	a5,a5,0x20
    8020125c:	fb043703          	ld	a4,-80(s0)
    80201260:	97ba                	add	a5,a5,a4
    80201262:	fd744703          	lbu	a4,-41(s0)
    80201266:	00e78023          	sb	a4,0(a5)
    8020126a:	fe042783          	lw	a5,-32(s0)
    8020126e:	2785                	addiw	a5,a5,1
    80201270:	fef42023          	sw	a5,-32(s0)
    80201274:	fd842783          	lw	a5,-40(s0)
    80201278:	0017d79b          	srliw	a5,a5,0x1
    8020127c:	0007871b          	sext.w	a4,a5
    80201280:	fe042783          	lw	a5,-32(s0)
    80201284:	2781                	sext.w	a5,a5
    80201286:	f8e7e0e3          	bltu	a5,a4,80201206 <mini_itoa+0x196>
    8020128a:	fd842783          	lw	a5,-40(s0)
    8020128e:	853e                	mv	a0,a5
    80201290:	6426                	ld	s0,72(sp)
    80201292:	6161                	addi	sp,sp,80
    80201294:	8082                	ret

0000000080201296 <_putc>:
    80201296:	1101                	addi	sp,sp,-32
    80201298:	ec22                	sd	s0,24(sp)
    8020129a:	1000                	addi	s0,sp,32
    8020129c:	87aa                	mv	a5,a0
    8020129e:	feb43023          	sd	a1,-32(s0)
    802012a2:	fef42623          	sw	a5,-20(s0)
    802012a6:	fe043783          	ld	a5,-32(s0)
    802012aa:	6798                	ld	a4,8(a5)
    802012ac:	fe043783          	ld	a5,-32(s0)
    802012b0:	639c                	ld	a5,0(a5)
    802012b2:	40f707b3          	sub	a5,a4,a5
    802012b6:	2781                	sext.w	a5,a5
    802012b8:	2785                	addiw	a5,a5,1
    802012ba:	0007871b          	sext.w	a4,a5
    802012be:	fe043783          	ld	a5,-32(s0)
    802012c2:	4b9c                	lw	a5,16(a5)
    802012c4:	00f76463          	bltu	a4,a5,802012cc <_putc+0x36>
    802012c8:	4781                	li	a5,0
    802012ca:	a02d                	j	802012f4 <_putc+0x5e>
    802012cc:	fe043783          	ld	a5,-32(s0)
    802012d0:	679c                	ld	a5,8(a5)
    802012d2:	00178693          	addi	a3,a5,1
    802012d6:	fe043703          	ld	a4,-32(s0)
    802012da:	e714                	sd	a3,8(a4)
    802012dc:	fec42703          	lw	a4,-20(s0)
    802012e0:	0ff77713          	andi	a4,a4,255
    802012e4:	00e78023          	sb	a4,0(a5)
    802012e8:	fe043783          	ld	a5,-32(s0)
    802012ec:	679c                	ld	a5,8(a5)
    802012ee:	00078023          	sb	zero,0(a5)
    802012f2:	4785                	li	a5,1
    802012f4:	853e                	mv	a0,a5
    802012f6:	6462                	ld	s0,24(sp)
    802012f8:	6105                	addi	sp,sp,32
    802012fa:	8082                	ret

00000000802012fc <_puts>:
    802012fc:	7139                	addi	sp,sp,-64
    802012fe:	fc22                	sd	s0,56(sp)
    80201300:	0080                	addi	s0,sp,64
    80201302:	fca43c23          	sd	a0,-40(s0)
    80201306:	87ae                	mv	a5,a1
    80201308:	fcc43423          	sd	a2,-56(s0)
    8020130c:	fcf42a23          	sw	a5,-44(s0)
    80201310:	fc843783          	ld	a5,-56(s0)
    80201314:	4b9c                	lw	a5,16(a5)
    80201316:	02079713          	slli	a4,a5,0x20
    8020131a:	9301                	srli	a4,a4,0x20
    8020131c:	fc843783          	ld	a5,-56(s0)
    80201320:	6794                	ld	a3,8(a5)
    80201322:	fc843783          	ld	a5,-56(s0)
    80201326:	639c                	ld	a5,0(a5)
    80201328:	40f687b3          	sub	a5,a3,a5
    8020132c:	8f1d                	sub	a4,a4,a5
    8020132e:	fd446783          	lwu	a5,-44(s0)
    80201332:	02e7c463          	blt	a5,a4,8020135a <_puts+0x5e>
    80201336:	fc843783          	ld	a5,-56(s0)
    8020133a:	4b98                	lw	a4,16(a5)
    8020133c:	fc843783          	ld	a5,-56(s0)
    80201340:	6794                	ld	a3,8(a5)
    80201342:	fc843783          	ld	a5,-56(s0)
    80201346:	639c                	ld	a5,0(a5)
    80201348:	40f687b3          	sub	a5,a3,a5
    8020134c:	2781                	sext.w	a5,a5
    8020134e:	40f707bb          	subw	a5,a4,a5
    80201352:	2781                	sext.w	a5,a5
    80201354:	37fd                	addiw	a5,a5,-1
    80201356:	fcf42a23          	sw	a5,-44(s0)
    8020135a:	fe042623          	sw	zero,-20(s0)
    8020135e:	a03d                	j	8020138c <_puts+0x90>
    80201360:	fec46783          	lwu	a5,-20(s0)
    80201364:	fd843703          	ld	a4,-40(s0)
    80201368:	973e                	add	a4,a4,a5
    8020136a:	fc843783          	ld	a5,-56(s0)
    8020136e:	679c                	ld	a5,8(a5)
    80201370:	00178613          	addi	a2,a5,1
    80201374:	fc843683          	ld	a3,-56(s0)
    80201378:	e690                	sd	a2,8(a3)
    8020137a:	00074703          	lbu	a4,0(a4)
    8020137e:	00e78023          	sb	a4,0(a5)
    80201382:	fec42783          	lw	a5,-20(s0)
    80201386:	2785                	addiw	a5,a5,1
    80201388:	fef42623          	sw	a5,-20(s0)
    8020138c:	fec42703          	lw	a4,-20(s0)
    80201390:	fd442783          	lw	a5,-44(s0)
    80201394:	2701                	sext.w	a4,a4
    80201396:	2781                	sext.w	a5,a5
    80201398:	fcf764e3          	bltu	a4,a5,80201360 <_puts+0x64>
    8020139c:	fc843783          	ld	a5,-56(s0)
    802013a0:	679c                	ld	a5,8(a5)
    802013a2:	00078023          	sb	zero,0(a5)
    802013a6:	fd442783          	lw	a5,-44(s0)
    802013aa:	853e                	mv	a0,a5
    802013ac:	7462                	ld	s0,56(sp)
    802013ae:	6121                	addi	sp,sp,64
    802013b0:	8082                	ret

00000000802013b2 <mini_vsnprintf>:
    802013b2:	7119                	addi	sp,sp,-128
    802013b4:	fc86                	sd	ra,120(sp)
    802013b6:	f8a2                	sd	s0,112(sp)
    802013b8:	0100                	addi	s0,sp,128
    802013ba:	f8a43c23          	sd	a0,-104(s0)
    802013be:	87ae                	mv	a5,a1
    802013c0:	f8c43423          	sd	a2,-120(s0)
    802013c4:	f8d43023          	sd	a3,-128(s0)
    802013c8:	f8f42a23          	sw	a5,-108(s0)
    802013cc:	f9843783          	ld	a5,-104(s0)
    802013d0:	fcf43023          	sd	a5,-64(s0)
    802013d4:	f9843783          	ld	a5,-104(s0)
    802013d8:	fcf43423          	sd	a5,-56(s0)
    802013dc:	f9442783          	lw	a5,-108(s0)
    802013e0:	fcf42823          	sw	a5,-48(s0)
    802013e4:	a4f9                	j	802016b2 <mini_vsnprintf+0x300>
    802013e6:	fc843703          	ld	a4,-56(s0)
    802013ea:	fc043783          	ld	a5,-64(s0)
    802013ee:	40f707b3          	sub	a5,a4,a5
    802013f2:	2781                	sext.w	a5,a5
    802013f4:	2785                	addiw	a5,a5,1
    802013f6:	0007871b          	sext.w	a4,a5
    802013fa:	fd042783          	lw	a5,-48(s0)
    802013fe:	2cf77b63          	bgeu	a4,a5,802016d4 <mini_vsnprintf+0x322>
    80201402:	fef44783          	lbu	a5,-17(s0)
    80201406:	0ff7f713          	andi	a4,a5,255
    8020140a:	02500793          	li	a5,37
    8020140e:	00f70c63          	beq	a4,a5,80201426 <mini_vsnprintf+0x74>
    80201412:	fef44783          	lbu	a5,-17(s0)
    80201416:	2781                	sext.w	a5,a5
    80201418:	fc040713          	addi	a4,s0,-64
    8020141c:	85ba                	mv	a1,a4
    8020141e:	853e                	mv	a0,a5
    80201420:	e77ff0ef          	jal	ra,80201296 <_putc>
    80201424:	a479                	j	802016b2 <mini_vsnprintf+0x300>
    80201426:	fe040723          	sb	zero,-18(s0)
    8020142a:	fe042423          	sw	zero,-24(s0)
    8020142e:	f8843783          	ld	a5,-120(s0)
    80201432:	00178713          	addi	a4,a5,1
    80201436:	f8e43423          	sd	a4,-120(s0)
    8020143a:	0007c783          	lbu	a5,0(a5)
    8020143e:	fef407a3          	sb	a5,-17(s0)
    80201442:	fef44783          	lbu	a5,-17(s0)
    80201446:	0ff7f713          	andi	a4,a5,255
    8020144a:	03000793          	li	a5,48
    8020144e:	06f71b63          	bne	a4,a5,802014c4 <mini_vsnprintf+0x112>
    80201452:	a891                	j	802014a6 <mini_vsnprintf+0xf4>
    80201454:	fef44783          	lbu	a5,-17(s0)
    80201458:	0ff7f793          	andi	a5,a5,255
    8020145c:	26078e63          	beqz	a5,802016d8 <mini_vsnprintf+0x326>
    80201460:	fef44783          	lbu	a5,-17(s0)
    80201464:	0ff7f713          	andi	a4,a5,255
    80201468:	02f00793          	li	a5,47
    8020146c:	04e7fc63          	bgeu	a5,a4,802014c4 <mini_vsnprintf+0x112>
    80201470:	fef44783          	lbu	a5,-17(s0)
    80201474:	0ff7f713          	andi	a4,a5,255
    80201478:	03900793          	li	a5,57
    8020147c:	04e7e463          	bltu	a5,a4,802014c4 <mini_vsnprintf+0x112>
    80201480:	fee44703          	lbu	a4,-18(s0)
    80201484:	87ba                	mv	a5,a4
    80201486:	0027979b          	slliw	a5,a5,0x2
    8020148a:	9fb9                	addw	a5,a5,a4
    8020148c:	0017979b          	slliw	a5,a5,0x1
    80201490:	0ff7f793          	andi	a5,a5,255
    80201494:	fef44703          	lbu	a4,-17(s0)
    80201498:	9fb9                	addw	a5,a5,a4
    8020149a:	0ff7f793          	andi	a5,a5,255
    8020149e:	fd07879b          	addiw	a5,a5,-48
    802014a2:	fef40723          	sb	a5,-18(s0)
    802014a6:	f8843783          	ld	a5,-120(s0)
    802014aa:	00178713          	addi	a4,a5,1
    802014ae:	f8e43423          	sd	a4,-120(s0)
    802014b2:	0007c783          	lbu	a5,0(a5)
    802014b6:	fef407a3          	sb	a5,-17(s0)
    802014ba:	fef44783          	lbu	a5,-17(s0)
    802014be:	0ff7f793          	andi	a5,a5,255
    802014c2:	fbc9                	bnez	a5,80201454 <mini_vsnprintf+0xa2>
    802014c4:	fef44783          	lbu	a5,-17(s0)
    802014c8:	0ff7f713          	andi	a4,a5,255
    802014cc:	06c00793          	li	a5,108
    802014d0:	00f71f63          	bne	a4,a5,802014ee <mini_vsnprintf+0x13c>
    802014d4:	4785                	li	a5,1
    802014d6:	fef42423          	sw	a5,-24(s0)
    802014da:	f8843783          	ld	a5,-120(s0)
    802014de:	00178713          	addi	a4,a5,1
    802014e2:	f8e43423          	sd	a4,-120(s0)
    802014e6:	0007c783          	lbu	a5,0(a5)
    802014ea:	fef407a3          	sb	a5,-17(s0)
    802014ee:	fef44783          	lbu	a5,-17(s0)
    802014f2:	2781                	sext.w	a5,a5
    802014f4:	1e078463          	beqz	a5,802016dc <mini_vsnprintf+0x32a>
    802014f8:	873e                	mv	a4,a5
    802014fa:	1a074263          	bltz	a4,8020169e <mini_vsnprintf+0x2ec>
    802014fe:	86be                	mv	a3,a5
    80201500:	07800713          	li	a4,120
    80201504:	18d74d63          	blt	a4,a3,8020169e <mini_vsnprintf+0x2ec>
    80201508:	86be                	mv	a3,a5
    8020150a:	05800713          	li	a4,88
    8020150e:	18e6c863          	blt	a3,a4,8020169e <mini_vsnprintf+0x2ec>
    80201512:	fa87869b          	addiw	a3,a5,-88
    80201516:	0006871b          	sext.w	a4,a3
    8020151a:	02000793          	li	a5,32
    8020151e:	18e7e063          	bltu	a5,a4,8020169e <mini_vsnprintf+0x2ec>
    80201522:	02069793          	slli	a5,a3,0x20
    80201526:	9381                	srli	a5,a5,0x20
    80201528:	00279713          	slli	a4,a5,0x2
    8020152c:	00005797          	auipc	a5,0x5
    80201530:	ad478793          	addi	a5,a5,-1324 # 80206000 <rodata_start>
    80201534:	97ba                	add	a5,a5,a4
    80201536:	439c                	lw	a5,0(a5)
    80201538:	0007871b          	sext.w	a4,a5
    8020153c:	00005797          	auipc	a5,0x5
    80201540:	ac478793          	addi	a5,a5,-1340 # 80206000 <rodata_start>
    80201544:	97ba                	add	a5,a5,a4
    80201546:	8782                	jr	a5
    80201548:	4785                	li	a5,1
    8020154a:	fef42423          	sw	a5,-24(s0)
    8020154e:	a295                	j	802016b2 <mini_vsnprintf+0x300>
    80201550:	fe842783          	lw	a5,-24(s0)
    80201554:	2781                	sext.w	a5,a5
    80201556:	ef81                	bnez	a5,8020156e <mini_vsnprintf+0x1bc>
    80201558:	f8043783          	ld	a5,-128(s0)
    8020155c:	00878713          	addi	a4,a5,8
    80201560:	f8e43023          	sd	a4,-128(s0)
    80201564:	439c                	lw	a5,0(a5)
    80201566:	02079513          	slli	a0,a5,0x20
    8020156a:	9101                	srli	a0,a0,0x20
    8020156c:	a809                	j	8020157e <mini_vsnprintf+0x1cc>
    8020156e:	f8043783          	ld	a5,-128(s0)
    80201572:	00878713          	addi	a4,a5,8
    80201576:	f8e43023          	sd	a4,-128(s0)
    8020157a:	639c                	ld	a5,0(a5)
    8020157c:	853e                	mv	a0,a5
    8020157e:	fef44783          	lbu	a5,-17(s0)
    80201582:	0007871b          	sext.w	a4,a5
    80201586:	07500793          	li	a5,117
    8020158a:	40f707b3          	sub	a5,a4,a5
    8020158e:	0017b793          	seqz	a5,a5
    80201592:	0ff7f793          	andi	a5,a5,255
    80201596:	0007869b          	sext.w	a3,a5
    8020159a:	fee44783          	lbu	a5,-18(s0)
    8020159e:	2781                	sext.w	a5,a5
    802015a0:	fa840713          	addi	a4,s0,-88
    802015a4:	4601                	li	a2,0
    802015a6:	45a9                	li	a1,10
    802015a8:	ac9ff0ef          	jal	ra,80201070 <mini_itoa>
    802015ac:	87aa                	mv	a5,a0
    802015ae:	fcf42e23          	sw	a5,-36(s0)
    802015b2:	fc040693          	addi	a3,s0,-64
    802015b6:	fdc42703          	lw	a4,-36(s0)
    802015ba:	fa840793          	addi	a5,s0,-88
    802015be:	8636                	mv	a2,a3
    802015c0:	85ba                	mv	a1,a4
    802015c2:	853e                	mv	a0,a5
    802015c4:	d39ff0ef          	jal	ra,802012fc <_puts>
    802015c8:	fe042423          	sw	zero,-24(s0)
    802015cc:	a0dd                	j	802016b2 <mini_vsnprintf+0x300>
    802015ce:	fe842783          	lw	a5,-24(s0)
    802015d2:	2781                	sext.w	a5,a5
    802015d4:	ef81                	bnez	a5,802015ec <mini_vsnprintf+0x23a>
    802015d6:	f8043783          	ld	a5,-128(s0)
    802015da:	00878713          	addi	a4,a5,8
    802015de:	f8e43023          	sd	a4,-128(s0)
    802015e2:	439c                	lw	a5,0(a5)
    802015e4:	02079513          	slli	a0,a5,0x20
    802015e8:	9101                	srli	a0,a0,0x20
    802015ea:	a809                	j	802015fc <mini_vsnprintf+0x24a>
    802015ec:	f8043783          	ld	a5,-128(s0)
    802015f0:	00878713          	addi	a4,a5,8
    802015f4:	f8e43023          	sd	a4,-128(s0)
    802015f8:	639c                	ld	a5,0(a5)
    802015fa:	853e                	mv	a0,a5
    802015fc:	fef44783          	lbu	a5,-17(s0)
    80201600:	0007871b          	sext.w	a4,a5
    80201604:	05800793          	li	a5,88
    80201608:	40f707b3          	sub	a5,a4,a5
    8020160c:	0017b793          	seqz	a5,a5
    80201610:	0ff7f793          	andi	a5,a5,255
    80201614:	0007861b          	sext.w	a2,a5
    80201618:	fee44783          	lbu	a5,-18(s0)
    8020161c:	2781                	sext.w	a5,a5
    8020161e:	fa840713          	addi	a4,s0,-88
    80201622:	4685                	li	a3,1
    80201624:	45c1                	li	a1,16
    80201626:	a4bff0ef          	jal	ra,80201070 <mini_itoa>
    8020162a:	87aa                	mv	a5,a0
    8020162c:	fcf42e23          	sw	a5,-36(s0)
    80201630:	fc040693          	addi	a3,s0,-64
    80201634:	fdc42703          	lw	a4,-36(s0)
    80201638:	fa840793          	addi	a5,s0,-88
    8020163c:	8636                	mv	a2,a3
    8020163e:	85ba                	mv	a1,a4
    80201640:	853e                	mv	a0,a5
    80201642:	cbbff0ef          	jal	ra,802012fc <_puts>
    80201646:	fe042423          	sw	zero,-24(s0)
    8020164a:	a0a5                	j	802016b2 <mini_vsnprintf+0x300>
    8020164c:	f8043783          	ld	a5,-128(s0)
    80201650:	00878713          	addi	a4,a5,8
    80201654:	f8e43023          	sd	a4,-128(s0)
    80201658:	439c                	lw	a5,0(a5)
    8020165a:	0ff7f793          	andi	a5,a5,255
    8020165e:	2781                	sext.w	a5,a5
    80201660:	fc040713          	addi	a4,s0,-64
    80201664:	85ba                	mv	a1,a4
    80201666:	853e                	mv	a0,a5
    80201668:	c2fff0ef          	jal	ra,80201296 <_putc>
    8020166c:	a099                	j	802016b2 <mini_vsnprintf+0x300>
    8020166e:	f8043783          	ld	a5,-128(s0)
    80201672:	00878713          	addi	a4,a5,8
    80201676:	f8e43023          	sd	a4,-128(s0)
    8020167a:	639c                	ld	a5,0(a5)
    8020167c:	fef43023          	sd	a5,-32(s0)
    80201680:	fe043503          	ld	a0,-32(s0)
    80201684:	9b7ff0ef          	jal	ra,8020103a <mini_strlen>
    80201688:	87aa                	mv	a5,a0
    8020168a:	2781                	sext.w	a5,a5
    8020168c:	fc040713          	addi	a4,s0,-64
    80201690:	863a                	mv	a2,a4
    80201692:	85be                	mv	a1,a5
    80201694:	fe043503          	ld	a0,-32(s0)
    80201698:	c65ff0ef          	jal	ra,802012fc <_puts>
    8020169c:	a819                	j	802016b2 <mini_vsnprintf+0x300>
    8020169e:	fef44783          	lbu	a5,-17(s0)
    802016a2:	2781                	sext.w	a5,a5
    802016a4:	fc040713          	addi	a4,s0,-64
    802016a8:	85ba                	mv	a1,a4
    802016aa:	853e                	mv	a0,a5
    802016ac:	bebff0ef          	jal	ra,80201296 <_putc>
    802016b0:	0001                	nop
    802016b2:	f8843783          	ld	a5,-120(s0)
    802016b6:	00178713          	addi	a4,a5,1
    802016ba:	f8e43423          	sd	a4,-120(s0)
    802016be:	0007c783          	lbu	a5,0(a5)
    802016c2:	fef407a3          	sb	a5,-17(s0)
    802016c6:	fef44783          	lbu	a5,-17(s0)
    802016ca:	0ff7f793          	andi	a5,a5,255
    802016ce:	d0079ce3          	bnez	a5,802013e6 <mini_vsnprintf+0x34>
    802016d2:	a031                	j	802016de <mini_vsnprintf+0x32c>
    802016d4:	0001                	nop
    802016d6:	a021                	j	802016de <mini_vsnprintf+0x32c>
    802016d8:	0001                	nop
    802016da:	a011                	j	802016de <mini_vsnprintf+0x32c>
    802016dc:	0001                	nop
    802016de:	fc843703          	ld	a4,-56(s0)
    802016e2:	fc043783          	ld	a5,-64(s0)
    802016e6:	40f707b3          	sub	a5,a4,a5
    802016ea:	2781                	sext.w	a5,a5
    802016ec:	853e                	mv	a0,a5
    802016ee:	70e6                	ld	ra,120(sp)
    802016f0:	7446                	ld	s0,112(sp)
    802016f2:	6109                	addi	sp,sp,128
    802016f4:	8082                	ret

00000000802016f6 <_vprintk>:
    802016f6:	7129                	addi	sp,sp,-320
    802016f8:	fe06                	sd	ra,312(sp)
    802016fa:	fa22                	sd	s0,304(sp)
    802016fc:	0280                	addi	s0,sp,320
    802016fe:	eca43c23          	sd	a0,-296(s0)
    80201702:	ecb43823          	sd	a1,-304(s0)
    80201706:	ecc43423          	sd	a2,-312(s0)
    8020170a:	ed043783          	ld	a5,-304(s0)
    8020170e:	fef43023          	sd	a5,-32(s0)
    80201712:	fe043703          	ld	a4,-32(s0)
    80201716:	ee040793          	addi	a5,s0,-288
    8020171a:	86ba                	mv	a3,a4
    8020171c:	ed843603          	ld	a2,-296(s0)
    80201720:	10000593          	li	a1,256
    80201724:	853e                	mv	a0,a5
    80201726:	c8dff0ef          	jal	ra,802013b2 <mini_vsnprintf>
    8020172a:	87aa                	mv	a5,a0
    8020172c:	fef42623          	sw	a5,-20(s0)
    80201730:	fec42783          	lw	a5,-20(s0)
    80201734:	ff040713          	addi	a4,s0,-16
    80201738:	97ba                	add	a5,a5,a4
    8020173a:	ee078823          	sb	zero,-272(a5)
    8020173e:	ee040793          	addi	a5,s0,-288
    80201742:	ec843703          	ld	a4,-312(s0)
    80201746:	853e                	mv	a0,a5
    80201748:	9702                	jalr	a4
    8020174a:	fec42783          	lw	a5,-20(s0)
    8020174e:	853e                	mv	a0,a5
    80201750:	70f2                	ld	ra,312(sp)
    80201752:	7452                	ld	s0,304(sp)
    80201754:	6131                	addi	sp,sp,320
    80201756:	8082                	ret

0000000080201758 <_vprints>:
    80201758:	7129                	addi	sp,sp,-320
    8020175a:	fe06                	sd	ra,312(sp)
    8020175c:	fa22                	sd	s0,304(sp)
    8020175e:	0280                	addi	s0,sp,320
    80201760:	eca43c23          	sd	a0,-296(s0)
    80201764:	ecb43823          	sd	a1,-304(s0)
    80201768:	ecc43423          	sd	a2,-312(s0)
    8020176c:	ed043783          	ld	a5,-304(s0)
    80201770:	fef43023          	sd	a5,-32(s0)
    80201774:	fe043703          	ld	a4,-32(s0)
    80201778:	ee040793          	addi	a5,s0,-288
    8020177c:	86ba                	mv	a3,a4
    8020177e:	ed843603          	ld	a2,-296(s0)
    80201782:	10000593          	li	a1,256
    80201786:	853e                	mv	a0,a5
    80201788:	c2bff0ef          	jal	ra,802013b2 <mini_vsnprintf>
    8020178c:	87aa                	mv	a5,a0
    8020178e:	fef42623          	sw	a5,-20(s0)
    80201792:	fec42783          	lw	a5,-20(s0)
    80201796:	ff040713          	addi	a4,s0,-16
    8020179a:	97ba                	add	a5,a5,a4
    8020179c:	ee078823          	sb	zero,-272(a5)
    802017a0:	ee040793          	addi	a5,s0,-288
    802017a4:	ec843703          	ld	a4,-312(s0)
    802017a8:	853e                	mv	a0,a5
    802017aa:	9702                	jalr	a4
    802017ac:	fec42783          	lw	a5,-20(s0)
    802017b0:	853e                	mv	a0,a5
    802017b2:	70f2                	ld	ra,312(sp)
    802017b4:	7452                	ld	s0,304(sp)
    802017b6:	6131                	addi	sp,sp,320
    802017b8:	8082                	ret

00000000802017ba <vprintk>:
    802017ba:	1101                	addi	sp,sp,-32
    802017bc:	ec06                	sd	ra,24(sp)
    802017be:	e822                	sd	s0,16(sp)
    802017c0:	1000                	addi	s0,sp,32
    802017c2:	fea43423          	sd	a0,-24(s0)
    802017c6:	feb43023          	sd	a1,-32(s0)
    802017ca:	00000617          	auipc	a2,0x0
    802017ce:	83660613          	addi	a2,a2,-1994 # 80201000 <port_write>
    802017d2:	fe043583          	ld	a1,-32(s0)
    802017d6:	fe843503          	ld	a0,-24(s0)
    802017da:	f1dff0ef          	jal	ra,802016f6 <_vprintk>
    802017de:	87aa                	mv	a5,a0
    802017e0:	853e                	mv	a0,a5
    802017e2:	60e2                	ld	ra,24(sp)
    802017e4:	6442                	ld	s0,16(sp)
    802017e6:	6105                	addi	sp,sp,32
    802017e8:	8082                	ret

00000000802017ea <printk>:
    802017ea:	7159                	addi	sp,sp,-112
    802017ec:	f406                	sd	ra,40(sp)
    802017ee:	f022                	sd	s0,32(sp)
    802017f0:	1800                	addi	s0,sp,48
    802017f2:	fca43c23          	sd	a0,-40(s0)
    802017f6:	e40c                	sd	a1,8(s0)
    802017f8:	e810                	sd	a2,16(s0)
    802017fa:	ec14                	sd	a3,24(s0)
    802017fc:	f018                	sd	a4,32(s0)
    802017fe:	f41c                	sd	a5,40(s0)
    80201800:	03043823          	sd	a6,48(s0)
    80201804:	03143c23          	sd	a7,56(s0)
    80201808:	fe042623          	sw	zero,-20(s0)
    8020180c:	04040793          	addi	a5,s0,64
    80201810:	fcf43823          	sd	a5,-48(s0)
    80201814:	fd043783          	ld	a5,-48(s0)
    80201818:	fc878793          	addi	a5,a5,-56
    8020181c:	fef43023          	sd	a5,-32(s0)
    80201820:	fe043783          	ld	a5,-32(s0)
    80201824:	85be                	mv	a1,a5
    80201826:	fd843503          	ld	a0,-40(s0)
    8020182a:	f91ff0ef          	jal	ra,802017ba <vprintk>
    8020182e:	87aa                	mv	a5,a0
    80201830:	fef42623          	sw	a5,-20(s0)
    80201834:	fec42783          	lw	a5,-20(s0)
    80201838:	853e                	mv	a0,a5
    8020183a:	70a2                	ld	ra,40(sp)
    8020183c:	7402                	ld	s0,32(sp)
    8020183e:	6165                	addi	sp,sp,112
    80201840:	8082                	ret

0000000080201842 <_vprintk_port>:
    80201842:	7129                	addi	sp,sp,-320
    80201844:	fe06                	sd	ra,312(sp)
    80201846:	fa22                	sd	s0,304(sp)
    80201848:	0280                	addi	s0,sp,320
    8020184a:	eca43c23          	sd	a0,-296(s0)
    8020184e:	ecb43823          	sd	a1,-304(s0)
    80201852:	ecc43423          	sd	a2,-312(s0)
    80201856:	ed043783          	ld	a5,-304(s0)
    8020185a:	fef43023          	sd	a5,-32(s0)
    8020185e:	fe043703          	ld	a4,-32(s0)
    80201862:	ee040793          	addi	a5,s0,-288
    80201866:	86ba                	mv	a3,a4
    80201868:	ed843603          	ld	a2,-296(s0)
    8020186c:	10000593          	li	a1,256
    80201870:	853e                	mv	a0,a5
    80201872:	b41ff0ef          	jal	ra,802013b2 <mini_vsnprintf>
    80201876:	87aa                	mv	a5,a0
    80201878:	fef42623          	sw	a5,-20(s0)
    8020187c:	fec42783          	lw	a5,-20(s0)
    80201880:	ff040713          	addi	a4,s0,-16
    80201884:	97ba                	add	a5,a5,a4
    80201886:	ee078823          	sb	zero,-272(a5)
    8020188a:	fec42783          	lw	a5,-20(s0)
    8020188e:	853e                	mv	a0,a5
    80201890:	70f2                	ld	ra,312(sp)
    80201892:	7452                	ld	s0,304(sp)
    80201894:	6131                	addi	sp,sp,320
    80201896:	8082                	ret

0000000080201898 <vprintk_port>:
    80201898:	1101                	addi	sp,sp,-32
    8020189a:	ec06                	sd	ra,24(sp)
    8020189c:	e822                	sd	s0,16(sp)
    8020189e:	1000                	addi	s0,sp,32
    802018a0:	fea43423          	sd	a0,-24(s0)
    802018a4:	feb43023          	sd	a1,-32(s0)
    802018a8:	fffff617          	auipc	a2,0xfffff
    802018ac:	75860613          	addi	a2,a2,1880 # 80201000 <port_write>
    802018b0:	fe043583          	ld	a1,-32(s0)
    802018b4:	fe843503          	ld	a0,-24(s0)
    802018b8:	f8bff0ef          	jal	ra,80201842 <_vprintk_port>
    802018bc:	87aa                	mv	a5,a0
    802018be:	853e                	mv	a0,a5
    802018c0:	60e2                	ld	ra,24(sp)
    802018c2:	6442                	ld	s0,16(sp)
    802018c4:	6105                	addi	sp,sp,32
    802018c6:	8082                	ret

00000000802018c8 <printk_port>:
    802018c8:	7159                	addi	sp,sp,-112
    802018ca:	f406                	sd	ra,40(sp)
    802018cc:	f022                	sd	s0,32(sp)
    802018ce:	1800                	addi	s0,sp,48
    802018d0:	fca43c23          	sd	a0,-40(s0)
    802018d4:	e40c                	sd	a1,8(s0)
    802018d6:	e810                	sd	a2,16(s0)
    802018d8:	ec14                	sd	a3,24(s0)
    802018da:	f018                	sd	a4,32(s0)
    802018dc:	f41c                	sd	a5,40(s0)
    802018de:	03043823          	sd	a6,48(s0)
    802018e2:	03143c23          	sd	a7,56(s0)
    802018e6:	fe042623          	sw	zero,-20(s0)
    802018ea:	04040793          	addi	a5,s0,64
    802018ee:	fcf43823          	sd	a5,-48(s0)
    802018f2:	fd043783          	ld	a5,-48(s0)
    802018f6:	fc878793          	addi	a5,a5,-56
    802018fa:	fef43023          	sd	a5,-32(s0)
    802018fe:	fe043783          	ld	a5,-32(s0)
    80201902:	85be                	mv	a1,a5
    80201904:	fd843503          	ld	a0,-40(s0)
    80201908:	f91ff0ef          	jal	ra,80201898 <vprintk_port>
    8020190c:	87aa                	mv	a5,a0
    8020190e:	fef42623          	sw	a5,-20(s0)
    80201912:	fec42783          	lw	a5,-20(s0)
    80201916:	853e                	mv	a0,a5
    80201918:	70a2                	ld	ra,40(sp)
    8020191a:	7402                	ld	s0,32(sp)
    8020191c:	6165                	addi	sp,sp,112
    8020191e:	8082                	ret

0000000080201920 <main_os>:
    80201920:	1141                	addi	sp,sp,-16
    80201922:	e406                	sd	ra,8(sp)
    80201924:	e022                	sd	s0,0(sp)
    80201926:	0800                	addi	s0,sp,16
    80201928:	07b00593          	li	a1,123
    8020192c:	00004517          	auipc	a0,0x4
    80201930:	75c50513          	addi	a0,a0,1884 # 80206088 <rodata_start+0x88>
    80201934:	eb7ff0ef          	jal	ra,802017ea <printk>
    80201938:	110030ef          	jal	ra,80204a48 <init_interrupt>
    8020193c:	629020ef          	jal	ra,80204764 <load_app_test>
    80201940:	5e2030ef          	jal	ra,80204f22 <timer_init>
    80201944:	2f7020ef          	jal	ra,8020443a <init_appmanager>
    80201948:	005020ef          	jal	ra,8020414c <task_manager_init>
    8020194c:	6e3000ef          	jal	ra,8020282e <mm_init>
    80201950:	45ed                	li	a1,27
    80201952:	00004517          	auipc	a0,0x4
    80201956:	73e50513          	addi	a0,a0,1854 # 80206090 <rodata_start+0x90>
    8020195a:	7a4020ef          	jal	ra,802040fe <panic>
    8020195e:	a001                	j	8020195e <main_os+0x3e>

0000000080201960 <elf_load_sections_loop>:
    80201960:	715d                	addi	sp,sp,-80
    80201962:	e486                	sd	ra,72(sp)
    80201964:	e0a2                	sd	s0,64(sp)
    80201966:	0880                	addi	s0,sp,80
    80201968:	fca43423          	sd	a0,-56(s0)
    8020196c:	fcb43023          	sd	a1,-64(s0)
    80201970:	fac43c23          	sd	a2,-72(s0)
    80201974:	fad43823          	sd	a3,-80(s0)
    80201978:	fe043423          	sd	zero,-24(s0)
    8020197c:	a0dd                	j	80201a62 <elf_load_sections_loop+0x102>
    8020197e:	fe843703          	ld	a4,-24(s0)
    80201982:	03f00793          	li	a5,63
    80201986:	00e7f463          	bgeu	a5,a4,8020198e <elf_load_sections_loop+0x2e>
    8020198a:	57fd                	li	a5,-1
    8020198c:	a0d5                	j	80201a70 <elf_load_sections_loop+0x110>
    8020198e:	fc843783          	ld	a5,-56(s0)
    80201992:	6798                	ld	a4,8(a5)
    80201994:	fe843683          	ld	a3,-24(s0)
    80201998:	fb043783          	ld	a5,-80(s0)
    8020199c:	02f686b3          	mul	a3,a3,a5
    802019a0:	fc043783          	ld	a5,-64(s0)
    802019a4:	97b6                	add	a5,a5,a3
    802019a6:	973e                	add	a4,a4,a5
    802019a8:	fc843683          	ld	a3,-56(s0)
    802019ac:	fe843783          	ld	a5,-24(s0)
    802019b0:	0789                	addi	a5,a5,2
    802019b2:	0792                	slli	a5,a5,0x4
    802019b4:	97b6                	add	a5,a5,a3
    802019b6:	e798                	sd	a4,8(a5)
    802019b8:	fe843783          	ld	a5,-24(s0)
    802019bc:	0789                	addi	a5,a5,2
    802019be:	0792                	slli	a5,a5,0x4
    802019c0:	fc843703          	ld	a4,-56(s0)
    802019c4:	97ba                	add	a5,a5,a4
    802019c6:	07a1                	addi	a5,a5,8
    802019c8:	85be                	mv	a1,a5
    802019ca:	fc843503          	ld	a0,-56(s0)
    802019ce:	576000ef          	jal	ra,80201f44 <elf_section_get_type>
    802019d2:	87aa                	mv	a5,a0
    802019d4:	fef42223          	sw	a5,-28(s0)
    802019d8:	fe442783          	lw	a5,-28(s0)
    802019dc:	2781                	sext.w	a5,a5
    802019de:	cfad                	beqz	a5,80201a58 <elf_load_sections_loop+0xf8>
    802019e0:	fe442783          	lw	a5,-28(s0)
    802019e4:	0007871b          	sext.w	a4,a5
    802019e8:	47a1                	li	a5,8
    802019ea:	06f70763          	beq	a4,a5,80201a58 <elf_load_sections_loop+0xf8>
    802019ee:	fe843783          	ld	a5,-24(s0)
    802019f2:	0789                	addi	a5,a5,2
    802019f4:	0792                	slli	a5,a5,0x4
    802019f6:	fc843703          	ld	a4,-56(s0)
    802019fa:	97ba                	add	a5,a5,a4
    802019fc:	07a1                	addi	a5,a5,8
    802019fe:	85be                	mv	a1,a5
    80201a00:	fc843503          	ld	a0,-56(s0)
    80201a04:	584000ef          	jal	ra,80201f88 <elf_section_get_offset>
    80201a08:	fca43c23          	sd	a0,-40(s0)
    80201a0c:	fe843783          	ld	a5,-24(s0)
    80201a10:	0789                	addi	a5,a5,2
    80201a12:	0792                	slli	a5,a5,0x4
    80201a14:	fc843703          	ld	a4,-56(s0)
    80201a18:	97ba                	add	a5,a5,a4
    80201a1a:	07a1                	addi	a5,a5,8
    80201a1c:	85be                	mv	a1,a5
    80201a1e:	fc843503          	ld	a0,-56(s0)
    80201a22:	5ae000ef          	jal	ra,80201fd0 <elf_section_get_size>
    80201a26:	872a                	mv	a4,a0
    80201a28:	fd843783          	ld	a5,-40(s0)
    80201a2c:	973e                	add	a4,a4,a5
    80201a2e:	fc843783          	ld	a5,-56(s0)
    80201a32:	639c                	ld	a5,0(a5)
    80201a34:	00e7f463          	bgeu	a5,a4,80201a3c <elf_load_sections_loop+0xdc>
    80201a38:	57fd                	li	a5,-1
    80201a3a:	a81d                	j	80201a70 <elf_load_sections_loop+0x110>
    80201a3c:	fc843783          	ld	a5,-56(s0)
    80201a40:	6798                	ld	a4,8(a5)
    80201a42:	fd843783          	ld	a5,-40(s0)
    80201a46:	973e                	add	a4,a4,a5
    80201a48:	fc843683          	ld	a3,-56(s0)
    80201a4c:	fe843783          	ld	a5,-24(s0)
    80201a50:	0789                	addi	a5,a5,2
    80201a52:	0792                	slli	a5,a5,0x4
    80201a54:	97b6                	add	a5,a5,a3
    80201a56:	eb98                	sd	a4,16(a5)
    80201a58:	fe843783          	ld	a5,-24(s0)
    80201a5c:	0785                	addi	a5,a5,1
    80201a5e:	fef43423          	sd	a5,-24(s0)
    80201a62:	fe843703          	ld	a4,-24(s0)
    80201a66:	fb843783          	ld	a5,-72(s0)
    80201a6a:	f0f76ae3          	bltu	a4,a5,8020197e <elf_load_sections_loop+0x1e>
    80201a6e:	4781                	li	a5,0
    80201a70:	853e                	mv	a0,a5
    80201a72:	60a6                	ld	ra,72(sp)
    80201a74:	6406                	ld	s0,64(sp)
    80201a76:	6161                	addi	sp,sp,80
    80201a78:	8082                	ret

0000000080201a7a <elf_load_sections>:
    80201a7a:	7139                	addi	sp,sp,-64
    80201a7c:	fc06                	sd	ra,56(sp)
    80201a7e:	f822                	sd	s0,48(sp)
    80201a80:	0080                	addi	s0,sp,64
    80201a82:	fca43423          	sd	a0,-56(s0)
    80201a86:	fc843503          	ld	a0,-56(s0)
    80201a8a:	0cc000ef          	jal	ra,80201b56 <elf_header_get_shoff>
    80201a8e:	fea43423          	sd	a0,-24(s0)
    80201a92:	fe843783          	ld	a5,-24(s0)
    80201a96:	cfb1                	beqz	a5,80201af2 <elf_load_sections+0x78>
    80201a98:	fc843503          	ld	a0,-56(s0)
    80201a9c:	142000ef          	jal	ra,80201bde <elf_header_get_shnum>
    80201aa0:	fea43023          	sd	a0,-32(s0)
    80201aa4:	fc843503          	ld	a0,-56(s0)
    80201aa8:	0f2000ef          	jal	ra,80201b9a <elf_header_get_shentsize>
    80201aac:	fca43c23          	sd	a0,-40(s0)
    80201ab0:	fe043703          	ld	a4,-32(s0)
    80201ab4:	fd843783          	ld	a5,-40(s0)
    80201ab8:	02f70733          	mul	a4,a4,a5
    80201abc:	fe843783          	ld	a5,-24(s0)
    80201ac0:	973e                	add	a4,a4,a5
    80201ac2:	fc843783          	ld	a5,-56(s0)
    80201ac6:	639c                	ld	a5,0(a5)
    80201ac8:	00e7f463          	bgeu	a5,a4,80201ad0 <elf_load_sections+0x56>
    80201acc:	57fd                	li	a5,-1
    80201ace:	a82d                	j	80201b08 <elf_load_sections+0x8e>
    80201ad0:	fd843683          	ld	a3,-40(s0)
    80201ad4:	fe043603          	ld	a2,-32(s0)
    80201ad8:	fe843583          	ld	a1,-24(s0)
    80201adc:	fc843503          	ld	a0,-56(s0)
    80201ae0:	e81ff0ef          	jal	ra,80201960 <elf_load_sections_loop>
    80201ae4:	87aa                	mv	a5,a0
    80201ae6:	873e                	mv	a4,a5
    80201ae8:	57fd                	li	a5,-1
    80201aea:	00f71e63          	bne	a4,a5,80201b06 <elf_load_sections+0x8c>
    80201aee:	57fd                	li	a5,-1
    80201af0:	a821                	j	80201b08 <elf_load_sections+0x8e>
    80201af2:	fc843783          	ld	a5,-56(s0)
    80201af6:	02878793          	addi	a5,a5,40
    80201afa:	40000613          	li	a2,1024
    80201afe:	4581                	li	a1,0
    80201b00:	853e                	mv	a0,a5
    80201b02:	437000ef          	jal	ra,80202738 <memset>
    80201b06:	4781                	li	a5,0
    80201b08:	853e                	mv	a0,a5
    80201b0a:	70e2                	ld	ra,56(sp)
    80201b0c:	7442                	ld	s0,48(sp)
    80201b0e:	6121                	addi	sp,sp,64
    80201b10:	8082                	ret

0000000080201b12 <elf_header_get_entry>:
    80201b12:	7179                	addi	sp,sp,-48
    80201b14:	f422                	sd	s0,40(sp)
    80201b16:	1800                	addi	s0,sp,48
    80201b18:	fca43c23          	sd	a0,-40(s0)
    80201b1c:	fd843783          	ld	a5,-40(s0)
    80201b20:	0187c783          	lbu	a5,24(a5)
    80201b24:	873e                	mv	a4,a5
    80201b26:	4785                	li	a5,1
    80201b28:	00f71b63          	bne	a4,a5,80201b3e <elf_header_get_entry+0x2c>
    80201b2c:	fd843783          	ld	a5,-40(s0)
    80201b30:	739c                	ld	a5,32(a5)
    80201b32:	4f9c                	lw	a5,24(a5)
    80201b34:	1782                	slli	a5,a5,0x20
    80201b36:	9381                	srli	a5,a5,0x20
    80201b38:	fef43423          	sd	a5,-24(s0)
    80201b3c:	a039                	j	80201b4a <elf_header_get_entry+0x38>
    80201b3e:	fd843783          	ld	a5,-40(s0)
    80201b42:	739c                	ld	a5,32(a5)
    80201b44:	6f9c                	ld	a5,24(a5)
    80201b46:	fef43423          	sd	a5,-24(s0)
    80201b4a:	fe843783          	ld	a5,-24(s0)
    80201b4e:	853e                	mv	a0,a5
    80201b50:	7422                	ld	s0,40(sp)
    80201b52:	6145                	addi	sp,sp,48
    80201b54:	8082                	ret

0000000080201b56 <elf_header_get_shoff>:
    80201b56:	7179                	addi	sp,sp,-48
    80201b58:	f422                	sd	s0,40(sp)
    80201b5a:	1800                	addi	s0,sp,48
    80201b5c:	fca43c23          	sd	a0,-40(s0)
    80201b60:	fd843783          	ld	a5,-40(s0)
    80201b64:	0187c783          	lbu	a5,24(a5)
    80201b68:	873e                	mv	a4,a5
    80201b6a:	4785                	li	a5,1
    80201b6c:	00f71b63          	bne	a4,a5,80201b82 <elf_header_get_shoff+0x2c>
    80201b70:	fd843783          	ld	a5,-40(s0)
    80201b74:	739c                	ld	a5,32(a5)
    80201b76:	539c                	lw	a5,32(a5)
    80201b78:	1782                	slli	a5,a5,0x20
    80201b7a:	9381                	srli	a5,a5,0x20
    80201b7c:	fef43423          	sd	a5,-24(s0)
    80201b80:	a039                	j	80201b8e <elf_header_get_shoff+0x38>
    80201b82:	fd843783          	ld	a5,-40(s0)
    80201b86:	739c                	ld	a5,32(a5)
    80201b88:	779c                	ld	a5,40(a5)
    80201b8a:	fef43423          	sd	a5,-24(s0)
    80201b8e:	fe843783          	ld	a5,-24(s0)
    80201b92:	853e                	mv	a0,a5
    80201b94:	7422                	ld	s0,40(sp)
    80201b96:	6145                	addi	sp,sp,48
    80201b98:	8082                	ret

0000000080201b9a <elf_header_get_shentsize>:
    80201b9a:	7179                	addi	sp,sp,-48
    80201b9c:	f422                	sd	s0,40(sp)
    80201b9e:	1800                	addi	s0,sp,48
    80201ba0:	fca43c23          	sd	a0,-40(s0)
    80201ba4:	fd843783          	ld	a5,-40(s0)
    80201ba8:	0187c783          	lbu	a5,24(a5)
    80201bac:	873e                	mv	a4,a5
    80201bae:	4785                	li	a5,1
    80201bb0:	00f71a63          	bne	a4,a5,80201bc4 <elf_header_get_shentsize+0x2a>
    80201bb4:	fd843783          	ld	a5,-40(s0)
    80201bb8:	739c                	ld	a5,32(a5)
    80201bba:	02e7d783          	lhu	a5,46(a5)
    80201bbe:	fef43423          	sd	a5,-24(s0)
    80201bc2:	a801                	j	80201bd2 <elf_header_get_shentsize+0x38>
    80201bc4:	fd843783          	ld	a5,-40(s0)
    80201bc8:	739c                	ld	a5,32(a5)
    80201bca:	03a7d783          	lhu	a5,58(a5)
    80201bce:	fef43423          	sd	a5,-24(s0)
    80201bd2:	fe843783          	ld	a5,-24(s0)
    80201bd6:	853e                	mv	a0,a5
    80201bd8:	7422                	ld	s0,40(sp)
    80201bda:	6145                	addi	sp,sp,48
    80201bdc:	8082                	ret

0000000080201bde <elf_header_get_shnum>:
    80201bde:	7179                	addi	sp,sp,-48
    80201be0:	f422                	sd	s0,40(sp)
    80201be2:	1800                	addi	s0,sp,48
    80201be4:	fca43c23          	sd	a0,-40(s0)
    80201be8:	fd843783          	ld	a5,-40(s0)
    80201bec:	0187c783          	lbu	a5,24(a5)
    80201bf0:	873e                	mv	a4,a5
    80201bf2:	4785                	li	a5,1
    80201bf4:	00f71a63          	bne	a4,a5,80201c08 <elf_header_get_shnum+0x2a>
    80201bf8:	fd843783          	ld	a5,-40(s0)
    80201bfc:	739c                	ld	a5,32(a5)
    80201bfe:	0307d783          	lhu	a5,48(a5)
    80201c02:	fef43423          	sd	a5,-24(s0)
    80201c06:	a801                	j	80201c16 <elf_header_get_shnum+0x38>
    80201c08:	fd843783          	ld	a5,-40(s0)
    80201c0c:	739c                	ld	a5,32(a5)
    80201c0e:	03c7d783          	lhu	a5,60(a5)
    80201c12:	fef43423          	sd	a5,-24(s0)
    80201c16:	fe843783          	ld	a5,-24(s0)
    80201c1a:	853e                	mv	a0,a5
    80201c1c:	7422                	ld	s0,40(sp)
    80201c1e:	6145                	addi	sp,sp,48
    80201c20:	8082                	ret

0000000080201c22 <elf_program_get_type>:
    80201c22:	7179                	addi	sp,sp,-48
    80201c24:	f422                	sd	s0,40(sp)
    80201c26:	1800                	addi	s0,sp,48
    80201c28:	fca43c23          	sd	a0,-40(s0)
    80201c2c:	fcb43823          	sd	a1,-48(s0)
    80201c30:	fd843783          	ld	a5,-40(s0)
    80201c34:	0187c783          	lbu	a5,24(a5)
    80201c38:	873e                	mv	a4,a5
    80201c3a:	4785                	li	a5,1
    80201c3c:	00f71963          	bne	a4,a5,80201c4e <elf_program_get_type+0x2c>
    80201c40:	fd043783          	ld	a5,-48(s0)
    80201c44:	639c                	ld	a5,0(a5)
    80201c46:	439c                	lw	a5,0(a5)
    80201c48:	fef42623          	sw	a5,-20(s0)
    80201c4c:	a039                	j	80201c5a <elf_program_get_type+0x38>
    80201c4e:	fd043783          	ld	a5,-48(s0)
    80201c52:	639c                	ld	a5,0(a5)
    80201c54:	439c                	lw	a5,0(a5)
    80201c56:	fef42623          	sw	a5,-20(s0)
    80201c5a:	fec42783          	lw	a5,-20(s0)
    80201c5e:	853e                	mv	a0,a5
    80201c60:	7422                	ld	s0,40(sp)
    80201c62:	6145                	addi	sp,sp,48
    80201c64:	8082                	ret

0000000080201c66 <elf_program_get_offset>:
    80201c66:	7179                	addi	sp,sp,-48
    80201c68:	f422                	sd	s0,40(sp)
    80201c6a:	1800                	addi	s0,sp,48
    80201c6c:	fca43c23          	sd	a0,-40(s0)
    80201c70:	fcb43823          	sd	a1,-48(s0)
    80201c74:	fd843783          	ld	a5,-40(s0)
    80201c78:	0187c783          	lbu	a5,24(a5)
    80201c7c:	873e                	mv	a4,a5
    80201c7e:	4785                	li	a5,1
    80201c80:	00f71b63          	bne	a4,a5,80201c96 <elf_program_get_offset+0x30>
    80201c84:	fd043783          	ld	a5,-48(s0)
    80201c88:	639c                	ld	a5,0(a5)
    80201c8a:	43dc                	lw	a5,4(a5)
    80201c8c:	1782                	slli	a5,a5,0x20
    80201c8e:	9381                	srli	a5,a5,0x20
    80201c90:	fef43423          	sd	a5,-24(s0)
    80201c94:	a039                	j	80201ca2 <elf_program_get_offset+0x3c>
    80201c96:	fd043783          	ld	a5,-48(s0)
    80201c9a:	639c                	ld	a5,0(a5)
    80201c9c:	679c                	ld	a5,8(a5)
    80201c9e:	fef43423          	sd	a5,-24(s0)
    80201ca2:	fe843783          	ld	a5,-24(s0)
    80201ca6:	853e                	mv	a0,a5
    80201ca8:	7422                	ld	s0,40(sp)
    80201caa:	6145                	addi	sp,sp,48
    80201cac:	8082                	ret

0000000080201cae <elf_program_get_flags>:
    80201cae:	7179                	addi	sp,sp,-48
    80201cb0:	f422                	sd	s0,40(sp)
    80201cb2:	1800                	addi	s0,sp,48
    80201cb4:	fca43c23          	sd	a0,-40(s0)
    80201cb8:	fcb43823          	sd	a1,-48(s0)
    80201cbc:	fd843783          	ld	a5,-40(s0)
    80201cc0:	0187c783          	lbu	a5,24(a5)
    80201cc4:	873e                	mv	a4,a5
    80201cc6:	4785                	li	a5,1
    80201cc8:	00f71b63          	bne	a4,a5,80201cde <elf_program_get_flags+0x30>
    80201ccc:	fd043783          	ld	a5,-48(s0)
    80201cd0:	639c                	ld	a5,0(a5)
    80201cd2:	4f9c                	lw	a5,24(a5)
    80201cd4:	1782                	slli	a5,a5,0x20
    80201cd6:	9381                	srli	a5,a5,0x20
    80201cd8:	fef43423          	sd	a5,-24(s0)
    80201cdc:	a809                	j	80201cee <elf_program_get_flags+0x40>
    80201cde:	fd043783          	ld	a5,-48(s0)
    80201ce2:	639c                	ld	a5,0(a5)
    80201ce4:	43dc                	lw	a5,4(a5)
    80201ce6:	1782                	slli	a5,a5,0x20
    80201ce8:	9381                	srli	a5,a5,0x20
    80201cea:	fef43423          	sd	a5,-24(s0)
    80201cee:	fe843783          	ld	a5,-24(s0)
    80201cf2:	853e                	mv	a0,a5
    80201cf4:	7422                	ld	s0,40(sp)
    80201cf6:	6145                	addi	sp,sp,48
    80201cf8:	8082                	ret

0000000080201cfa <elf_program_get_vaddr>:
    80201cfa:	7179                	addi	sp,sp,-48
    80201cfc:	f422                	sd	s0,40(sp)
    80201cfe:	1800                	addi	s0,sp,48
    80201d00:	fca43c23          	sd	a0,-40(s0)
    80201d04:	fcb43823          	sd	a1,-48(s0)
    80201d08:	fd843783          	ld	a5,-40(s0)
    80201d0c:	0187c783          	lbu	a5,24(a5)
    80201d10:	873e                	mv	a4,a5
    80201d12:	4785                	li	a5,1
    80201d14:	00f71b63          	bne	a4,a5,80201d2a <elf_program_get_vaddr+0x30>
    80201d18:	fd043783          	ld	a5,-48(s0)
    80201d1c:	639c                	ld	a5,0(a5)
    80201d1e:	479c                	lw	a5,8(a5)
    80201d20:	1782                	slli	a5,a5,0x20
    80201d22:	9381                	srli	a5,a5,0x20
    80201d24:	fef43423          	sd	a5,-24(s0)
    80201d28:	a039                	j	80201d36 <elf_program_get_vaddr+0x3c>
    80201d2a:	fd043783          	ld	a5,-48(s0)
    80201d2e:	639c                	ld	a5,0(a5)
    80201d30:	6b9c                	ld	a5,16(a5)
    80201d32:	fef43423          	sd	a5,-24(s0)
    80201d36:	fe843783          	ld	a5,-24(s0)
    80201d3a:	853e                	mv	a0,a5
    80201d3c:	7422                	ld	s0,40(sp)
    80201d3e:	6145                	addi	sp,sp,48
    80201d40:	8082                	ret

0000000080201d42 <elf_program_get_memsz>:
    80201d42:	7179                	addi	sp,sp,-48
    80201d44:	f422                	sd	s0,40(sp)
    80201d46:	1800                	addi	s0,sp,48
    80201d48:	fca43c23          	sd	a0,-40(s0)
    80201d4c:	fcb43823          	sd	a1,-48(s0)
    80201d50:	fd843783          	ld	a5,-40(s0)
    80201d54:	0187c783          	lbu	a5,24(a5)
    80201d58:	873e                	mv	a4,a5
    80201d5a:	4785                	li	a5,1
    80201d5c:	00f71b63          	bne	a4,a5,80201d72 <elf_program_get_memsz+0x30>
    80201d60:	fd043783          	ld	a5,-48(s0)
    80201d64:	639c                	ld	a5,0(a5)
    80201d66:	4bdc                	lw	a5,20(a5)
    80201d68:	1782                	slli	a5,a5,0x20
    80201d6a:	9381                	srli	a5,a5,0x20
    80201d6c:	fef43423          	sd	a5,-24(s0)
    80201d70:	a039                	j	80201d7e <elf_program_get_memsz+0x3c>
    80201d72:	fd043783          	ld	a5,-48(s0)
    80201d76:	639c                	ld	a5,0(a5)
    80201d78:	779c                	ld	a5,40(a5)
    80201d7a:	fef43423          	sd	a5,-24(s0)
    80201d7e:	fe843783          	ld	a5,-24(s0)
    80201d82:	853e                	mv	a0,a5
    80201d84:	7422                	ld	s0,40(sp)
    80201d86:	6145                	addi	sp,sp,48
    80201d88:	8082                	ret

0000000080201d8a <elf_program_get_filesz>:
    80201d8a:	7179                	addi	sp,sp,-48
    80201d8c:	f422                	sd	s0,40(sp)
    80201d8e:	1800                	addi	s0,sp,48
    80201d90:	fca43c23          	sd	a0,-40(s0)
    80201d94:	fcb43823          	sd	a1,-48(s0)
    80201d98:	fd843783          	ld	a5,-40(s0)
    80201d9c:	0187c783          	lbu	a5,24(a5)
    80201da0:	873e                	mv	a4,a5
    80201da2:	4785                	li	a5,1
    80201da4:	00f71b63          	bne	a4,a5,80201dba <elf_program_get_filesz+0x30>
    80201da8:	fd043783          	ld	a5,-48(s0)
    80201dac:	639c                	ld	a5,0(a5)
    80201dae:	4b9c                	lw	a5,16(a5)
    80201db0:	1782                	slli	a5,a5,0x20
    80201db2:	9381                	srli	a5,a5,0x20
    80201db4:	fef43423          	sd	a5,-24(s0)
    80201db8:	a039                	j	80201dc6 <elf_program_get_filesz+0x3c>
    80201dba:	fd043783          	ld	a5,-48(s0)
    80201dbe:	639c                	ld	a5,0(a5)
    80201dc0:	739c                	ld	a5,32(a5)
    80201dc2:	fef43423          	sd	a5,-24(s0)
    80201dc6:	fe843783          	ld	a5,-24(s0)
    80201dca:	853e                	mv	a0,a5
    80201dcc:	7422                	ld	s0,40(sp)
    80201dce:	6145                	addi	sp,sp,48
    80201dd0:	8082                	ret

0000000080201dd2 <elf_load_ident>:
    80201dd2:	1101                	addi	sp,sp,-32
    80201dd4:	ec06                	sd	ra,24(sp)
    80201dd6:	e822                	sd	s0,16(sp)
    80201dd8:	1000                	addi	s0,sp,32
    80201dda:	fea43423          	sd	a0,-24(s0)
    80201dde:	fe843783          	ld	a5,-24(s0)
    80201de2:	6398                	ld	a4,0(a5)
    80201de4:	47bd                	li	a5,15
    80201de6:	00e7ff63          	bgeu	a5,a4,80201e04 <elf_load_ident+0x32>
    80201dea:	fe843783          	ld	a5,-24(s0)
    80201dee:	679c                	ld	a5,8(a5)
    80201df0:	4611                	li	a2,4
    80201df2:	00004597          	auipc	a1,0x4
    80201df6:	2ae58593          	addi	a1,a1,686 # 802060a0 <rodata_start+0xa0>
    80201dfa:	853e                	mv	a0,a5
    80201dfc:	175000ef          	jal	ra,80202770 <memcmp>
    80201e00:	87aa                	mv	a5,a0
    80201e02:	c399                	beqz	a5,80201e08 <elf_load_ident+0x36>
    80201e04:	57fd                	li	a5,-1
    80201e06:	a801                	j	80201e16 <elf_load_ident+0x44>
    80201e08:	fe843783          	ld	a5,-24(s0)
    80201e0c:	6798                	ld	a4,8(a5)
    80201e0e:	fe843783          	ld	a5,-24(s0)
    80201e12:	eb98                	sd	a4,16(a5)
    80201e14:	4781                	li	a5,0
    80201e16:	853e                	mv	a0,a5
    80201e18:	60e2                	ld	ra,24(sp)
    80201e1a:	6442                	ld	s0,16(sp)
    80201e1c:	6105                	addi	sp,sp,32
    80201e1e:	8082                	ret

0000000080201e20 <elf_load_header>:
    80201e20:	1101                	addi	sp,sp,-32
    80201e22:	ec06                	sd	ra,24(sp)
    80201e24:	e822                	sd	s0,16(sp)
    80201e26:	1000                	addi	s0,sp,32
    80201e28:	fea43423          	sd	a0,-24(s0)
    80201e2c:	fe843503          	ld	a0,-24(s0)
    80201e30:	fa3ff0ef          	jal	ra,80201dd2 <elf_load_ident>
    80201e34:	87aa                	mv	a5,a0
    80201e36:	873e                	mv	a4,a5
    80201e38:	57fd                	li	a5,-1
    80201e3a:	00f71463          	bne	a4,a5,80201e42 <elf_load_header+0x22>
    80201e3e:	57fd                	li	a5,-1
    80201e40:	a059                	j	80201ec6 <elf_load_header+0xa6>
    80201e42:	fe843783          	ld	a5,-24(s0)
    80201e46:	6b9c                	ld	a5,16(a5)
    80201e48:	0047c703          	lbu	a4,4(a5)
    80201e4c:	fe843783          	ld	a5,-24(s0)
    80201e50:	00e78c23          	sb	a4,24(a5)
    80201e54:	fe843783          	ld	a5,-24(s0)
    80201e58:	0187c783          	lbu	a5,24(a5)
    80201e5c:	873e                	mv	a4,a5
    80201e5e:	4785                	li	a5,1
    80201e60:	00f70c63          	beq	a4,a5,80201e78 <elf_load_header+0x58>
    80201e64:	fe843783          	ld	a5,-24(s0)
    80201e68:	0187c783          	lbu	a5,24(a5)
    80201e6c:	873e                	mv	a4,a5
    80201e6e:	4789                	li	a5,2
    80201e70:	00f70463          	beq	a4,a5,80201e78 <elf_load_header+0x58>
    80201e74:	57fd                	li	a5,-1
    80201e76:	a881                	j	80201ec6 <elf_load_header+0xa6>
    80201e78:	fe843783          	ld	a5,-24(s0)
    80201e7c:	6798                	ld	a4,8(a5)
    80201e7e:	fe843783          	ld	a5,-24(s0)
    80201e82:	f398                	sd	a4,32(a5)
    80201e84:	fe843783          	ld	a5,-24(s0)
    80201e88:	0187c783          	lbu	a5,24(a5)
    80201e8c:	873e                	mv	a4,a5
    80201e8e:	4785                	li	a5,1
    80201e90:	00f71963          	bne	a4,a5,80201ea2 <elf_load_header+0x82>
    80201e94:	fe843783          	ld	a5,-24(s0)
    80201e98:	6398                	ld	a4,0(a5)
    80201e9a:	03300793          	li	a5,51
    80201e9e:	02e7f163          	bgeu	a5,a4,80201ec0 <elf_load_header+0xa0>
    80201ea2:	fe843783          	ld	a5,-24(s0)
    80201ea6:	0187c783          	lbu	a5,24(a5)
    80201eaa:	873e                	mv	a4,a5
    80201eac:	4789                	li	a5,2
    80201eae:	00f71b63          	bne	a4,a5,80201ec4 <elf_load_header+0xa4>
    80201eb2:	fe843783          	ld	a5,-24(s0)
    80201eb6:	6398                	ld	a4,0(a5)
    80201eb8:	03f00793          	li	a5,63
    80201ebc:	00e7e463          	bltu	a5,a4,80201ec4 <elf_load_header+0xa4>
    80201ec0:	57fd                	li	a5,-1
    80201ec2:	a011                	j	80201ec6 <elf_load_header+0xa6>
    80201ec4:	4781                	li	a5,0
    80201ec6:	853e                	mv	a0,a5
    80201ec8:	60e2                	ld	ra,24(sp)
    80201eca:	6442                	ld	s0,16(sp)
    80201ecc:	6105                	addi	sp,sp,32
    80201ece:	8082                	ret

0000000080201ed0 <elf_load>:
    80201ed0:	7179                	addi	sp,sp,-48
    80201ed2:	f406                	sd	ra,40(sp)
    80201ed4:	f022                	sd	s0,32(sp)
    80201ed6:	1800                	addi	s0,sp,48
    80201ed8:	fea43423          	sd	a0,-24(s0)
    80201edc:	feb43023          	sd	a1,-32(s0)
    80201ee0:	fcc43c23          	sd	a2,-40(s0)
    80201ee4:	6785                	lui	a5,0x1
    80201ee6:	82878613          	addi	a2,a5,-2008 # 828 <n+0x808>
    80201eea:	4581                	li	a1,0
    80201eec:	fd843503          	ld	a0,-40(s0)
    80201ef0:	049000ef          	jal	ra,80202738 <memset>
    80201ef4:	fd843783          	ld	a5,-40(s0)
    80201ef8:	fe043703          	ld	a4,-32(s0)
    80201efc:	e398                	sd	a4,0(a5)
    80201efe:	fd843783          	ld	a5,-40(s0)
    80201f02:	fe843703          	ld	a4,-24(s0)
    80201f06:	e798                	sd	a4,8(a5)
    80201f08:	fd843503          	ld	a0,-40(s0)
    80201f0c:	f15ff0ef          	jal	ra,80201e20 <elf_load_header>
    80201f10:	87aa                	mv	a5,a0
    80201f12:	c399                	beqz	a5,80201f18 <elf_load+0x48>
    80201f14:	57fd                	li	a5,-1
    80201f16:	a015                	j	80201f3a <elf_load+0x6a>
    80201f18:	fd843503          	ld	a0,-40(s0)
    80201f1c:	b5fff0ef          	jal	ra,80201a7a <elf_load_sections>
    80201f20:	87aa                	mv	a5,a0
    80201f22:	c399                	beqz	a5,80201f28 <elf_load+0x58>
    80201f24:	57fd                	li	a5,-1
    80201f26:	a811                	j	80201f3a <elf_load+0x6a>
    80201f28:	fd843503          	ld	a0,-40(s0)
    80201f2c:	29c000ef          	jal	ra,802021c8 <elf_load_programs>
    80201f30:	87aa                	mv	a5,a0
    80201f32:	c399                	beqz	a5,80201f38 <elf_load+0x68>
    80201f34:	57fd                	li	a5,-1
    80201f36:	a011                	j	80201f3a <elf_load+0x6a>
    80201f38:	4781                	li	a5,0
    80201f3a:	853e                	mv	a0,a5
    80201f3c:	70a2                	ld	ra,40(sp)
    80201f3e:	7402                	ld	s0,32(sp)
    80201f40:	6145                	addi	sp,sp,48
    80201f42:	8082                	ret

0000000080201f44 <elf_section_get_type>:
    80201f44:	7179                	addi	sp,sp,-48
    80201f46:	f422                	sd	s0,40(sp)
    80201f48:	1800                	addi	s0,sp,48
    80201f4a:	fca43c23          	sd	a0,-40(s0)
    80201f4e:	fcb43823          	sd	a1,-48(s0)
    80201f52:	fd843783          	ld	a5,-40(s0)
    80201f56:	0187c783          	lbu	a5,24(a5)
    80201f5a:	873e                	mv	a4,a5
    80201f5c:	4785                	li	a5,1
    80201f5e:	00f71963          	bne	a4,a5,80201f70 <elf_section_get_type+0x2c>
    80201f62:	fd043783          	ld	a5,-48(s0)
    80201f66:	639c                	ld	a5,0(a5)
    80201f68:	43dc                	lw	a5,4(a5)
    80201f6a:	fef42623          	sw	a5,-20(s0)
    80201f6e:	a039                	j	80201f7c <elf_section_get_type+0x38>
    80201f70:	fd043783          	ld	a5,-48(s0)
    80201f74:	639c                	ld	a5,0(a5)
    80201f76:	43dc                	lw	a5,4(a5)
    80201f78:	fef42623          	sw	a5,-20(s0)
    80201f7c:	fec42783          	lw	a5,-20(s0)
    80201f80:	853e                	mv	a0,a5
    80201f82:	7422                	ld	s0,40(sp)
    80201f84:	6145                	addi	sp,sp,48
    80201f86:	8082                	ret

0000000080201f88 <elf_section_get_offset>:
    80201f88:	7179                	addi	sp,sp,-48
    80201f8a:	f422                	sd	s0,40(sp)
    80201f8c:	1800                	addi	s0,sp,48
    80201f8e:	fca43c23          	sd	a0,-40(s0)
    80201f92:	fcb43823          	sd	a1,-48(s0)
    80201f96:	fd843783          	ld	a5,-40(s0)
    80201f9a:	0187c783          	lbu	a5,24(a5)
    80201f9e:	873e                	mv	a4,a5
    80201fa0:	4785                	li	a5,1
    80201fa2:	00f71b63          	bne	a4,a5,80201fb8 <elf_section_get_offset+0x30>
    80201fa6:	fd043783          	ld	a5,-48(s0)
    80201faa:	639c                	ld	a5,0(a5)
    80201fac:	4b9c                	lw	a5,16(a5)
    80201fae:	1782                	slli	a5,a5,0x20
    80201fb0:	9381                	srli	a5,a5,0x20
    80201fb2:	fef43423          	sd	a5,-24(s0)
    80201fb6:	a039                	j	80201fc4 <elf_section_get_offset+0x3c>
    80201fb8:	fd043783          	ld	a5,-48(s0)
    80201fbc:	639c                	ld	a5,0(a5)
    80201fbe:	6f9c                	ld	a5,24(a5)
    80201fc0:	fef43423          	sd	a5,-24(s0)
    80201fc4:	fe843783          	ld	a5,-24(s0)
    80201fc8:	853e                	mv	a0,a5
    80201fca:	7422                	ld	s0,40(sp)
    80201fcc:	6145                	addi	sp,sp,48
    80201fce:	8082                	ret

0000000080201fd0 <elf_section_get_size>:
    80201fd0:	7179                	addi	sp,sp,-48
    80201fd2:	f422                	sd	s0,40(sp)
    80201fd4:	1800                	addi	s0,sp,48
    80201fd6:	fca43c23          	sd	a0,-40(s0)
    80201fda:	fcb43823          	sd	a1,-48(s0)
    80201fde:	fd843783          	ld	a5,-40(s0)
    80201fe2:	0187c783          	lbu	a5,24(a5)
    80201fe6:	873e                	mv	a4,a5
    80201fe8:	4785                	li	a5,1
    80201fea:	00f71b63          	bne	a4,a5,80202000 <elf_section_get_size+0x30>
    80201fee:	fd043783          	ld	a5,-48(s0)
    80201ff2:	639c                	ld	a5,0(a5)
    80201ff4:	4bdc                	lw	a5,20(a5)
    80201ff6:	1782                	slli	a5,a5,0x20
    80201ff8:	9381                	srli	a5,a5,0x20
    80201ffa:	fef43423          	sd	a5,-24(s0)
    80201ffe:	a039                	j	8020200c <elf_section_get_size+0x3c>
    80202000:	fd043783          	ld	a5,-48(s0)
    80202004:	639c                	ld	a5,0(a5)
    80202006:	739c                	ld	a5,32(a5)
    80202008:	fef43423          	sd	a5,-24(s0)
    8020200c:	fe843783          	ld	a5,-24(s0)
    80202010:	853e                	mv	a0,a5
    80202012:	7422                	ld	s0,40(sp)
    80202014:	6145                	addi	sp,sp,48
    80202016:	8082                	ret

0000000080202018 <elf_header_get_phoff>:
    80202018:	7179                	addi	sp,sp,-48
    8020201a:	f422                	sd	s0,40(sp)
    8020201c:	1800                	addi	s0,sp,48
    8020201e:	fca43c23          	sd	a0,-40(s0)
    80202022:	fd843783          	ld	a5,-40(s0)
    80202026:	0187c783          	lbu	a5,24(a5)
    8020202a:	873e                	mv	a4,a5
    8020202c:	4785                	li	a5,1
    8020202e:	00f71b63          	bne	a4,a5,80202044 <elf_header_get_phoff+0x2c>
    80202032:	fd843783          	ld	a5,-40(s0)
    80202036:	739c                	ld	a5,32(a5)
    80202038:	4fdc                	lw	a5,28(a5)
    8020203a:	1782                	slli	a5,a5,0x20
    8020203c:	9381                	srli	a5,a5,0x20
    8020203e:	fef43423          	sd	a5,-24(s0)
    80202042:	a039                	j	80202050 <elf_header_get_phoff+0x38>
    80202044:	fd843783          	ld	a5,-40(s0)
    80202048:	739c                	ld	a5,32(a5)
    8020204a:	739c                	ld	a5,32(a5)
    8020204c:	fef43423          	sd	a5,-24(s0)
    80202050:	fe843783          	ld	a5,-24(s0)
    80202054:	853e                	mv	a0,a5
    80202056:	7422                	ld	s0,40(sp)
    80202058:	6145                	addi	sp,sp,48
    8020205a:	8082                	ret

000000008020205c <elf_header_get_phentsize>:
    8020205c:	7179                	addi	sp,sp,-48
    8020205e:	f422                	sd	s0,40(sp)
    80202060:	1800                	addi	s0,sp,48
    80202062:	fca43c23          	sd	a0,-40(s0)
    80202066:	fd843783          	ld	a5,-40(s0)
    8020206a:	0187c783          	lbu	a5,24(a5)
    8020206e:	873e                	mv	a4,a5
    80202070:	4785                	li	a5,1
    80202072:	00f71a63          	bne	a4,a5,80202086 <elf_header_get_phentsize+0x2a>
    80202076:	fd843783          	ld	a5,-40(s0)
    8020207a:	739c                	ld	a5,32(a5)
    8020207c:	02a7d783          	lhu	a5,42(a5)
    80202080:	fef43423          	sd	a5,-24(s0)
    80202084:	a801                	j	80202094 <elf_header_get_phentsize+0x38>
    80202086:	fd843783          	ld	a5,-40(s0)
    8020208a:	739c                	ld	a5,32(a5)
    8020208c:	0367d783          	lhu	a5,54(a5)
    80202090:	fef43423          	sd	a5,-24(s0)
    80202094:	fe843783          	ld	a5,-24(s0)
    80202098:	853e                	mv	a0,a5
    8020209a:	7422                	ld	s0,40(sp)
    8020209c:	6145                	addi	sp,sp,48
    8020209e:	8082                	ret

00000000802020a0 <elf_header_get_phnum>:
    802020a0:	7179                	addi	sp,sp,-48
    802020a2:	f422                	sd	s0,40(sp)
    802020a4:	1800                	addi	s0,sp,48
    802020a6:	fca43c23          	sd	a0,-40(s0)
    802020aa:	fd843783          	ld	a5,-40(s0)
    802020ae:	0187c783          	lbu	a5,24(a5)
    802020b2:	873e                	mv	a4,a5
    802020b4:	4785                	li	a5,1
    802020b6:	00f71a63          	bne	a4,a5,802020ca <elf_header_get_phnum+0x2a>
    802020ba:	fd843783          	ld	a5,-40(s0)
    802020be:	739c                	ld	a5,32(a5)
    802020c0:	02c7d783          	lhu	a5,44(a5)
    802020c4:	fef43423          	sd	a5,-24(s0)
    802020c8:	a801                	j	802020d8 <elf_header_get_phnum+0x38>
    802020ca:	fd843783          	ld	a5,-40(s0)
    802020ce:	739c                	ld	a5,32(a5)
    802020d0:	0387d783          	lhu	a5,56(a5)
    802020d4:	fef43423          	sd	a5,-24(s0)
    802020d8:	fe843783          	ld	a5,-24(s0)
    802020dc:	853e                	mv	a0,a5
    802020de:	7422                	ld	s0,40(sp)
    802020e0:	6145                	addi	sp,sp,48
    802020e2:	8082                	ret

00000000802020e4 <elf_load_programs_loop>:
    802020e4:	715d                	addi	sp,sp,-80
    802020e6:	e486                	sd	ra,72(sp)
    802020e8:	e0a2                	sd	s0,64(sp)
    802020ea:	0880                	addi	s0,sp,80
    802020ec:	fca43423          	sd	a0,-56(s0)
    802020f0:	fcb43023          	sd	a1,-64(s0)
    802020f4:	fac43c23          	sd	a2,-72(s0)
    802020f8:	fad43823          	sd	a3,-80(s0)
    802020fc:	fe043423          	sd	zero,-24(s0)
    80202100:	a845                	j	802021b0 <elf_load_programs_loop+0xcc>
    80202102:	fe843703          	ld	a4,-24(s0)
    80202106:	03f00793          	li	a5,63
    8020210a:	00e7f463          	bgeu	a5,a4,80202112 <elf_load_programs_loop+0x2e>
    8020210e:	57fd                	li	a5,-1
    80202110:	a07d                	j	802021be <elf_load_programs_loop+0xda>
    80202112:	fc843783          	ld	a5,-56(s0)
    80202116:	6798                	ld	a4,8(a5)
    80202118:	fe843683          	ld	a3,-24(s0)
    8020211c:	fb043783          	ld	a5,-80(s0)
    80202120:	02f686b3          	mul	a3,a3,a5
    80202124:	fc043783          	ld	a5,-64(s0)
    80202128:	97b6                	add	a5,a5,a3
    8020212a:	973e                	add	a4,a4,a5
    8020212c:	fc843683          	ld	a3,-56(s0)
    80202130:	fe843783          	ld	a5,-24(s0)
    80202134:	04278793          	addi	a5,a5,66
    80202138:	0792                	slli	a5,a5,0x4
    8020213a:	97b6                	add	a5,a5,a3
    8020213c:	e798                	sd	a4,8(a5)
    8020213e:	fe843783          	ld	a5,-24(s0)
    80202142:	04278793          	addi	a5,a5,66
    80202146:	0792                	slli	a5,a5,0x4
    80202148:	fc843703          	ld	a4,-56(s0)
    8020214c:	97ba                	add	a5,a5,a4
    8020214e:	07a1                	addi	a5,a5,8
    80202150:	85be                	mv	a1,a5
    80202152:	fc843503          	ld	a0,-56(s0)
    80202156:	acdff0ef          	jal	ra,80201c22 <elf_program_get_type>
    8020215a:	87aa                	mv	a5,a0
    8020215c:	fef42223          	sw	a5,-28(s0)
    80202160:	fe442783          	lw	a5,-28(s0)
    80202164:	2781                	sext.w	a5,a5
    80202166:	c3a1                	beqz	a5,802021a6 <elf_load_programs_loop+0xc2>
    80202168:	fe843783          	ld	a5,-24(s0)
    8020216c:	04278793          	addi	a5,a5,66
    80202170:	0792                	slli	a5,a5,0x4
    80202172:	fc843703          	ld	a4,-56(s0)
    80202176:	97ba                	add	a5,a5,a4
    80202178:	07a1                	addi	a5,a5,8
    8020217a:	85be                	mv	a1,a5
    8020217c:	fc843503          	ld	a0,-56(s0)
    80202180:	ae7ff0ef          	jal	ra,80201c66 <elf_program_get_offset>
    80202184:	fca43c23          	sd	a0,-40(s0)
    80202188:	fc843783          	ld	a5,-56(s0)
    8020218c:	6798                	ld	a4,8(a5)
    8020218e:	fd843783          	ld	a5,-40(s0)
    80202192:	973e                	add	a4,a4,a5
    80202194:	fc843683          	ld	a3,-56(s0)
    80202198:	fe843783          	ld	a5,-24(s0)
    8020219c:	04278793          	addi	a5,a5,66
    802021a0:	0792                	slli	a5,a5,0x4
    802021a2:	97b6                	add	a5,a5,a3
    802021a4:	eb98                	sd	a4,16(a5)
    802021a6:	fe843783          	ld	a5,-24(s0)
    802021aa:	0785                	addi	a5,a5,1
    802021ac:	fef43423          	sd	a5,-24(s0)
    802021b0:	fe843703          	ld	a4,-24(s0)
    802021b4:	fb843783          	ld	a5,-72(s0)
    802021b8:	f4f765e3          	bltu	a4,a5,80202102 <elf_load_programs_loop+0x1e>
    802021bc:	4781                	li	a5,0
    802021be:	853e                	mv	a0,a5
    802021c0:	60a6                	ld	ra,72(sp)
    802021c2:	6406                	ld	s0,64(sp)
    802021c4:	6161                	addi	sp,sp,80
    802021c6:	8082                	ret

00000000802021c8 <elf_load_programs>:
    802021c8:	7139                	addi	sp,sp,-64
    802021ca:	fc06                	sd	ra,56(sp)
    802021cc:	f822                	sd	s0,48(sp)
    802021ce:	0080                	addi	s0,sp,64
    802021d0:	fca43423          	sd	a0,-56(s0)
    802021d4:	fc843503          	ld	a0,-56(s0)
    802021d8:	e41ff0ef          	jal	ra,80202018 <elf_header_get_phoff>
    802021dc:	fea43423          	sd	a0,-24(s0)
    802021e0:	fe843783          	ld	a5,-24(s0)
    802021e4:	cfb1                	beqz	a5,80202240 <elf_load_programs+0x78>
    802021e6:	fc843503          	ld	a0,-56(s0)
    802021ea:	eb7ff0ef          	jal	ra,802020a0 <elf_header_get_phnum>
    802021ee:	fea43023          	sd	a0,-32(s0)
    802021f2:	fc843503          	ld	a0,-56(s0)
    802021f6:	e67ff0ef          	jal	ra,8020205c <elf_header_get_phentsize>
    802021fa:	fca43c23          	sd	a0,-40(s0)
    802021fe:	fe043703          	ld	a4,-32(s0)
    80202202:	fd843783          	ld	a5,-40(s0)
    80202206:	02f70733          	mul	a4,a4,a5
    8020220a:	fe843783          	ld	a5,-24(s0)
    8020220e:	973e                	add	a4,a4,a5
    80202210:	fc843783          	ld	a5,-56(s0)
    80202214:	639c                	ld	a5,0(a5)
    80202216:	00e7f463          	bgeu	a5,a4,8020221e <elf_load_programs+0x56>
    8020221a:	57fd                	li	a5,-1
    8020221c:	a82d                	j	80202256 <elf_load_programs+0x8e>
    8020221e:	fd843683          	ld	a3,-40(s0)
    80202222:	fe043603          	ld	a2,-32(s0)
    80202226:	fe843583          	ld	a1,-24(s0)
    8020222a:	fc843503          	ld	a0,-56(s0)
    8020222e:	eb7ff0ef          	jal	ra,802020e4 <elf_load_programs_loop>
    80202232:	87aa                	mv	a5,a0
    80202234:	873e                	mv	a4,a5
    80202236:	57fd                	li	a5,-1
    80202238:	00f71e63          	bne	a4,a5,80202254 <elf_load_programs+0x8c>
    8020223c:	57fd                	li	a5,-1
    8020223e:	a821                	j	80202256 <elf_load_programs+0x8e>
    80202240:	fc843783          	ld	a5,-56(s0)
    80202244:	42878793          	addi	a5,a5,1064
    80202248:	40000613          	li	a2,1024
    8020224c:	4581                	li	a1,0
    8020224e:	853e                	mv	a0,a5
    80202250:	4e8000ef          	jal	ra,80202738 <memset>
    80202254:	4781                	li	a5,0
    80202256:	853e                	mv	a0,a5
    80202258:	70e2                	ld	ra,56(sp)
    8020225a:	7442                	ld	s0,48(sp)
    8020225c:	6121                	addi	sp,sp,64
    8020225e:	8082                	ret

0000000080202260 <sbi_call>:
    80202260:	7179                	addi	sp,sp,-48
    80202262:	f422                	sd	s0,40(sp)
    80202264:	1800                	addi	s0,sp,48
    80202266:	fea43423          	sd	a0,-24(s0)
    8020226a:	feb43023          	sd	a1,-32(s0)
    8020226e:	fcc43c23          	sd	a2,-40(s0)
    80202272:	fcd43823          	sd	a3,-48(s0)
    80202276:	fe043503          	ld	a0,-32(s0)
    8020227a:	fd843583          	ld	a1,-40(s0)
    8020227e:	fd043603          	ld	a2,-48(s0)
    80202282:	fe843883          	ld	a7,-24(s0)
    80202286:	00000073          	ecall
    8020228a:	87aa                	mv	a5,a0
    8020228c:	853e                	mv	a0,a5
    8020228e:	7422                	ld	s0,40(sp)
    80202290:	6145                	addi	sp,sp,48
    80202292:	8082                	ret

0000000080202294 <console_putchar>:
    80202294:	1101                	addi	sp,sp,-32
    80202296:	ec06                	sd	ra,24(sp)
    80202298:	e822                	sd	s0,16(sp)
    8020229a:	1000                	addi	s0,sp,32
    8020229c:	fea43423          	sd	a0,-24(s0)
    802022a0:	fe843783          	ld	a5,-24(s0)
    802022a4:	4681                	li	a3,0
    802022a6:	4601                	li	a2,0
    802022a8:	85be                	mv	a1,a5
    802022aa:	4505                	li	a0,1
    802022ac:	fb5ff0ef          	jal	ra,80202260 <sbi_call>
    802022b0:	0001                	nop
    802022b2:	60e2                	ld	ra,24(sp)
    802022b4:	6442                	ld	s0,16(sp)
    802022b6:	6105                	addi	sp,sp,32
    802022b8:	8082                	ret

00000000802022ba <console_getchar>:
    802022ba:	1141                	addi	sp,sp,-16
    802022bc:	e406                	sd	ra,8(sp)
    802022be:	e022                	sd	s0,0(sp)
    802022c0:	0800                	addi	s0,sp,16
    802022c2:	4681                	li	a3,0
    802022c4:	4601                	li	a2,0
    802022c6:	4581                	li	a1,0
    802022c8:	4509                	li	a0,2
    802022ca:	f97ff0ef          	jal	ra,80202260 <sbi_call>
    802022ce:	87aa                	mv	a5,a0
    802022d0:	853e                	mv	a0,a5
    802022d2:	60a2                	ld	ra,8(sp)
    802022d4:	6402                	ld	s0,0(sp)
    802022d6:	0141                	addi	sp,sp,16
    802022d8:	8082                	ret

00000000802022da <sbi_shutdown>:
    802022da:	1141                	addi	sp,sp,-16
    802022dc:	e406                	sd	ra,8(sp)
    802022de:	e022                	sd	s0,0(sp)
    802022e0:	0800                	addi	s0,sp,16
    802022e2:	4681                	li	a3,0
    802022e4:	4601                	li	a2,0
    802022e6:	4581                	li	a1,0
    802022e8:	4521                	li	a0,8
    802022ea:	f77ff0ef          	jal	ra,80202260 <sbi_call>
    802022ee:	87aa                	mv	a5,a0
    802022f0:	853e                	mv	a0,a5
    802022f2:	60a2                	ld	ra,8(sp)
    802022f4:	6402                	ld	s0,0(sp)
    802022f6:	0141                	addi	sp,sp,16
    802022f8:	8082                	ret

00000000802022fa <sbi_set_timer>:
    802022fa:	1101                	addi	sp,sp,-32
    802022fc:	ec06                	sd	ra,24(sp)
    802022fe:	e822                	sd	s0,16(sp)
    80202300:	1000                	addi	s0,sp,32
    80202302:	fea43423          	sd	a0,-24(s0)
    80202306:	fe843783          	ld	a5,-24(s0)
    8020230a:	4681                	li	a3,0
    8020230c:	4601                	li	a2,0
    8020230e:	85be                	mv	a1,a5
    80202310:	4501                	li	a0,0
    80202312:	f4fff0ef          	jal	ra,80202260 <sbi_call>
    80202316:	87aa                	mv	a5,a0
    80202318:	853e                	mv	a0,a5
    8020231a:	60e2                	ld	ra,24(sp)
    8020231c:	6442                	ld	s0,16(sp)
    8020231e:	6105                	addi	sp,sp,32
    80202320:	8082                	ret

0000000080202322 <strlen_t>:
    80202322:	7179                	addi	sp,sp,-48
    80202324:	f422                	sd	s0,40(sp)
    80202326:	1800                	addi	s0,sp,48
    80202328:	fca43c23          	sd	a0,-40(s0)
    8020232c:	fe042623          	sw	zero,-20(s0)
    80202330:	a031                	j	8020233c <strlen_t+0x1a>
    80202332:	fec42783          	lw	a5,-20(s0)
    80202336:	2785                	addiw	a5,a5,1
    80202338:	fef42623          	sw	a5,-20(s0)
    8020233c:	fec42783          	lw	a5,-20(s0)
    80202340:	fd843703          	ld	a4,-40(s0)
    80202344:	97ba                	add	a5,a5,a4
    80202346:	0007c783          	lbu	a5,0(a5)
    8020234a:	f7e5                	bnez	a5,80202332 <strlen_t+0x10>
    8020234c:	fec42783          	lw	a5,-20(s0)
    80202350:	853e                	mv	a0,a5
    80202352:	7422                	ld	s0,40(sp)
    80202354:	6145                	addi	sp,sp,48
    80202356:	8082                	ret

0000000080202358 <memcpy_t>:
    80202358:	7179                	addi	sp,sp,-48
    8020235a:	f422                	sd	s0,40(sp)
    8020235c:	1800                	addi	s0,sp,48
    8020235e:	fea43423          	sd	a0,-24(s0)
    80202362:	feb43023          	sd	a1,-32(s0)
    80202366:	87b2                	mv	a5,a2
    80202368:	fcf42e23          	sw	a5,-36(s0)
    8020236c:	a035                	j	80202398 <memcpy_t+0x40>
    8020236e:	fe043703          	ld	a4,-32(s0)
    80202372:	00170793          	addi	a5,a4,1
    80202376:	fef43023          	sd	a5,-32(s0)
    8020237a:	fe843783          	ld	a5,-24(s0)
    8020237e:	00178693          	addi	a3,a5,1
    80202382:	fed43423          	sd	a3,-24(s0)
    80202386:	00074703          	lbu	a4,0(a4)
    8020238a:	00e78023          	sb	a4,0(a5)
    8020238e:	fdc42783          	lw	a5,-36(s0)
    80202392:	37fd                	addiw	a5,a5,-1
    80202394:	fcf42e23          	sw	a5,-36(s0)
    80202398:	fdc42783          	lw	a5,-36(s0)
    8020239c:	2781                	sext.w	a5,a5
    8020239e:	fbe1                	bnez	a5,8020236e <memcpy_t+0x16>
    802023a0:	0001                	nop
    802023a2:	0001                	nop
    802023a4:	7422                	ld	s0,40(sp)
    802023a6:	6145                	addi	sp,sp,48
    802023a8:	8082                	ret

00000000802023aa <memcmp_t>:
    802023aa:	7139                	addi	sp,sp,-64
    802023ac:	fc22                	sd	s0,56(sp)
    802023ae:	0080                	addi	s0,sp,64
    802023b0:	fca43c23          	sd	a0,-40(s0)
    802023b4:	fcb43823          	sd	a1,-48(s0)
    802023b8:	87b2                	mv	a5,a2
    802023ba:	fcf42623          	sw	a5,-52(s0)
    802023be:	fe042623          	sw	zero,-20(s0)
    802023c2:	a8a1                	j	8020241a <memcmp_t+0x70>
    802023c4:	fec42783          	lw	a5,-20(s0)
    802023c8:	fd843703          	ld	a4,-40(s0)
    802023cc:	97ba                	add	a5,a5,a4
    802023ce:	0007c683          	lbu	a3,0(a5)
    802023d2:	fec42783          	lw	a5,-20(s0)
    802023d6:	fd043703          	ld	a4,-48(s0)
    802023da:	97ba                	add	a5,a5,a4
    802023dc:	0007c783          	lbu	a5,0(a5)
    802023e0:	8736                	mv	a4,a3
    802023e2:	02f70763          	beq	a4,a5,80202410 <memcmp_t+0x66>
    802023e6:	fec42783          	lw	a5,-20(s0)
    802023ea:	fd843703          	ld	a4,-40(s0)
    802023ee:	97ba                	add	a5,a5,a4
    802023f0:	0007c783          	lbu	a5,0(a5)
    802023f4:	0007871b          	sext.w	a4,a5
    802023f8:	fec42783          	lw	a5,-20(s0)
    802023fc:	fd043683          	ld	a3,-48(s0)
    80202400:	97b6                	add	a5,a5,a3
    80202402:	0007c783          	lbu	a5,0(a5)
    80202406:	2781                	sext.w	a5,a5
    80202408:	40f707bb          	subw	a5,a4,a5
    8020240c:	2781                	sext.w	a5,a5
    8020240e:	a831                	j	8020242a <memcmp_t+0x80>
    80202410:	fec42783          	lw	a5,-20(s0)
    80202414:	2785                	addiw	a5,a5,1
    80202416:	fef42623          	sw	a5,-20(s0)
    8020241a:	fec42703          	lw	a4,-20(s0)
    8020241e:	fcc42783          	lw	a5,-52(s0)
    80202422:	2781                	sext.w	a5,a5
    80202424:	faf760e3          	bltu	a4,a5,802023c4 <memcmp_t+0x1a>
    80202428:	4781                	li	a5,0
    8020242a:	853e                	mv	a0,a5
    8020242c:	7462                	ld	s0,56(sp)
    8020242e:	6121                	addi	sp,sp,64
    80202430:	8082                	ret

0000000080202432 <memmove_t>:
    80202432:	715d                	addi	sp,sp,-80
    80202434:	e4a2                	sd	s0,72(sp)
    80202436:	0880                	addi	s0,sp,80
    80202438:	fca43423          	sd	a0,-56(s0)
    8020243c:	fcb43023          	sd	a1,-64(s0)
    80202440:	86b2                	mv	a3,a2
    80202442:	fad42e23          	sw	a3,-68(s0)
    80202446:	868a                	mv	a3,sp
    80202448:	85b6                	mv	a1,a3
    8020244a:	fbc42683          	lw	a3,-68(s0)
    8020244e:	02069613          	slli	a2,a3,0x20
    80202452:	9201                	srli	a2,a2,0x20
    80202454:	167d                	addi	a2,a2,-1
    80202456:	fec43423          	sd	a2,-24(s0)
    8020245a:	02069613          	slli	a2,a3,0x20
    8020245e:	9201                	srli	a2,a2,0x20
    80202460:	8e32                	mv	t3,a2
    80202462:	4e81                	li	t4,0
    80202464:	03de5613          	srli	a2,t3,0x3d
    80202468:	003e9893          	slli	a7,t4,0x3
    8020246c:	011668b3          	or	a7,a2,a7
    80202470:	003e1813          	slli	a6,t3,0x3
    80202474:	02069613          	slli	a2,a3,0x20
    80202478:	9201                	srli	a2,a2,0x20
    8020247a:	8332                	mv	t1,a2
    8020247c:	4381                	li	t2,0
    8020247e:	03d35613          	srli	a2,t1,0x3d
    80202482:	00339793          	slli	a5,t2,0x3
    80202486:	8fd1                	or	a5,a5,a2
    80202488:	00331713          	slli	a4,t1,0x3
    8020248c:	02069793          	slli	a5,a3,0x20
    80202490:	9381                	srli	a5,a5,0x20
    80202492:	07bd                	addi	a5,a5,15
    80202494:	8391                	srli	a5,a5,0x4
    80202496:	0792                	slli	a5,a5,0x4
    80202498:	40f10133          	sub	sp,sp,a5
    8020249c:	878a                	mv	a5,sp
    8020249e:	00078793          	mv	a5,a5
    802024a2:	fef43023          	sd	a5,-32(s0)
    802024a6:	fc042e23          	sw	zero,-36(s0)
    802024aa:	a02d                	j	802024d4 <memmove_t+0xa2>
    802024ac:	fc043783          	ld	a5,-64(s0)
    802024b0:	00178713          	addi	a4,a5,1
    802024b4:	fce43023          	sd	a4,-64(s0)
    802024b8:	0007c703          	lbu	a4,0(a5)
    802024bc:	fe043683          	ld	a3,-32(s0)
    802024c0:	fdc42783          	lw	a5,-36(s0)
    802024c4:	97b6                	add	a5,a5,a3
    802024c6:	00e78023          	sb	a4,0(a5)
    802024ca:	fbc42783          	lw	a5,-68(s0)
    802024ce:	37fd                	addiw	a5,a5,-1
    802024d0:	faf42e23          	sw	a5,-68(s0)
    802024d4:	fbc42783          	lw	a5,-68(s0)
    802024d8:	2781                	sext.w	a5,a5
    802024da:	fbe9                	bnez	a5,802024ac <memmove_t+0x7a>
    802024dc:	a02d                	j	80202506 <memmove_t+0xd4>
    802024de:	fc843783          	ld	a5,-56(s0)
    802024e2:	00178713          	addi	a4,a5,1
    802024e6:	fce43423          	sd	a4,-56(s0)
    802024ea:	fe043683          	ld	a3,-32(s0)
    802024ee:	fdc42703          	lw	a4,-36(s0)
    802024f2:	9736                	add	a4,a4,a3
    802024f4:	00074703          	lbu	a4,0(a4)
    802024f8:	00e78023          	sb	a4,0(a5)
    802024fc:	fbc42783          	lw	a5,-68(s0)
    80202500:	37fd                	addiw	a5,a5,-1
    80202502:	faf42e23          	sw	a5,-68(s0)
    80202506:	fbc42783          	lw	a5,-68(s0)
    8020250a:	2781                	sext.w	a5,a5
    8020250c:	fbe9                	bnez	a5,802024de <memmove_t+0xac>
    8020250e:	812e                	mv	sp,a1
    80202510:	0001                	nop
    80202512:	fb040113          	addi	sp,s0,-80
    80202516:	6426                	ld	s0,72(sp)
    80202518:	6161                	addi	sp,sp,80
    8020251a:	8082                	ret

000000008020251c <memset_t>:
    8020251c:	7179                	addi	sp,sp,-48
    8020251e:	f422                	sd	s0,40(sp)
    80202520:	1800                	addi	s0,sp,48
    80202522:	fca43c23          	sd	a0,-40(s0)
    80202526:	87ae                	mv	a5,a1
    80202528:	8732                	mv	a4,a2
    8020252a:	fcf40ba3          	sb	a5,-41(s0)
    8020252e:	87ba                	mv	a5,a4
    80202530:	fcf42823          	sw	a5,-48(s0)
    80202534:	fd843783          	ld	a5,-40(s0)
    80202538:	fef43423          	sd	a5,-24(s0)
    8020253c:	a005                	j	8020255c <memset_t+0x40>
    8020253e:	fe843783          	ld	a5,-24(s0)
    80202542:	00178713          	addi	a4,a5,1
    80202546:	fee43423          	sd	a4,-24(s0)
    8020254a:	fd744703          	lbu	a4,-41(s0)
    8020254e:	00e78023          	sb	a4,0(a5)
    80202552:	fd042783          	lw	a5,-48(s0)
    80202556:	37fd                	addiw	a5,a5,-1
    80202558:	fcf42823          	sw	a5,-48(s0)
    8020255c:	fd042783          	lw	a5,-48(s0)
    80202560:	2781                	sext.w	a5,a5
    80202562:	fff1                	bnez	a5,8020253e <memset_t+0x22>
    80202564:	0001                	nop
    80202566:	0001                	nop
    80202568:	7422                	ld	s0,40(sp)
    8020256a:	6145                	addi	sp,sp,48
    8020256c:	8082                	ret

000000008020256e <bzero_t>:
    8020256e:	1101                	addi	sp,sp,-32
    80202570:	ec06                	sd	ra,24(sp)
    80202572:	e822                	sd	s0,16(sp)
    80202574:	1000                	addi	s0,sp,32
    80202576:	fea43423          	sd	a0,-24(s0)
    8020257a:	87ae                	mv	a5,a1
    8020257c:	fef42223          	sw	a5,-28(s0)
    80202580:	fe442783          	lw	a5,-28(s0)
    80202584:	863e                	mv	a2,a5
    80202586:	4581                	li	a1,0
    80202588:	fe843503          	ld	a0,-24(s0)
    8020258c:	f91ff0ef          	jal	ra,8020251c <memset_t>
    80202590:	0001                	nop
    80202592:	60e2                	ld	ra,24(sp)
    80202594:	6442                	ld	s0,16(sp)
    80202596:	6105                	addi	sp,sp,32
    80202598:	8082                	ret

000000008020259a <strcmp_t>:
    8020259a:	1101                	addi	sp,sp,-32
    8020259c:	ec22                	sd	s0,24(sp)
    8020259e:	1000                	addi	s0,sp,32
    802025a0:	fea43423          	sd	a0,-24(s0)
    802025a4:	feb43023          	sd	a1,-32(s0)
    802025a8:	a0a1                	j	802025f0 <strcmp_t+0x56>
    802025aa:	fe843783          	ld	a5,-24(s0)
    802025ae:	0007c703          	lbu	a4,0(a5)
    802025b2:	fe043783          	ld	a5,-32(s0)
    802025b6:	0007c783          	lbu	a5,0(a5)
    802025ba:	02f70163          	beq	a4,a5,802025dc <strcmp_t+0x42>
    802025be:	fe843783          	ld	a5,-24(s0)
    802025c2:	0007c783          	lbu	a5,0(a5)
    802025c6:	0007871b          	sext.w	a4,a5
    802025ca:	fe043783          	ld	a5,-32(s0)
    802025ce:	0007c783          	lbu	a5,0(a5)
    802025d2:	2781                	sext.w	a5,a5
    802025d4:	40f707bb          	subw	a5,a4,a5
    802025d8:	2781                	sext.w	a5,a5
    802025da:	a099                	j	80202620 <strcmp_t+0x86>
    802025dc:	fe843783          	ld	a5,-24(s0)
    802025e0:	0785                	addi	a5,a5,1
    802025e2:	fef43423          	sd	a5,-24(s0)
    802025e6:	fe043783          	ld	a5,-32(s0)
    802025ea:	0785                	addi	a5,a5,1
    802025ec:	fef43023          	sd	a5,-32(s0)
    802025f0:	fe843783          	ld	a5,-24(s0)
    802025f4:	0007c783          	lbu	a5,0(a5)
    802025f8:	c791                	beqz	a5,80202604 <strcmp_t+0x6a>
    802025fa:	fe043783          	ld	a5,-32(s0)
    802025fe:	0007c783          	lbu	a5,0(a5)
    80202602:	f7c5                	bnez	a5,802025aa <strcmp_t+0x10>
    80202604:	fe843783          	ld	a5,-24(s0)
    80202608:	0007c783          	lbu	a5,0(a5)
    8020260c:	0007871b          	sext.w	a4,a5
    80202610:	fe043783          	ld	a5,-32(s0)
    80202614:	0007c783          	lbu	a5,0(a5)
    80202618:	2781                	sext.w	a5,a5
    8020261a:	40f707bb          	subw	a5,a4,a5
    8020261e:	2781                	sext.w	a5,a5
    80202620:	853e                	mv	a0,a5
    80202622:	6462                	ld	s0,24(sp)
    80202624:	6105                	addi	sp,sp,32
    80202626:	8082                	ret

0000000080202628 <strcpy_t>:
    80202628:	7179                	addi	sp,sp,-48
    8020262a:	f422                	sd	s0,40(sp)
    8020262c:	1800                	addi	s0,sp,48
    8020262e:	fca43c23          	sd	a0,-40(s0)
    80202632:	fcb43823          	sd	a1,-48(s0)
    80202636:	fd843783          	ld	a5,-40(s0)
    8020263a:	fef43423          	sd	a5,-24(s0)
    8020263e:	a00d                	j	80202660 <strcpy_t+0x38>
    80202640:	fd043703          	ld	a4,-48(s0)
    80202644:	00170793          	addi	a5,a4,1
    80202648:	fcf43823          	sd	a5,-48(s0)
    8020264c:	fd843783          	ld	a5,-40(s0)
    80202650:	00178693          	addi	a3,a5,1
    80202654:	fcd43c23          	sd	a3,-40(s0)
    80202658:	00074703          	lbu	a4,0(a4)
    8020265c:	00e78023          	sb	a4,0(a5)
    80202660:	fd043783          	ld	a5,-48(s0)
    80202664:	0007c783          	lbu	a5,0(a5)
    80202668:	ffe1                	bnez	a5,80202640 <strcpy_t+0x18>
    8020266a:	fd843783          	ld	a5,-40(s0)
    8020266e:	00078023          	sb	zero,0(a5)
    80202672:	fe843783          	ld	a5,-24(s0)
    80202676:	853e                	mv	a0,a5
    80202678:	7422                	ld	s0,40(sp)
    8020267a:	6145                	addi	sp,sp,48
    8020267c:	8082                	ret

000000008020267e <strcat_t>:
    8020267e:	7179                	addi	sp,sp,-48
    80202680:	f422                	sd	s0,40(sp)
    80202682:	1800                	addi	s0,sp,48
    80202684:	fca43c23          	sd	a0,-40(s0)
    80202688:	fcb43823          	sd	a1,-48(s0)
    8020268c:	fd843783          	ld	a5,-40(s0)
    80202690:	fef43423          	sd	a5,-24(s0)
    80202694:	a031                	j	802026a0 <strcat_t+0x22>
    80202696:	fd843783          	ld	a5,-40(s0)
    8020269a:	0785                	addi	a5,a5,1
    8020269c:	fcf43c23          	sd	a5,-40(s0)
    802026a0:	fd843783          	ld	a5,-40(s0)
    802026a4:	0007c783          	lbu	a5,0(a5)
    802026a8:	f7fd                	bnez	a5,80202696 <strcat_t+0x18>
    802026aa:	a00d                	j	802026cc <strcat_t+0x4e>
    802026ac:	fd043703          	ld	a4,-48(s0)
    802026b0:	00170793          	addi	a5,a4,1
    802026b4:	fcf43823          	sd	a5,-48(s0)
    802026b8:	fd843783          	ld	a5,-40(s0)
    802026bc:	00178693          	addi	a3,a5,1
    802026c0:	fcd43c23          	sd	a3,-40(s0)
    802026c4:	00074703          	lbu	a4,0(a4)
    802026c8:	00e78023          	sb	a4,0(a5)
    802026cc:	fd043783          	ld	a5,-48(s0)
    802026d0:	0007c783          	lbu	a5,0(a5)
    802026d4:	ffe1                	bnez	a5,802026ac <strcat_t+0x2e>
    802026d6:	fd843783          	ld	a5,-40(s0)
    802026da:	00078023          	sb	zero,0(a5)
    802026de:	fe843783          	ld	a5,-24(s0)
    802026e2:	853e                	mv	a0,a5
    802026e4:	7422                	ld	s0,40(sp)
    802026e6:	6145                	addi	sp,sp,48
    802026e8:	8082                	ret

00000000802026ea <memcpy>:
    802026ea:	7179                	addi	sp,sp,-48
    802026ec:	f422                	sd	s0,40(sp)
    802026ee:	1800                	addi	s0,sp,48
    802026f0:	fea43423          	sd	a0,-24(s0)
    802026f4:	feb43023          	sd	a1,-32(s0)
    802026f8:	87b2                	mv	a5,a2
    802026fa:	fcf42e23          	sw	a5,-36(s0)
    802026fe:	a00d                	j	80202720 <memcpy+0x36>
    80202700:	fe043703          	ld	a4,-32(s0)
    80202704:	00170793          	addi	a5,a4,1
    80202708:	fef43023          	sd	a5,-32(s0)
    8020270c:	fe843783          	ld	a5,-24(s0)
    80202710:	00178693          	addi	a3,a5,1
    80202714:	fed43423          	sd	a3,-24(s0)
    80202718:	00074703          	lbu	a4,0(a4)
    8020271c:	00e78023          	sb	a4,0(a5)
    80202720:	fdc42783          	lw	a5,-36(s0)
    80202724:	fff7871b          	addiw	a4,a5,-1
    80202728:	fce42e23          	sw	a4,-36(s0)
    8020272c:	fbf1                	bnez	a5,80202700 <memcpy+0x16>
    8020272e:	0001                	nop
    80202730:	0001                	nop
    80202732:	7422                	ld	s0,40(sp)
    80202734:	6145                	addi	sp,sp,48
    80202736:	8082                	ret

0000000080202738 <memset>:
    80202738:	1101                	addi	sp,sp,-32
    8020273a:	ec06                	sd	ra,24(sp)
    8020273c:	e822                	sd	s0,16(sp)
    8020273e:	1000                	addi	s0,sp,32
    80202740:	fea43423          	sd	a0,-24(s0)
    80202744:	87ae                	mv	a5,a1
    80202746:	8732                	mv	a4,a2
    80202748:	fef403a3          	sb	a5,-25(s0)
    8020274c:	87ba                	mv	a5,a4
    8020274e:	fef42023          	sw	a5,-32(s0)
    80202752:	fe042703          	lw	a4,-32(s0)
    80202756:	fe744783          	lbu	a5,-25(s0)
    8020275a:	863a                	mv	a2,a4
    8020275c:	85be                	mv	a1,a5
    8020275e:	fe843503          	ld	a0,-24(s0)
    80202762:	dbbff0ef          	jal	ra,8020251c <memset_t>
    80202766:	0001                	nop
    80202768:	60e2                	ld	ra,24(sp)
    8020276a:	6442                	ld	s0,16(sp)
    8020276c:	6105                	addi	sp,sp,32
    8020276e:	8082                	ret

0000000080202770 <memcmp>:
    80202770:	715d                	addi	sp,sp,-80
    80202772:	e4a2                	sd	s0,72(sp)
    80202774:	0880                	addi	s0,sp,80
    80202776:	fca43423          	sd	a0,-56(s0)
    8020277a:	fcb43023          	sd	a1,-64(s0)
    8020277e:	fac43c23          	sd	a2,-72(s0)
    80202782:	fc843783          	ld	a5,-56(s0)
    80202786:	fef43023          	sd	a5,-32(s0)
    8020278a:	fc043783          	ld	a5,-64(s0)
    8020278e:	fcf43c23          	sd	a5,-40(s0)
    80202792:	fe043423          	sd	zero,-24(s0)
    80202796:	a8a1                	j	802027ee <memcmp+0x7e>
    80202798:	fe043703          	ld	a4,-32(s0)
    8020279c:	fe843783          	ld	a5,-24(s0)
    802027a0:	97ba                	add	a5,a5,a4
    802027a2:	0007c683          	lbu	a3,0(a5)
    802027a6:	fd843703          	ld	a4,-40(s0)
    802027aa:	fe843783          	ld	a5,-24(s0)
    802027ae:	97ba                	add	a5,a5,a4
    802027b0:	0007c783          	lbu	a5,0(a5)
    802027b4:	8736                	mv	a4,a3
    802027b6:	02f70763          	beq	a4,a5,802027e4 <memcmp+0x74>
    802027ba:	fe043703          	ld	a4,-32(s0)
    802027be:	fe843783          	ld	a5,-24(s0)
    802027c2:	97ba                	add	a5,a5,a4
    802027c4:	0007c783          	lbu	a5,0(a5)
    802027c8:	0007871b          	sext.w	a4,a5
    802027cc:	fd843683          	ld	a3,-40(s0)
    802027d0:	fe843783          	ld	a5,-24(s0)
    802027d4:	97b6                	add	a5,a5,a3
    802027d6:	0007c783          	lbu	a5,0(a5)
    802027da:	2781                	sext.w	a5,a5
    802027dc:	40f707bb          	subw	a5,a4,a5
    802027e0:	2781                	sext.w	a5,a5
    802027e2:	a829                	j	802027fc <memcmp+0x8c>
    802027e4:	fe843783          	ld	a5,-24(s0)
    802027e8:	0785                	addi	a5,a5,1
    802027ea:	fef43423          	sd	a5,-24(s0)
    802027ee:	fe843703          	ld	a4,-24(s0)
    802027f2:	fb843783          	ld	a5,-72(s0)
    802027f6:	faf761e3          	bltu	a4,a5,80202798 <memcmp+0x28>
    802027fa:	4781                	li	a5,0
    802027fc:	853e                	mv	a0,a5
    802027fe:	6426                	ld	s0,72(sp)
    80202800:	6161                	addi	sp,sp,80
    80202802:	8082                	ret

0000000080202804 <memory_set_kernel_init>:
    80202804:	1141                	addi	sp,sp,-16
    80202806:	e406                	sd	ra,8(sp)
    80202808:	e022                	sd	s0,0(sp)
    8020280a:	0800                	addi	s0,sp,16
    8020280c:	00817517          	auipc	a0,0x817
    80202810:	7fc50513          	addi	a0,a0,2044 # 80a1a008 <KERNEL_SPACE>
    80202814:	1f5000ef          	jal	ra,80203208 <memory_set_kernel_new>
    80202818:	00817517          	auipc	a0,0x817
    8020281c:	7f050513          	addi	a0,a0,2032 # 80a1a008 <KERNEL_SPACE>
    80202820:	3b9000ef          	jal	ra,802033d8 <memory_set_activate>
    80202824:	0001                	nop
    80202826:	60a2                	ld	ra,8(sp)
    80202828:	6402                	ld	s0,0(sp)
    8020282a:	0141                	addi	sp,sp,16
    8020282c:	8082                	ret

000000008020282e <mm_init>:
    8020282e:	1141                	addi	sp,sp,-16
    80202830:	e406                	sd	ra,8(sp)
    80202832:	e022                	sd	s0,0(sp)
    80202834:	0800                	addi	s0,sp,16
    80202836:	01a000ef          	jal	ra,80202850 <init_heap>
    8020283a:	374010ef          	jal	ra,80203bae <frame_allocator_init>
    8020283e:	fc7ff0ef          	jal	ra,80202804 <memory_set_kernel_init>
    80202842:	3c7000ef          	jal	ra,80203408 <memory_set_remap_test>
    80202846:	0001                	nop
    80202848:	60a2                	ld	ra,8(sp)
    8020284a:	6402                	ld	s0,0(sp)
    8020284c:	0141                	addi	sp,sp,16
    8020284e:	8082                	ret

0000000080202850 <init_heap>:
    80202850:	1101                	addi	sp,sp,-32
    80202852:	ec22                	sd	s0,24(sp)
    80202854:	1000                	addi	s0,sp,32
    80202856:	00017797          	auipc	a5,0x17
    8020285a:	7b278793          	addi	a5,a5,1970 # 8021a008 <heap>
    8020285e:	fef43423          	sd	a5,-24(s0)
    80202862:	fe843783          	ld	a5,-24(s0)
    80202866:	00800737          	lui	a4,0x800
    8020286a:	1741                	addi	a4,a4,-16
    8020286c:	e398                	sd	a4,0(a5)
    8020286e:	fe843783          	ld	a5,-24(s0)
    80202872:	4705                	li	a4,1
    80202874:	c798                	sw	a4,8(a5)
    80202876:	0001                	nop
    80202878:	6462                	ld	s0,24(sp)
    8020287a:	6105                	addi	sp,sp,32
    8020287c:	8082                	ret

000000008020287e <malloc>:
    8020287e:	7179                	addi	sp,sp,-48
    80202880:	f422                	sd	s0,40(sp)
    80202882:	1800                	addi	s0,sp,48
    80202884:	fca43c23          	sd	a0,-40(s0)
    80202888:	00017797          	auipc	a5,0x17
    8020288c:	78078793          	addi	a5,a5,1920 # 8021a008 <heap>
    80202890:	fef43423          	sd	a5,-24(s0)
    80202894:	a025                	j	802028bc <malloc+0x3e>
    80202896:	fe843783          	ld	a5,-24(s0)
    8020289a:	639c                	ld	a5,0(a5)
    8020289c:	07c1                	addi	a5,a5,16
    8020289e:	fe843703          	ld	a4,-24(s0)
    802028a2:	97ba                	add	a5,a5,a4
    802028a4:	fef43423          	sd	a5,-24(s0)
    802028a8:	00817797          	auipc	a5,0x817
    802028ac:	76078793          	addi	a5,a5,1888 # 80a1a008 <KERNEL_SPACE>
    802028b0:	fe843703          	ld	a4,-24(s0)
    802028b4:	00f76463          	bltu	a4,a5,802028bc <malloc+0x3e>
    802028b8:	4781                	li	a5,0
    802028ba:	a885                	j	8020292a <malloc+0xac>
    802028bc:	fe843783          	ld	a5,-24(s0)
    802028c0:	639c                	ld	a5,0(a5)
    802028c2:	fd843703          	ld	a4,-40(s0)
    802028c6:	fce7e8e3          	bltu	a5,a4,80202896 <malloc+0x18>
    802028ca:	fe843783          	ld	a5,-24(s0)
    802028ce:	479c                	lw	a5,8(a5)
    802028d0:	d3f9                	beqz	a5,80202896 <malloc+0x18>
    802028d2:	fe843783          	ld	a5,-24(s0)
    802028d6:	6398                	ld	a4,0(a5)
    802028d8:	fd843783          	ld	a5,-40(s0)
    802028dc:	07d1                	addi	a5,a5,20
    802028de:	02f76f63          	bltu	a4,a5,8020291c <malloc+0x9e>
    802028e2:	fd843783          	ld	a5,-40(s0)
    802028e6:	07c1                	addi	a5,a5,16
    802028e8:	fe843703          	ld	a4,-24(s0)
    802028ec:	97ba                	add	a5,a5,a4
    802028ee:	fef43023          	sd	a5,-32(s0)
    802028f2:	fe843783          	ld	a5,-24(s0)
    802028f6:	6398                	ld	a4,0(a5)
    802028f8:	fd843783          	ld	a5,-40(s0)
    802028fc:	40f707b3          	sub	a5,a4,a5
    80202900:	ff078713          	addi	a4,a5,-16
    80202904:	fe043783          	ld	a5,-32(s0)
    80202908:	e398                	sd	a4,0(a5)
    8020290a:	fe043783          	ld	a5,-32(s0)
    8020290e:	4705                	li	a4,1
    80202910:	c798                	sw	a4,8(a5)
    80202912:	fe843783          	ld	a5,-24(s0)
    80202916:	fd843703          	ld	a4,-40(s0)
    8020291a:	e398                	sd	a4,0(a5)
    8020291c:	fe843783          	ld	a5,-24(s0)
    80202920:	0007a423          	sw	zero,8(a5)
    80202924:	fe843783          	ld	a5,-24(s0)
    80202928:	07c1                	addi	a5,a5,16
    8020292a:	853e                	mv	a0,a5
    8020292c:	7422                	ld	s0,40(sp)
    8020292e:	6145                	addi	sp,sp,48
    80202930:	8082                	ret

0000000080202932 <free>:
    80202932:	7179                	addi	sp,sp,-48
    80202934:	f422                	sd	s0,40(sp)
    80202936:	1800                	addi	s0,sp,48
    80202938:	fca43c23          	sd	a0,-40(s0)
    8020293c:	fd843783          	ld	a5,-40(s0)
    80202940:	cb99                	beqz	a5,80202956 <free+0x24>
    80202942:	fd843783          	ld	a5,-40(s0)
    80202946:	17c1                	addi	a5,a5,-16
    80202948:	fef43423          	sd	a5,-24(s0)
    8020294c:	fe843783          	ld	a5,-24(s0)
    80202950:	4705                	li	a4,1
    80202952:	c798                	sw	a4,8(a5)
    80202954:	a011                	j	80202958 <free+0x26>
    80202956:	0001                	nop
    80202958:	7422                	ld	s0,40(sp)
    8020295a:	6145                	addi	sp,sp,48
    8020295c:	8082                	ret

000000008020295e <print_heap>:
    8020295e:	1101                	addi	sp,sp,-32
    80202960:	ec06                	sd	ra,24(sp)
    80202962:	e822                	sd	s0,16(sp)
    80202964:	1000                	addi	s0,sp,32
    80202966:	00017797          	auipc	a5,0x17
    8020296a:	6a278793          	addi	a5,a5,1698 # 8021a008 <heap>
    8020296e:	fef43423          	sd	a5,-24(s0)
    80202972:	a095                	j	802029d6 <print_heap+0x78>
    80202974:	00003517          	auipc	a0,0x3
    80202978:	73450513          	addi	a0,a0,1844 # 802060a8 <rodata_start+0xa8>
    8020297c:	4be010ef          	jal	ra,80203e3a <print_str>
    80202980:	fe843783          	ld	a5,-24(s0)
    80202984:	639c                	ld	a5,0(a5)
    80202986:	853e                	mv	a0,a5
    80202988:	630010ef          	jal	ra,80203fb8 <print_uint64>
    8020298c:	00003517          	auipc	a0,0x3
    80202990:	72c50513          	addi	a0,a0,1836 # 802060b8 <rodata_start+0xb8>
    80202994:	4a6010ef          	jal	ra,80203e3a <print_str>
    80202998:	fe843783          	ld	a5,-24(s0)
    8020299c:	479c                	lw	a5,8(a5)
    8020299e:	c791                	beqz	a5,802029aa <print_heap+0x4c>
    802029a0:	00003797          	auipc	a5,0x3
    802029a4:	72878793          	addi	a5,a5,1832 # 802060c8 <rodata_start+0xc8>
    802029a8:	a029                	j	802029b2 <print_heap+0x54>
    802029aa:	00003797          	auipc	a5,0x3
    802029ae:	72678793          	addi	a5,a5,1830 # 802060d0 <rodata_start+0xd0>
    802029b2:	853e                	mv	a0,a5
    802029b4:	486010ef          	jal	ra,80203e3a <print_str>
    802029b8:	00003517          	auipc	a0,0x3
    802029bc:	72050513          	addi	a0,a0,1824 # 802060d8 <rodata_start+0xd8>
    802029c0:	47a010ef          	jal	ra,80203e3a <print_str>
    802029c4:	fe843783          	ld	a5,-24(s0)
    802029c8:	639c                	ld	a5,0(a5)
    802029ca:	07c1                	addi	a5,a5,16
    802029cc:	fe843703          	ld	a4,-24(s0)
    802029d0:	97ba                	add	a5,a5,a4
    802029d2:	fef43423          	sd	a5,-24(s0)
    802029d6:	00817797          	auipc	a5,0x817
    802029da:	63278793          	addi	a5,a5,1586 # 80a1a008 <KERNEL_SPACE>
    802029de:	fe843703          	ld	a4,-24(s0)
    802029e2:	f8f769e3          	bltu	a4,a5,80202974 <print_heap+0x16>
    802029e6:	0001                	nop
    802029e8:	0001                	nop
    802029ea:	60e2                	ld	ra,24(sp)
    802029ec:	6442                	ld	s0,16(sp)
    802029ee:	6105                	addi	sp,sp,32
    802029f0:	8082                	ret

00000000802029f2 <realloc>:
    802029f2:	7139                	addi	sp,sp,-64
    802029f4:	fc06                	sd	ra,56(sp)
    802029f6:	f822                	sd	s0,48(sp)
    802029f8:	0080                	addi	s0,sp,64
    802029fa:	fca43423          	sd	a0,-56(s0)
    802029fe:	fcb43023          	sd	a1,-64(s0)
    80202a02:	fc043783          	ld	a5,-64(s0)
    80202a06:	e799                	bnez	a5,80202a14 <realloc+0x22>
    80202a08:	fc843503          	ld	a0,-56(s0)
    80202a0c:	f27ff0ef          	jal	ra,80202932 <free>
    80202a10:	4781                	li	a5,0
    80202a12:	a045                	j	80202ab2 <realloc+0xc0>
    80202a14:	fc843783          	ld	a5,-56(s0)
    80202a18:	e799                	bnez	a5,80202a26 <realloc+0x34>
    80202a1a:	fc043503          	ld	a0,-64(s0)
    80202a1e:	e61ff0ef          	jal	ra,8020287e <malloc>
    80202a22:	87aa                	mv	a5,a0
    80202a24:	a079                	j	80202ab2 <realloc+0xc0>
    80202a26:	fc843783          	ld	a5,-56(s0)
    80202a2a:	17c1                	addi	a5,a5,-16
    80202a2c:	fef43023          	sd	a5,-32(s0)
    80202a30:	fe043783          	ld	a5,-32(s0)
    80202a34:	639c                	ld	a5,0(a5)
    80202a36:	fc043703          	ld	a4,-64(s0)
    80202a3a:	00e7e563          	bltu	a5,a4,80202a44 <realloc+0x52>
    80202a3e:	fc843783          	ld	a5,-56(s0)
    80202a42:	a885                	j	80202ab2 <realloc+0xc0>
    80202a44:	fc043503          	ld	a0,-64(s0)
    80202a48:	e37ff0ef          	jal	ra,8020287e <malloc>
    80202a4c:	fca43c23          	sd	a0,-40(s0)
    80202a50:	fd843783          	ld	a5,-40(s0)
    80202a54:	e399                	bnez	a5,80202a5a <realloc+0x68>
    80202a56:	4781                	li	a5,0
    80202a58:	a8a9                	j	80202ab2 <realloc+0xc0>
    80202a5a:	fe043783          	ld	a5,-32(s0)
    80202a5e:	6398                	ld	a4,0(a5)
    80202a60:	fc043783          	ld	a5,-64(s0)
    80202a64:	00f77363          	bgeu	a4,a5,80202a6a <realloc+0x78>
    80202a68:	87ba                	mv	a5,a4
    80202a6a:	fcf43823          	sd	a5,-48(s0)
    80202a6e:	fe043423          	sd	zero,-24(s0)
    80202a72:	a025                	j	80202a9a <realloc+0xa8>
    80202a74:	fc843703          	ld	a4,-56(s0)
    80202a78:	fe843783          	ld	a5,-24(s0)
    80202a7c:	973e                	add	a4,a4,a5
    80202a7e:	fd843683          	ld	a3,-40(s0)
    80202a82:	fe843783          	ld	a5,-24(s0)
    80202a86:	97b6                	add	a5,a5,a3
    80202a88:	00074703          	lbu	a4,0(a4) # 800000 <n+0x7fffe0>
    80202a8c:	00e78023          	sb	a4,0(a5)
    80202a90:	fe843783          	ld	a5,-24(s0)
    80202a94:	0785                	addi	a5,a5,1
    80202a96:	fef43423          	sd	a5,-24(s0)
    80202a9a:	fe843703          	ld	a4,-24(s0)
    80202a9e:	fd043783          	ld	a5,-48(s0)
    80202aa2:	fcf769e3          	bltu	a4,a5,80202a74 <realloc+0x82>
    80202aa6:	fc843503          	ld	a0,-56(s0)
    80202aaa:	e89ff0ef          	jal	ra,80202932 <free>
    80202aae:	fd843783          	ld	a5,-40(s0)
    80202ab2:	853e                	mv	a0,a5
    80202ab4:	70e2                	ld	ra,56(sp)
    80202ab6:	7442                	ld	s0,48(sp)
    80202ab8:	6121                	addi	sp,sp,64
    80202aba:	8082                	ret

0000000080202abc <pte_new>:
    80202abc:	7179                	addi	sp,sp,-48
    80202abe:	f422                	sd	s0,40(sp)
    80202ac0:	1800                	addi	s0,sp,48
    80202ac2:	fca43c23          	sd	a0,-40(s0)
    80202ac6:	87ae                	mv	a5,a1
    80202ac8:	fcf40ba3          	sb	a5,-41(s0)
    80202acc:	fd843783          	ld	a5,-40(s0)
    80202ad0:	00a79713          	slli	a4,a5,0xa
    80202ad4:	fd744783          	lbu	a5,-41(s0)
    80202ad8:	8fd9                	or	a5,a5,a4
    80202ada:	fef43423          	sd	a5,-24(s0)
    80202ade:	fe843783          	ld	a5,-24(s0)
    80202ae2:	853e                	mv	a0,a5
    80202ae4:	7422                	ld	s0,40(sp)
    80202ae6:	6145                	addi	sp,sp,48
    80202ae8:	8082                	ret

0000000080202aea <pte_empty>:
    80202aea:	1101                	addi	sp,sp,-32
    80202aec:	ec22                	sd	s0,24(sp)
    80202aee:	1000                	addi	s0,sp,32
    80202af0:	fe043423          	sd	zero,-24(s0)
    80202af4:	fe843783          	ld	a5,-24(s0)
    80202af8:	853e                	mv	a0,a5
    80202afa:	6462                	ld	s0,24(sp)
    80202afc:	6105                	addi	sp,sp,32
    80202afe:	8082                	ret

0000000080202b00 <pte_ppn>:
    80202b00:	1101                	addi	sp,sp,-32
    80202b02:	ec22                	sd	s0,24(sp)
    80202b04:	1000                	addi	s0,sp,32
    80202b06:	fea43423          	sd	a0,-24(s0)
    80202b0a:	fe843783          	ld	a5,-24(s0)
    80202b0e:	00a7d713          	srli	a4,a5,0xa
    80202b12:	57fd                	li	a5,-1
    80202b14:	83d1                	srli	a5,a5,0x14
    80202b16:	8ff9                	and	a5,a5,a4
    80202b18:	853e                	mv	a0,a5
    80202b1a:	6462                	ld	s0,24(sp)
    80202b1c:	6105                	addi	sp,sp,32
    80202b1e:	8082                	ret

0000000080202b20 <pte_flags>:
    80202b20:	1101                	addi	sp,sp,-32
    80202b22:	ec22                	sd	s0,24(sp)
    80202b24:	1000                	addi	s0,sp,32
    80202b26:	fea43423          	sd	a0,-24(s0)
    80202b2a:	fe843783          	ld	a5,-24(s0)
    80202b2e:	0ff7f793          	andi	a5,a5,255
    80202b32:	853e                	mv	a0,a5
    80202b34:	6462                	ld	s0,24(sp)
    80202b36:	6105                	addi	sp,sp,32
    80202b38:	8082                	ret

0000000080202b3a <pte_is_valid>:
    80202b3a:	1101                	addi	sp,sp,-32
    80202b3c:	ec06                	sd	ra,24(sp)
    80202b3e:	e822                	sd	s0,16(sp)
    80202b40:	1000                	addi	s0,sp,32
    80202b42:	fea43423          	sd	a0,-24(s0)
    80202b46:	fe843503          	ld	a0,-24(s0)
    80202b4a:	fd7ff0ef          	jal	ra,80202b20 <pte_flags>
    80202b4e:	87aa                	mv	a5,a0
    80202b50:	2781                	sext.w	a5,a5
    80202b52:	8b85                	andi	a5,a5,1
    80202b54:	2781                	sext.w	a5,a5
    80202b56:	00f037b3          	snez	a5,a5
    80202b5a:	0ff7f793          	andi	a5,a5,255
    80202b5e:	2781                	sext.w	a5,a5
    80202b60:	853e                	mv	a0,a5
    80202b62:	60e2                	ld	ra,24(sp)
    80202b64:	6442                	ld	s0,16(sp)
    80202b66:	6105                	addi	sp,sp,32
    80202b68:	8082                	ret

0000000080202b6a <pte_is_readable>:
    80202b6a:	1101                	addi	sp,sp,-32
    80202b6c:	ec06                	sd	ra,24(sp)
    80202b6e:	e822                	sd	s0,16(sp)
    80202b70:	1000                	addi	s0,sp,32
    80202b72:	fea43423          	sd	a0,-24(s0)
    80202b76:	fe843503          	ld	a0,-24(s0)
    80202b7a:	fa7ff0ef          	jal	ra,80202b20 <pte_flags>
    80202b7e:	87aa                	mv	a5,a0
    80202b80:	2781                	sext.w	a5,a5
    80202b82:	8b89                	andi	a5,a5,2
    80202b84:	2781                	sext.w	a5,a5
    80202b86:	00f037b3          	snez	a5,a5
    80202b8a:	0ff7f793          	andi	a5,a5,255
    80202b8e:	2781                	sext.w	a5,a5
    80202b90:	853e                	mv	a0,a5
    80202b92:	60e2                	ld	ra,24(sp)
    80202b94:	6442                	ld	s0,16(sp)
    80202b96:	6105                	addi	sp,sp,32
    80202b98:	8082                	ret

0000000080202b9a <pte_is_writable>:
    80202b9a:	1101                	addi	sp,sp,-32
    80202b9c:	ec06                	sd	ra,24(sp)
    80202b9e:	e822                	sd	s0,16(sp)
    80202ba0:	1000                	addi	s0,sp,32
    80202ba2:	fea43423          	sd	a0,-24(s0)
    80202ba6:	fe843503          	ld	a0,-24(s0)
    80202baa:	f77ff0ef          	jal	ra,80202b20 <pte_flags>
    80202bae:	87aa                	mv	a5,a0
    80202bb0:	2781                	sext.w	a5,a5
    80202bb2:	8b91                	andi	a5,a5,4
    80202bb4:	2781                	sext.w	a5,a5
    80202bb6:	00f037b3          	snez	a5,a5
    80202bba:	0ff7f793          	andi	a5,a5,255
    80202bbe:	2781                	sext.w	a5,a5
    80202bc0:	853e                	mv	a0,a5
    80202bc2:	60e2                	ld	ra,24(sp)
    80202bc4:	6442                	ld	s0,16(sp)
    80202bc6:	6105                	addi	sp,sp,32
    80202bc8:	8082                	ret

0000000080202bca <pte_is_executable>:
    80202bca:	1101                	addi	sp,sp,-32
    80202bcc:	ec06                	sd	ra,24(sp)
    80202bce:	e822                	sd	s0,16(sp)
    80202bd0:	1000                	addi	s0,sp,32
    80202bd2:	fea43423          	sd	a0,-24(s0)
    80202bd6:	fe843503          	ld	a0,-24(s0)
    80202bda:	f47ff0ef          	jal	ra,80202b20 <pte_flags>
    80202bde:	87aa                	mv	a5,a0
    80202be0:	2781                	sext.w	a5,a5
    80202be2:	8ba1                	andi	a5,a5,8
    80202be4:	2781                	sext.w	a5,a5
    80202be6:	00f037b3          	snez	a5,a5
    80202bea:	0ff7f793          	andi	a5,a5,255
    80202bee:	2781                	sext.w	a5,a5
    80202bf0:	853e                	mv	a0,a5
    80202bf2:	60e2                	ld	ra,24(sp)
    80202bf4:	6442                	ld	s0,16(sp)
    80202bf6:	6105                	addi	sp,sp,32
    80202bf8:	8082                	ret

0000000080202bfa <set_pte>:
    80202bfa:	7139                	addi	sp,sp,-64
    80202bfc:	fc22                	sd	s0,56(sp)
    80202bfe:	0080                	addi	s0,sp,64
    80202c00:	fca43c23          	sd	a0,-40(s0)
    80202c04:	fcb43823          	sd	a1,-48(s0)
    80202c08:	fcc43423          	sd	a2,-56(s0)
    80202c0c:	fd043783          	ld	a5,-48(s0)
    80202c10:	07aa                	slli	a5,a5,0xa
    80202c12:	fef43423          	sd	a5,-24(s0)
    80202c16:	fc843783          	ld	a5,-56(s0)
    80202c1a:	3ff7f713          	andi	a4,a5,1023
    80202c1e:	fe843783          	ld	a5,-24(s0)
    80202c22:	8f5d                	or	a4,a4,a5
    80202c24:	fd843783          	ld	a5,-40(s0)
    80202c28:	e398                	sd	a4,0(a5)
    80202c2a:	0001                	nop
    80202c2c:	7462                	ld	s0,56(sp)
    80202c2e:	6121                	addi	sp,sp,64
    80202c30:	8082                	ret

0000000080202c32 <PageTable_new>:
    80202c32:	1101                	addi	sp,sp,-32
    80202c34:	ec06                	sd	ra,24(sp)
    80202c36:	e822                	sd	s0,16(sp)
    80202c38:	1000                	addi	s0,sp,32
    80202c3a:	02000513          	li	a0,32
    80202c3e:	c41ff0ef          	jal	ra,8020287e <malloc>
    80202c42:	fea43423          	sd	a0,-24(s0)
    80202c46:	fe843783          	ld	a5,-24(s0)
    80202c4a:	e399                	bnez	a5,80202c50 <PageTable_new+0x1e>
    80202c4c:	4781                	li	a5,0
    80202c4e:	a0b9                	j	80202c9c <PageTable_new+0x6a>
    80202c50:	00817517          	auipc	a0,0x817
    80202c54:	3f050513          	addi	a0,a0,1008 # 80a1a040 <fram_allocator>
    80202c58:	7c9000ef          	jal	ra,80203c20 <StackFrameAllocator_alloc>
    80202c5c:	87aa                	mv	a5,a0
    80202c5e:	fef43023          	sd	a5,-32(s0)
    80202c62:	fe043783          	ld	a5,-32(s0)
    80202c66:	e799                	bnez	a5,80202c74 <PageTable_new+0x42>
    80202c68:	fe843503          	ld	a0,-24(s0)
    80202c6c:	cc7ff0ef          	jal	ra,80202932 <free>
    80202c70:	4781                	li	a5,0
    80202c72:	a02d                	j	80202c9c <PageTable_new+0x6a>
    80202c74:	fe843783          	ld	a5,-24(s0)
    80202c78:	fe043703          	ld	a4,-32(s0)
    80202c7c:	e398                	sd	a4,0(a5)
    80202c7e:	fe843783          	ld	a5,-24(s0)
    80202c82:	07a1                	addi	a5,a5,8
    80202c84:	853e                	mv	a0,a5
    80202c86:	310020ef          	jal	ra,80204f96 <vector_init>
    80202c8a:	fe843783          	ld	a5,-24(s0)
    80202c8e:	07a1                	addi	a5,a5,8
    80202c90:	45a1                	li	a1,8
    80202c92:	853e                	mv	a0,a5
    80202c94:	356020ef          	jal	ra,80204fea <vector_resize>
    80202c98:	fe843783          	ld	a5,-24(s0)
    80202c9c:	853e                	mv	a0,a5
    80202c9e:	60e2                	ld	ra,24(sp)
    80202ca0:	6442                	ld	s0,16(sp)
    80202ca2:	6105                	addi	sp,sp,32
    80202ca4:	8082                	ret

0000000080202ca6 <PageTable_free>:
    80202ca6:	1101                	addi	sp,sp,-32
    80202ca8:	ec06                	sd	ra,24(sp)
    80202caa:	e822                	sd	s0,16(sp)
    80202cac:	1000                	addi	s0,sp,32
    80202cae:	fea43423          	sd	a0,-24(s0)
    80202cb2:	fe843783          	ld	a5,-24(s0)
    80202cb6:	07a1                	addi	a5,a5,8
    80202cb8:	853e                	mv	a0,a5
    80202cba:	4e0020ef          	jal	ra,8020519a <vector_free>
    80202cbe:	fe843503          	ld	a0,-24(s0)
    80202cc2:	c71ff0ef          	jal	ra,80202932 <free>
    80202cc6:	0001                	nop
    80202cc8:	60e2                	ld	ra,24(sp)
    80202cca:	6442                	ld	s0,16(sp)
    80202ccc:	6105                	addi	sp,sp,32
    80202cce:	8082                	ret

0000000080202cd0 <get_pte_address>:
    80202cd0:	7179                	addi	sp,sp,-48
    80202cd2:	f406                	sd	ra,40(sp)
    80202cd4:	f022                	sd	s0,32(sp)
    80202cd6:	1800                	addi	s0,sp,48
    80202cd8:	fca43c23          	sd	a0,-40(s0)
    80202cdc:	fcb43823          	sd	a1,-48(s0)
    80202ce0:	fd043703          	ld	a4,-48(s0)
    80202ce4:	6785                	lui	a5,0x1
    80202ce6:	00f76463          	bltu	a4,a5,80202cee <get_pte_address+0x1e>
    80202cea:	4781                	li	a5,0
    80202cec:	a831                	j	80202d08 <get_pte_address+0x38>
    80202cee:	fd843503          	ld	a0,-40(s0)
    80202cf2:	0ac010ef          	jal	ra,80203d9e <phys_page_num_to_addr>
    80202cf6:	87aa                	mv	a5,a0
    80202cf8:	fef43423          	sd	a5,-24(s0)
    80202cfc:	fe843703          	ld	a4,-24(s0)
    80202d00:	fd043783          	ld	a5,-48(s0)
    80202d04:	078e                	slli	a5,a5,0x3
    80202d06:	97ba                	add	a5,a5,a4
    80202d08:	853e                	mv	a0,a5
    80202d0a:	70a2                	ld	ra,40(sp)
    80202d0c:	7402                	ld	s0,32(sp)
    80202d0e:	6145                	addi	sp,sp,48
    80202d10:	8082                	ret

0000000080202d12 <navigate_to_pte>:
    80202d12:	715d                	addi	sp,sp,-80
    80202d14:	e486                	sd	ra,72(sp)
    80202d16:	e0a2                	sd	s0,64(sp)
    80202d18:	0880                	addi	s0,sp,80
    80202d1a:	faa43c23          	sd	a0,-72(s0)
    80202d1e:	fab43823          	sd	a1,-80(s0)
    80202d22:	fb843783          	ld	a5,-72(s0)
    80202d26:	639c                	ld	a5,0(a5)
    80202d28:	fcf43c23          	sd	a5,-40(s0)
    80202d2c:	fe043423          	sd	zero,-24(s0)
    80202d30:	fe042223          	sw	zero,-28(s0)
    80202d34:	a871                	j	80202dd0 <navigate_to_pte+0xbe>
    80202d36:	fd843503          	ld	a0,-40(s0)
    80202d3a:	064010ef          	jal	ra,80203d9e <phys_page_num_to_addr>
    80202d3e:	87aa                	mv	a5,a0
    80202d40:	fcf43823          	sd	a5,-48(s0)
    80202d44:	fd043703          	ld	a4,-48(s0)
    80202d48:	fe442783          	lw	a5,-28(s0)
    80202d4c:	078e                	slli	a5,a5,0x3
    80202d4e:	fb043683          	ld	a3,-80(s0)
    80202d52:	97b6                	add	a5,a5,a3
    80202d54:	639c                	ld	a5,0(a5)
    80202d56:	078e                	slli	a5,a5,0x3
    80202d58:	97ba                	add	a5,a5,a4
    80202d5a:	fef43423          	sd	a5,-24(s0)
    80202d5e:	fe843783          	ld	a5,-24(s0)
    80202d62:	6388                	ld	a0,0(a5)
    80202d64:	dd7ff0ef          	jal	ra,80202b3a <pte_is_valid>
    80202d68:	87aa                	mv	a5,a0
    80202d6a:	efb1                	bnez	a5,80202dc6 <navigate_to_pte+0xb4>
    80202d6c:	fe442783          	lw	a5,-28(s0)
    80202d70:	0007871b          	sext.w	a4,a5
    80202d74:	4785                	li	a5,1
    80202d76:	04e7c263          	blt	a5,a4,80202dba <navigate_to_pte+0xa8>
    80202d7a:	00817517          	auipc	a0,0x817
    80202d7e:	2c650513          	addi	a0,a0,710 # 80a1a040 <fram_allocator>
    80202d82:	69f000ef          	jal	ra,80203c20 <StackFrameAllocator_alloc>
    80202d86:	87aa                	mv	a5,a0
    80202d88:	fcf43423          	sd	a5,-56(s0)
    80202d8c:	fc843503          	ld	a0,-56(s0)
    80202d90:	00e010ef          	jal	ra,80203d9e <phys_page_num_to_addr>
    80202d94:	87aa                	mv	a5,a0
    80202d96:	fcf43023          	sd	a5,-64(s0)
    80202d9a:	fc040793          	addi	a5,s0,-64
    80202d9e:	6605                	lui	a2,0x1
    80202da0:	4581                	li	a1,0
    80202da2:	853e                	mv	a0,a5
    80202da4:	995ff0ef          	jal	ra,80202738 <memset>
    80202da8:	fc843783          	ld	a5,-56(s0)
    80202dac:	4605                	li	a2,1
    80202dae:	85be                	mv	a1,a5
    80202db0:	fe843503          	ld	a0,-24(s0)
    80202db4:	e47ff0ef          	jal	ra,80202bfa <set_pte>
    80202db8:	a039                	j	80202dc6 <navigate_to_pte+0xb4>
    80202dba:	461d                	li	a2,7
    80202dbc:	4581                	li	a1,0
    80202dbe:	fe843503          	ld	a0,-24(s0)
    80202dc2:	e39ff0ef          	jal	ra,80202bfa <set_pte>
    80202dc6:	fe442783          	lw	a5,-28(s0)
    80202dca:	2785                	addiw	a5,a5,1
    80202dcc:	fef42223          	sw	a5,-28(s0)
    80202dd0:	fe442783          	lw	a5,-28(s0)
    80202dd4:	0007871b          	sext.w	a4,a5
    80202dd8:	4789                	li	a5,2
    80202dda:	f4e7dee3          	bge	a5,a4,80202d36 <navigate_to_pte+0x24>
    80202dde:	fe843783          	ld	a5,-24(s0)
    80202de2:	853e                	mv	a0,a5
    80202de4:	60a6                	ld	ra,72(sp)
    80202de6:	6406                	ld	s0,64(sp)
    80202de8:	6161                	addi	sp,sp,80
    80202dea:	8082                	ret

0000000080202dec <PageTable_map_ppn_2_vpn>:
    80202dec:	7139                	addi	sp,sp,-64
    80202dee:	fc06                	sd	ra,56(sp)
    80202df0:	f822                	sd	s0,48(sp)
    80202df2:	0080                	addi	s0,sp,64
    80202df4:	fca43c23          	sd	a0,-40(s0)
    80202df8:	fcb43823          	sd	a1,-48(s0)
    80202dfc:	fcc43423          	sd	a2,-56(s0)
    80202e00:	87b6                	mv	a5,a3
    80202e02:	fcf403a3          	sb	a5,-57(s0)
    80202e06:	fd043783          	ld	a5,-48(s0)
    80202e0a:	853e                	mv	a0,a5
    80202e0c:	7ab000ef          	jal	ra,80203db6 <decompose_vpn>
    80202e10:	fea43423          	sd	a0,-24(s0)
    80202e14:	fe843583          	ld	a1,-24(s0)
    80202e18:	fd843503          	ld	a0,-40(s0)
    80202e1c:	ef7ff0ef          	jal	ra,80202d12 <navigate_to_pte>
    80202e20:	fea43023          	sd	a0,-32(s0)
    80202e24:	fe043783          	ld	a5,-32(s0)
    80202e28:	cf91                	beqz	a5,80202e44 <PageTable_map_ppn_2_vpn+0x58>
    80202e2a:	fc843783          	ld	a5,-56(s0)
    80202e2e:	fc744703          	lbu	a4,-57(s0)
    80202e32:	85ba                	mv	a1,a4
    80202e34:	853e                	mv	a0,a5
    80202e36:	c87ff0ef          	jal	ra,80202abc <pte_new>
    80202e3a:	872a                	mv	a4,a0
    80202e3c:	fe043783          	ld	a5,-32(s0)
    80202e40:	e398                	sd	a4,0(a5)
    80202e42:	a809                	j	80202e54 <PageTable_map_ppn_2_vpn+0x68>
    80202e44:	04f00593          	li	a1,79
    80202e48:	00003517          	auipc	a0,0x3
    80202e4c:	29850513          	addi	a0,a0,664 # 802060e0 <rodata_start+0xe0>
    80202e50:	2ae010ef          	jal	ra,802040fe <panic>
    80202e54:	0001                	nop
    80202e56:	70e2                	ld	ra,56(sp)
    80202e58:	7442                	ld	s0,48(sp)
    80202e5a:	6121                	addi	sp,sp,64
    80202e5c:	8082                	ret

0000000080202e5e <PageTable_unmap_ppn_2_vpn>:
    80202e5e:	7179                	addi	sp,sp,-48
    80202e60:	f406                	sd	ra,40(sp)
    80202e62:	f022                	sd	s0,32(sp)
    80202e64:	1800                	addi	s0,sp,48
    80202e66:	fca43c23          	sd	a0,-40(s0)
    80202e6a:	fcb43823          	sd	a1,-48(s0)
    80202e6e:	fd043783          	ld	a5,-48(s0)
    80202e72:	853e                	mv	a0,a5
    80202e74:	743000ef          	jal	ra,80203db6 <decompose_vpn>
    80202e78:	fea43423          	sd	a0,-24(s0)
    80202e7c:	fe843583          	ld	a1,-24(s0)
    80202e80:	fd843503          	ld	a0,-40(s0)
    80202e84:	e8fff0ef          	jal	ra,80202d12 <navigate_to_pte>
    80202e88:	fea43023          	sd	a0,-32(s0)
    80202e8c:	fe043783          	ld	a5,-32(s0)
    80202e90:	cb89                	beqz	a5,80202ea2 <PageTable_unmap_ppn_2_vpn+0x44>
    80202e92:	4581                	li	a1,0
    80202e94:	4501                	li	a0,0
    80202e96:	c27ff0ef          	jal	ra,80202abc <pte_new>
    80202e9a:	872a                	mv	a4,a0
    80202e9c:	fe043783          	ld	a5,-32(s0)
    80202ea0:	e398                	sd	a4,0(a5)
    80202ea2:	0001                	nop
    80202ea4:	70a2                	ld	ra,40(sp)
    80202ea6:	7402                	ld	s0,32(sp)
    80202ea8:	6145                	addi	sp,sp,48
    80202eaa:	8082                	ret

0000000080202eac <pte_get_ppn>:
    80202eac:	7179                	addi	sp,sp,-48
    80202eae:	f422                	sd	s0,40(sp)
    80202eb0:	1800                	addi	s0,sp,48
    80202eb2:	fca43c23          	sd	a0,-40(s0)
    80202eb6:	fd843783          	ld	a5,-40(s0)
    80202eba:	83a9                	srli	a5,a5,0xa
    80202ebc:	fef43423          	sd	a5,-24(s0)
    80202ec0:	fe843783          	ld	a5,-24(s0)
    80202ec4:	853e                	mv	a0,a5
    80202ec6:	7422                	ld	s0,40(sp)
    80202ec8:	6145                	addi	sp,sp,48
    80202eca:	8082                	ret

0000000080202ecc <page_table_token>:
    80202ecc:	1101                	addi	sp,sp,-32
    80202ece:	ec22                	sd	s0,24(sp)
    80202ed0:	1000                	addi	s0,sp,32
    80202ed2:	fea43423          	sd	a0,-24(s0)
    80202ed6:	fe843783          	ld	a5,-24(s0)
    80202eda:	6398                	ld	a4,0(a5)
    80202edc:	57fd                	li	a5,-1
    80202ede:	17fe                	slli	a5,a5,0x3f
    80202ee0:	8fd9                	or	a5,a5,a4
    80202ee2:	853e                	mv	a0,a5
    80202ee4:	6462                	ld	s0,24(sp)
    80202ee6:	6105                	addi	sp,sp,32
    80202ee8:	8082                	ret

0000000080202eea <page_table_find_pte>:
    80202eea:	7139                	addi	sp,sp,-64
    80202eec:	fc06                	sd	ra,56(sp)
    80202eee:	f822                	sd	s0,48(sp)
    80202ef0:	0080                	addi	s0,sp,64
    80202ef2:	fca43423          	sd	a0,-56(s0)
    80202ef6:	fcb43023          	sd	a1,-64(s0)
    80202efa:	fc043783          	ld	a5,-64(s0)
    80202efe:	853e                	mv	a0,a5
    80202f00:	6b7000ef          	jal	ra,80203db6 <decompose_vpn>
    80202f04:	fca43c23          	sd	a0,-40(s0)
    80202f08:	fc843783          	ld	a5,-56(s0)
    80202f0c:	639c                	ld	a5,0(a5)
    80202f0e:	fcf43823          	sd	a5,-48(s0)
    80202f12:	fe042223          	sw	zero,-28(s0)
    80202f16:	a8a1                	j	80202f6e <page_table_find_pte+0x84>
    80202f18:	fe442783          	lw	a5,-28(s0)
    80202f1c:	078e                	slli	a5,a5,0x3
    80202f1e:	fd843703          	ld	a4,-40(s0)
    80202f22:	97ba                	add	a5,a5,a4
    80202f24:	639c                	ld	a5,0(a5)
    80202f26:	85be                	mv	a1,a5
    80202f28:	fd043503          	ld	a0,-48(s0)
    80202f2c:	da5ff0ef          	jal	ra,80202cd0 <get_pte_address>
    80202f30:	fea43423          	sd	a0,-24(s0)
    80202f34:	fe843783          	ld	a5,-24(s0)
    80202f38:	6388                	ld	a0,0(a5)
    80202f3a:	c01ff0ef          	jal	ra,80202b3a <pte_is_valid>
    80202f3e:	87aa                	mv	a5,a0
    80202f40:	e399                	bnez	a5,80202f46 <page_table_find_pte+0x5c>
    80202f42:	4781                	li	a5,0
    80202f44:	a835                	j	80202f80 <page_table_find_pte+0x96>
    80202f46:	fe442783          	lw	a5,-28(s0)
    80202f4a:	0007871b          	sext.w	a4,a5
    80202f4e:	4785                	li	a5,1
    80202f50:	00e7ca63          	blt	a5,a4,80202f64 <page_table_find_pte+0x7a>
    80202f54:	fe843783          	ld	a5,-24(s0)
    80202f58:	6388                	ld	a0,0(a5)
    80202f5a:	f53ff0ef          	jal	ra,80202eac <pte_get_ppn>
    80202f5e:	87aa                	mv	a5,a0
    80202f60:	fcf43823          	sd	a5,-48(s0)
    80202f64:	fe442783          	lw	a5,-28(s0)
    80202f68:	2785                	addiw	a5,a5,1
    80202f6a:	fef42223          	sw	a5,-28(s0)
    80202f6e:	fe442783          	lw	a5,-28(s0)
    80202f72:	0007871b          	sext.w	a4,a5
    80202f76:	4789                	li	a5,2
    80202f78:	fae7d0e3          	bge	a5,a4,80202f18 <page_table_find_pte+0x2e>
    80202f7c:	fe843783          	ld	a5,-24(s0)
    80202f80:	853e                	mv	a0,a5
    80202f82:	70e2                	ld	ra,56(sp)
    80202f84:	7442                	ld	s0,48(sp)
    80202f86:	6121                	addi	sp,sp,64
    80202f88:	8082                	ret

0000000080202f8a <map_area_init>:
    80202f8a:	7139                	addi	sp,sp,-64
    80202f8c:	fc06                	sd	ra,56(sp)
    80202f8e:	f822                	sd	s0,48(sp)
    80202f90:	f426                	sd	s1,40(sp)
    80202f92:	0080                	addi	s0,sp,64
    80202f94:	fca43c23          	sd	a0,-40(s0)
    80202f98:	fcb43823          	sd	a1,-48(s0)
    80202f9c:	fcc43423          	sd	a2,-56(s0)
    80202fa0:	87b6                	mv	a5,a3
    80202fa2:	fcf42223          	sw	a5,-60(s0)
    80202fa6:	87ba                	mv	a5,a4
    80202fa8:	fcf42023          	sw	a5,-64(s0)
    80202fac:	fd843483          	ld	s1,-40(s0)
    80202fb0:	4581                	li	a1,0
    80202fb2:	fd043503          	ld	a0,-48(s0)
    80202fb6:	591000ef          	jal	ra,80203d46 <virt_addr_to_page_num>
    80202fba:	e088                	sd	a0,0(s1)
    80202fbc:	4585                	li	a1,1
    80202fbe:	fc843503          	ld	a0,-56(s0)
    80202fc2:	585000ef          	jal	ra,80203d46 <virt_addr_to_page_num>
    80202fc6:	87aa                	mv	a5,a0
    80202fc8:	873e                	mv	a4,a5
    80202fca:	fd843783          	ld	a5,-40(s0)
    80202fce:	639c                	ld	a5,0(a5)
    80202fd0:	8f1d                	sub	a4,a4,a5
    80202fd2:	fd843783          	ld	a5,-40(s0)
    80202fd6:	e798                	sd	a4,8(a5)
    80202fd8:	fd843783          	ld	a5,-40(s0)
    80202fdc:	fc442703          	lw	a4,-60(s0)
    80202fe0:	cb98                	sw	a4,16(a5)
    80202fe2:	fd843783          	ld	a5,-40(s0)
    80202fe6:	fc042703          	lw	a4,-64(s0)
    80202fea:	cbd8                	sw	a4,20(a5)
    80202fec:	0001                	nop
    80202fee:	70e2                	ld	ra,56(sp)
    80202ff0:	7442                	ld	s0,48(sp)
    80202ff2:	74a2                	ld	s1,40(sp)
    80202ff4:	6121                	addi	sp,sp,64
    80202ff6:	8082                	ret

0000000080202ff8 <map_area_map>:
    80202ff8:	7139                	addi	sp,sp,-64
    80202ffa:	fc06                	sd	ra,56(sp)
    80202ffc:	f822                	sd	s0,48(sp)
    80202ffe:	0080                	addi	s0,sp,64
    80203000:	fca43423          	sd	a0,-56(s0)
    80203004:	fcb43023          	sd	a1,-64(s0)
    80203008:	fe043423          	sd	zero,-24(s0)
    8020300c:	a095                	j	80203070 <map_area_map+0x78>
    8020300e:	fc843783          	ld	a5,-56(s0)
    80203012:	4b9c                	lw	a5,16(a5)
    80203014:	eb91                	bnez	a5,80203028 <map_area_map+0x30>
    80203016:	fc843783          	ld	a5,-56(s0)
    8020301a:	6398                	ld	a4,0(a5)
    8020301c:	fe843783          	ld	a5,-24(s0)
    80203020:	97ba                	add	a5,a5,a4
    80203022:	fef43023          	sd	a5,-32(s0)
    80203026:	a811                	j	8020303a <map_area_map+0x42>
    80203028:	00817517          	auipc	a0,0x817
    8020302c:	01850513          	addi	a0,a0,24 # 80a1a040 <fram_allocator>
    80203030:	3f1000ef          	jal	ra,80203c20 <StackFrameAllocator_alloc>
    80203034:	87aa                	mv	a5,a0
    80203036:	fef43023          	sd	a5,-32(s0)
    8020303a:	fc843783          	ld	a5,-56(s0)
    8020303e:	6398                	ld	a4,0(a5)
    80203040:	fe843783          	ld	a5,-24(s0)
    80203044:	97ba                	add	a5,a5,a4
    80203046:	fcf43c23          	sd	a5,-40(s0)
    8020304a:	fc843783          	ld	a5,-56(s0)
    8020304e:	4bdc                	lw	a5,20(a5)
    80203050:	0ff7f793          	andi	a5,a5,255
    80203054:	86be                	mv	a3,a5
    80203056:	fe043603          	ld	a2,-32(s0)
    8020305a:	fd843583          	ld	a1,-40(s0)
    8020305e:	fc043503          	ld	a0,-64(s0)
    80203062:	d8bff0ef          	jal	ra,80202dec <PageTable_map_ppn_2_vpn>
    80203066:	fe843783          	ld	a5,-24(s0)
    8020306a:	0785                	addi	a5,a5,1
    8020306c:	fef43423          	sd	a5,-24(s0)
    80203070:	fc843783          	ld	a5,-56(s0)
    80203074:	6798                	ld	a4,8(a5)
    80203076:	fe843783          	ld	a5,-24(s0)
    8020307a:	f8e7eae3          	bltu	a5,a4,8020300e <map_area_map+0x16>
    8020307e:	0001                	nop
    80203080:	0001                	nop
    80203082:	70e2                	ld	ra,56(sp)
    80203084:	7442                	ld	s0,48(sp)
    80203086:	6121                	addi	sp,sp,64
    80203088:	8082                	ret

000000008020308a <memory_set_init>:
    8020308a:	1101                	addi	sp,sp,-32
    8020308c:	ec06                	sd	ra,24(sp)
    8020308e:	e822                	sd	s0,16(sp)
    80203090:	1000                	addi	s0,sp,32
    80203092:	fea43423          	sd	a0,-24(s0)
    80203096:	b9dff0ef          	jal	ra,80202c32 <PageTable_new>
    8020309a:	872a                	mv	a4,a0
    8020309c:	fe843783          	ld	a5,-24(s0)
    802030a0:	630c                	ld	a1,0(a4)
    802030a2:	6710                	ld	a2,8(a4)
    802030a4:	6b14                	ld	a3,16(a4)
    802030a6:	6f18                	ld	a4,24(a4)
    802030a8:	e38c                	sd	a1,0(a5)
    802030aa:	e790                	sd	a2,8(a5)
    802030ac:	eb94                	sd	a3,16(a5)
    802030ae:	ef98                	sd	a4,24(a5)
    802030b0:	fe843783          	ld	a5,-24(s0)
    802030b4:	02078793          	addi	a5,a5,32 # 1020 <n+0x1000>
    802030b8:	853e                	mv	a0,a5
    802030ba:	6dd010ef          	jal	ra,80204f96 <vector_init>
    802030be:	fe843783          	ld	a5,-24(s0)
    802030c2:	02078793          	addi	a5,a5,32
    802030c6:	45e1                	li	a1,24
    802030c8:	853e                	mv	a0,a5
    802030ca:	721010ef          	jal	ra,80204fea <vector_resize>
    802030ce:	0001                	nop
    802030d0:	60e2                	ld	ra,24(sp)
    802030d2:	6442                	ld	s0,16(sp)
    802030d4:	6105                	addi	sp,sp,32
    802030d6:	8082                	ret

00000000802030d8 <memory_set_push>:
    802030d8:	1101                	addi	sp,sp,-32
    802030da:	ec06                	sd	ra,24(sp)
    802030dc:	e822                	sd	s0,16(sp)
    802030de:	1000                	addi	s0,sp,32
    802030e0:	fea43423          	sd	a0,-24(s0)
    802030e4:	feb43023          	sd	a1,-32(s0)
    802030e8:	fe843783          	ld	a5,-24(s0)
    802030ec:	02078793          	addi	a5,a5,32
    802030f0:	fe043583          	ld	a1,-32(s0)
    802030f4:	853e                	mv	a0,a5
    802030f6:	741010ef          	jal	ra,80205036 <vector_add>
    802030fa:	fe843783          	ld	a5,-24(s0)
    802030fe:	85be                	mv	a1,a5
    80203100:	fe043503          	ld	a0,-32(s0)
    80203104:	ef5ff0ef          	jal	ra,80202ff8 <map_area_map>
    80203108:	0001                	nop
    8020310a:	60e2                	ld	ra,24(sp)
    8020310c:	6442                	ld	s0,16(sp)
    8020310e:	6105                	addi	sp,sp,32
    80203110:	8082                	ret

0000000080203112 <memory_set_map_user_stack>:
    80203112:	7139                	addi	sp,sp,-64
    80203114:	fc06                	sd	ra,56(sp)
    80203116:	f822                	sd	s0,48(sp)
    80203118:	f426                	sd	s1,40(sp)
    8020311a:	0080                	addi	s0,sp,64
    8020311c:	fca43423          	sd	a0,-56(s0)
    80203120:	fcb43023          	sd	a1,-64(s0)
    80203124:	00817517          	auipc	a0,0x817
    80203128:	f1c50513          	addi	a0,a0,-228 # 80a1a040 <fram_allocator>
    8020312c:	2f5000ef          	jal	ra,80203c20 <StackFrameAllocator_alloc>
    80203130:	87aa                	mv	a5,a0
    80203132:	fcf43c23          	sd	a5,-40(s0)
    80203136:	fc843483          	ld	s1,-56(s0)
    8020313a:	4585                	li	a1,1
    8020313c:	fc043503          	ld	a0,-64(s0)
    80203140:	407000ef          	jal	ra,80203d46 <virt_addr_to_page_num>
    80203144:	87aa                	mv	a5,a0
    80203146:	46d9                	li	a3,22
    80203148:	fd843603          	ld	a2,-40(s0)
    8020314c:	85be                	mv	a1,a5
    8020314e:	8526                	mv	a0,s1
    80203150:	c9dff0ef          	jal	ra,80202dec <PageTable_map_ppn_2_vpn>
    80203154:	0001                	nop
    80203156:	70e2                	ld	ra,56(sp)
    80203158:	7442                	ld	s0,48(sp)
    8020315a:	74a2                	ld	s1,40(sp)
    8020315c:	6121                	addi	sp,sp,64
    8020315e:	8082                	ret

0000000080203160 <memory_set_map_kernel_stack_kernel>:
    80203160:	7139                	addi	sp,sp,-64
    80203162:	fc06                	sd	ra,56(sp)
    80203164:	f822                	sd	s0,48(sp)
    80203166:	f426                	sd	s1,40(sp)
    80203168:	0080                	addi	s0,sp,64
    8020316a:	fca43423          	sd	a0,-56(s0)
    8020316e:	00817517          	auipc	a0,0x817
    80203172:	ed250513          	addi	a0,a0,-302 # 80a1a040 <fram_allocator>
    80203176:	2ab000ef          	jal	ra,80203c20 <StackFrameAllocator_alloc>
    8020317a:	87aa                	mv	a5,a0
    8020317c:	fcf43c23          	sd	a5,-40(s0)
    80203180:	77f9                	lui	a5,0xffffe
    80203182:	fcf43823          	sd	a5,-48(s0)
    80203186:	fc843483          	ld	s1,-56(s0)
    8020318a:	4585                	li	a1,1
    8020318c:	fd043503          	ld	a0,-48(s0)
    80203190:	3b7000ef          	jal	ra,80203d46 <virt_addr_to_page_num>
    80203194:	87aa                	mv	a5,a0
    80203196:	4699                	li	a3,6
    80203198:	fd843603          	ld	a2,-40(s0)
    8020319c:	85be                	mv	a1,a5
    8020319e:	8526                	mv	a0,s1
    802031a0:	c4dff0ef          	jal	ra,80202dec <PageTable_map_ppn_2_vpn>
    802031a4:	0001                	nop
    802031a6:	70e2                	ld	ra,56(sp)
    802031a8:	7442                	ld	s0,48(sp)
    802031aa:	74a2                	ld	s1,40(sp)
    802031ac:	6121                	addi	sp,sp,64
    802031ae:	8082                	ret

00000000802031b0 <memory_set_map_trampoline>:
    802031b0:	7139                	addi	sp,sp,-64
    802031b2:	fc06                	sd	ra,56(sp)
    802031b4:	f822                	sd	s0,48(sp)
    802031b6:	f426                	sd	s1,40(sp)
    802031b8:	f04a                	sd	s2,32(sp)
    802031ba:	0080                	addi	s0,sp,64
    802031bc:	fca43423          	sd	a0,-56(s0)
    802031c0:	77fd                	lui	a5,0xfffff
    802031c2:	fcf43c23          	sd	a5,-40(s0)
    802031c6:	ffffe797          	auipc	a5,0xffffe
    802031ca:	e3a78793          	addi	a5,a5,-454 # 80201000 <port_write>
    802031ce:	fcf43823          	sd	a5,-48(s0)
    802031d2:	fc843483          	ld	s1,-56(s0)
    802031d6:	4581                	li	a1,0
    802031d8:	fd843503          	ld	a0,-40(s0)
    802031dc:	36b000ef          	jal	ra,80203d46 <virt_addr_to_page_num>
    802031e0:	892a                	mv	s2,a0
    802031e2:	4585                	li	a1,1
    802031e4:	fd043503          	ld	a0,-48(s0)
    802031e8:	31f000ef          	jal	ra,80203d06 <phys_addr_to_page_num>
    802031ec:	87aa                	mv	a5,a0
    802031ee:	46a9                	li	a3,10
    802031f0:	863e                	mv	a2,a5
    802031f2:	85ca                	mv	a1,s2
    802031f4:	8526                	mv	a0,s1
    802031f6:	bf7ff0ef          	jal	ra,80202dec <PageTable_map_ppn_2_vpn>
    802031fa:	0001                	nop
    802031fc:	70e2                	ld	ra,56(sp)
    802031fe:	7442                	ld	s0,48(sp)
    80203200:	74a2                	ld	s1,40(sp)
    80203202:	7902                	ld	s2,32(sp)
    80203204:	6121                	addi	sp,sp,64
    80203206:	8082                	ret

0000000080203208 <memory_set_kernel_new>:
    80203208:	715d                	addi	sp,sp,-80
    8020320a:	e486                	sd	ra,72(sp)
    8020320c:	e0a2                	sd	s0,64(sp)
    8020320e:	0880                	addi	s0,sp,80
    80203210:	faa43c23          	sd	a0,-72(s0)
    80203214:	ffffd797          	auipc	a5,0xffffd
    80203218:	dec78793          	addi	a5,a5,-532 # 80200000 <_start>
    8020321c:	00003717          	auipc	a4,0x3
    80203220:	de470713          	addi	a4,a4,-540 # 80206000 <rodata_start>
    80203224:	863a                	mv	a2,a4
    80203226:	85be                	mv	a1,a5
    80203228:	00003517          	auipc	a0,0x3
    8020322c:	ee050513          	addi	a0,a0,-288 # 80206108 <rodata_start+0x108>
    80203230:	dbafe0ef          	jal	ra,802017ea <printk>
    80203234:	00003797          	auipc	a5,0x3
    80203238:	dcc78793          	addi	a5,a5,-564 # 80206000 <rodata_start>
    8020323c:	00004717          	auipc	a4,0x4
    80203240:	dc470713          	addi	a4,a4,-572 # 80207000 <_num_app>
    80203244:	863a                	mv	a2,a4
    80203246:	85be                	mv	a1,a5
    80203248:	00003517          	auipc	a0,0x3
    8020324c:	ee850513          	addi	a0,a0,-280 # 80206130 <rodata_start+0x130>
    80203250:	d9afe0ef          	jal	ra,802017ea <printk>
    80203254:	00004797          	auipc	a5,0x4
    80203258:	dac78793          	addi	a5,a5,-596 # 80207000 <_num_app>
    8020325c:	00007717          	auipc	a4,0x7
    80203260:	da470713          	addi	a4,a4,-604 # 8020a000 <boot_stack_lower_bound>
    80203264:	863a                	mv	a2,a4
    80203266:	85be                	mv	a1,a5
    80203268:	00003517          	auipc	a0,0x3
    8020326c:	ef050513          	addi	a0,a0,-272 # 80206158 <rodata_start+0x158>
    80203270:	d7afe0ef          	jal	ra,802017ea <printk>
    80203274:	00007797          	auipc	a5,0x7
    80203278:	d8c78793          	addi	a5,a5,-628 # 8020a000 <boot_stack_lower_bound>
    8020327c:	00868717          	auipc	a4,0x868
    80203280:	d8470713          	addi	a4,a4,-636 # 80a6b000 <bss_end>
    80203284:	863a                	mv	a2,a4
    80203286:	85be                	mv	a1,a5
    80203288:	00003517          	auipc	a0,0x3
    8020328c:	ef850513          	addi	a0,a0,-264 # 80206180 <rodata_start+0x180>
    80203290:	d5afe0ef          	jal	ra,802017ea <printk>
    80203294:	fb843503          	ld	a0,-72(s0)
    80203298:	f19ff0ef          	jal	ra,802031b0 <memory_set_map_trampoline>
    8020329c:	fb843503          	ld	a0,-72(s0)
    802032a0:	ec1ff0ef          	jal	ra,80203160 <memory_set_map_kernel_stack_kernel>
    802032a4:	ffffd797          	auipc	a5,0xffffd
    802032a8:	d5c78793          	addi	a5,a5,-676 # 80200000 <_start>
    802032ac:	fcf43823          	sd	a5,-48(s0)
    802032b0:	00003797          	auipc	a5,0x3
    802032b4:	d5078793          	addi	a5,a5,-688 # 80206000 <rodata_start>
    802032b8:	fcf43423          	sd	a5,-56(s0)
    802032bc:	fd840793          	addi	a5,s0,-40
    802032c0:	4729                	li	a4,10
    802032c2:	4681                	li	a3,0
    802032c4:	fc843603          	ld	a2,-56(s0)
    802032c8:	fd043583          	ld	a1,-48(s0)
    802032cc:	853e                	mv	a0,a5
    802032ce:	cbdff0ef          	jal	ra,80202f8a <map_area_init>
    802032d2:	fd840793          	addi	a5,s0,-40
    802032d6:	85be                	mv	a1,a5
    802032d8:	fb843503          	ld	a0,-72(s0)
    802032dc:	dfdff0ef          	jal	ra,802030d8 <memory_set_push>
    802032e0:	00003797          	auipc	a5,0x3
    802032e4:	d2078793          	addi	a5,a5,-736 # 80206000 <rodata_start>
    802032e8:	fcf43823          	sd	a5,-48(s0)
    802032ec:	00004797          	auipc	a5,0x4
    802032f0:	d1478793          	addi	a5,a5,-748 # 80207000 <_num_app>
    802032f4:	fcf43423          	sd	a5,-56(s0)
    802032f8:	fd840793          	addi	a5,s0,-40
    802032fc:	4709                	li	a4,2
    802032fe:	4681                	li	a3,0
    80203300:	fc843603          	ld	a2,-56(s0)
    80203304:	fd043583          	ld	a1,-48(s0)
    80203308:	853e                	mv	a0,a5
    8020330a:	c81ff0ef          	jal	ra,80202f8a <map_area_init>
    8020330e:	fd840793          	addi	a5,s0,-40
    80203312:	85be                	mv	a1,a5
    80203314:	fb843503          	ld	a0,-72(s0)
    80203318:	dc1ff0ef          	jal	ra,802030d8 <memory_set_push>
    8020331c:	00004797          	auipc	a5,0x4
    80203320:	ce478793          	addi	a5,a5,-796 # 80207000 <_num_app>
    80203324:	fcf43823          	sd	a5,-48(s0)
    80203328:	00007797          	auipc	a5,0x7
    8020332c:	cd878793          	addi	a5,a5,-808 # 8020a000 <boot_stack_lower_bound>
    80203330:	fcf43423          	sd	a5,-56(s0)
    80203334:	fd840793          	addi	a5,s0,-40
    80203338:	4719                	li	a4,6
    8020333a:	4681                	li	a3,0
    8020333c:	fc843603          	ld	a2,-56(s0)
    80203340:	fd043583          	ld	a1,-48(s0)
    80203344:	853e                	mv	a0,a5
    80203346:	c45ff0ef          	jal	ra,80202f8a <map_area_init>
    8020334a:	fd840793          	addi	a5,s0,-40
    8020334e:	85be                	mv	a1,a5
    80203350:	fb843503          	ld	a0,-72(s0)
    80203354:	d85ff0ef          	jal	ra,802030d8 <memory_set_push>
    80203358:	00007797          	auipc	a5,0x7
    8020335c:	ca878793          	addi	a5,a5,-856 # 8020a000 <boot_stack_lower_bound>
    80203360:	fcf43823          	sd	a5,-48(s0)
    80203364:	00868797          	auipc	a5,0x868
    80203368:	c9c78793          	addi	a5,a5,-868 # 80a6b000 <bss_end>
    8020336c:	fcf43423          	sd	a5,-56(s0)
    80203370:	fd840793          	addi	a5,s0,-40
    80203374:	4719                	li	a4,6
    80203376:	4681                	li	a3,0
    80203378:	fc843603          	ld	a2,-56(s0)
    8020337c:	fd043583          	ld	a1,-48(s0)
    80203380:	853e                	mv	a0,a5
    80203382:	c09ff0ef          	jal	ra,80202f8a <map_area_init>
    80203386:	fd840793          	addi	a5,s0,-40
    8020338a:	85be                	mv	a1,a5
    8020338c:	fb843503          	ld	a0,-72(s0)
    80203390:	d49ff0ef          	jal	ra,802030d8 <memory_set_push>
    80203394:	00868797          	auipc	a5,0x868
    80203398:	c6c78793          	addi	a5,a5,-916 # 80a6b000 <bss_end>
    8020339c:	fcf43823          	sd	a5,-48(s0)
    802033a0:	10100793          	li	a5,257
    802033a4:	07de                	slli	a5,a5,0x17
    802033a6:	fcf43423          	sd	a5,-56(s0)
    802033aa:	fd840793          	addi	a5,s0,-40
    802033ae:	4719                	li	a4,6
    802033b0:	4681                	li	a3,0
    802033b2:	fc843603          	ld	a2,-56(s0)
    802033b6:	fd043583          	ld	a1,-48(s0)
    802033ba:	853e                	mv	a0,a5
    802033bc:	bcfff0ef          	jal	ra,80202f8a <map_area_init>
    802033c0:	fd840793          	addi	a5,s0,-40
    802033c4:	85be                	mv	a1,a5
    802033c6:	fb843503          	ld	a0,-72(s0)
    802033ca:	d0fff0ef          	jal	ra,802030d8 <memory_set_push>
    802033ce:	0001                	nop
    802033d0:	60a6                	ld	ra,72(sp)
    802033d2:	6406                	ld	s0,64(sp)
    802033d4:	6161                	addi	sp,sp,80
    802033d6:	8082                	ret

00000000802033d8 <memory_set_activate>:
    802033d8:	7179                	addi	sp,sp,-48
    802033da:	f406                	sd	ra,40(sp)
    802033dc:	f022                	sd	s0,32(sp)
    802033de:	1800                	addi	s0,sp,48
    802033e0:	fca43c23          	sd	a0,-40(s0)
    802033e4:	fd843783          	ld	a5,-40(s0)
    802033e8:	853e                	mv	a0,a5
    802033ea:	ae3ff0ef          	jal	ra,80202ecc <page_table_token>
    802033ee:	fea43423          	sd	a0,-24(s0)
    802033f2:	fe843783          	ld	a5,-24(s0)
    802033f6:	18079073          	csrw	satp,a5
    802033fa:	12000073          	sfence.vma
    802033fe:	0001                	nop
    80203400:	70a2                	ld	ra,40(sp)
    80203402:	7402                	ld	s0,32(sp)
    80203404:	6145                	addi	sp,sp,48
    80203406:	8082                	ret

0000000080203408 <memory_set_remap_test>:
    80203408:	711d                	addi	sp,sp,-96
    8020340a:	ec86                	sd	ra,88(sp)
    8020340c:	e8a2                	sd	s0,80(sp)
    8020340e:	1080                	addi	s0,sp,96
    80203410:	ffffd717          	auipc	a4,0xffffd
    80203414:	bf070713          	addi	a4,a4,-1040 # 80200000 <_start>
    80203418:	00003797          	auipc	a5,0x3
    8020341c:	be878793          	addi	a5,a5,-1048 # 80206000 <rodata_start>
    80203420:	97ba                	add	a5,a5,a4
    80203422:	8385                	srli	a5,a5,0x1
    80203424:	fcf43823          	sd	a5,-48(s0)
    80203428:	00003717          	auipc	a4,0x3
    8020342c:	bd870713          	addi	a4,a4,-1064 # 80206000 <rodata_start>
    80203430:	00004797          	auipc	a5,0x4
    80203434:	bd078793          	addi	a5,a5,-1072 # 80207000 <_num_app>
    80203438:	97ba                	add	a5,a5,a4
    8020343a:	8385                	srli	a5,a5,0x1
    8020343c:	fcf43423          	sd	a5,-56(s0)
    80203440:	00004717          	auipc	a4,0x4
    80203444:	bc070713          	addi	a4,a4,-1088 # 80207000 <_num_app>
    80203448:	00007797          	auipc	a5,0x7
    8020344c:	bb878793          	addi	a5,a5,-1096 # 8020a000 <boot_stack_lower_bound>
    80203450:	97ba                	add	a5,a5,a4
    80203452:	8385                	srli	a5,a5,0x1
    80203454:	fcf43023          	sd	a5,-64(s0)
    80203458:	4585                	li	a1,1
    8020345a:	fd043503          	ld	a0,-48(s0)
    8020345e:	0e9000ef          	jal	ra,80203d46 <virt_addr_to_page_num>
    80203462:	87aa                	mv	a5,a0
    80203464:	faf43c23          	sd	a5,-72(s0)
    80203468:	4585                	li	a1,1
    8020346a:	fc843503          	ld	a0,-56(s0)
    8020346e:	0d9000ef          	jal	ra,80203d46 <virt_addr_to_page_num>
    80203472:	87aa                	mv	a5,a0
    80203474:	faf43823          	sd	a5,-80(s0)
    80203478:	4585                	li	a1,1
    8020347a:	fc043503          	ld	a0,-64(s0)
    8020347e:	0c9000ef          	jal	ra,80203d46 <virt_addr_to_page_num>
    80203482:	87aa                	mv	a5,a0
    80203484:	faf43423          	sd	a5,-88(s0)
    80203488:	fb843583          	ld	a1,-72(s0)
    8020348c:	00817517          	auipc	a0,0x817
    80203490:	b7c50513          	addi	a0,a0,-1156 # 80a1a008 <KERNEL_SPACE>
    80203494:	a57ff0ef          	jal	ra,80202eea <page_table_find_pte>
    80203498:	fea43423          	sd	a0,-24(s0)
    8020349c:	fb043583          	ld	a1,-80(s0)
    802034a0:	00817517          	auipc	a0,0x817
    802034a4:	b6850513          	addi	a0,a0,-1176 # 80a1a008 <KERNEL_SPACE>
    802034a8:	a43ff0ef          	jal	ra,80202eea <page_table_find_pte>
    802034ac:	fea43023          	sd	a0,-32(s0)
    802034b0:	fa843583          	ld	a1,-88(s0)
    802034b4:	00817517          	auipc	a0,0x817
    802034b8:	b5450513          	addi	a0,a0,-1196 # 80a1a008 <KERNEL_SPACE>
    802034bc:	a2fff0ef          	jal	ra,80202eea <page_table_find_pte>
    802034c0:	fca43c23          	sd	a0,-40(s0)
    802034c4:	fe843783          	ld	a5,-24(s0)
    802034c8:	6388                	ld	a0,0(a5)
    802034ca:	f00ff0ef          	jal	ra,80202bca <pte_is_executable>
    802034ce:	87aa                	mv	a5,a0
    802034d0:	cb81                	beqz	a5,802034e0 <memory_set_remap_test+0xd8>
    802034d2:	fe843783          	ld	a5,-24(s0)
    802034d6:	6388                	ld	a0,0(a5)
    802034d8:	ec2ff0ef          	jal	ra,80202b9a <pte_is_writable>
    802034dc:	87aa                	mv	a5,a0
    802034de:	cb89                	beqz	a5,802034f0 <memory_set_remap_test+0xe8>
    802034e0:	09200593          	li	a1,146
    802034e4:	00003517          	auipc	a0,0x3
    802034e8:	cc450513          	addi	a0,a0,-828 # 802061a8 <rodata_start+0x1a8>
    802034ec:	413000ef          	jal	ra,802040fe <panic>
    802034f0:	fe043783          	ld	a5,-32(s0)
    802034f4:	6388                	ld	a0,0(a5)
    802034f6:	e74ff0ef          	jal	ra,80202b6a <pte_is_readable>
    802034fa:	87aa                	mv	a5,a0
    802034fc:	cb81                	beqz	a5,8020350c <memory_set_remap_test+0x104>
    802034fe:	fe043783          	ld	a5,-32(s0)
    80203502:	6388                	ld	a0,0(a5)
    80203504:	e96ff0ef          	jal	ra,80202b9a <pte_is_writable>
    80203508:	87aa                	mv	a5,a0
    8020350a:	cb89                	beqz	a5,8020351c <memory_set_remap_test+0x114>
    8020350c:	09500593          	li	a1,149
    80203510:	00003517          	auipc	a0,0x3
    80203514:	c9850513          	addi	a0,a0,-872 # 802061a8 <rodata_start+0x1a8>
    80203518:	3e7000ef          	jal	ra,802040fe <panic>
    8020351c:	fd843783          	ld	a5,-40(s0)
    80203520:	6388                	ld	a0,0(a5)
    80203522:	e48ff0ef          	jal	ra,80202b6a <pte_is_readable>
    80203526:	87aa                	mv	a5,a0
    80203528:	cb81                	beqz	a5,80203538 <memory_set_remap_test+0x130>
    8020352a:	fd843783          	ld	a5,-40(s0)
    8020352e:	6388                	ld	a0,0(a5)
    80203530:	e6aff0ef          	jal	ra,80202b9a <pte_is_writable>
    80203534:	87aa                	mv	a5,a0
    80203536:	eb89                	bnez	a5,80203548 <memory_set_remap_test+0x140>
    80203538:	09800593          	li	a1,152
    8020353c:	00003517          	auipc	a0,0x3
    80203540:	c6c50513          	addi	a0,a0,-916 # 802061a8 <rodata_start+0x1a8>
    80203544:	3bb000ef          	jal	ra,802040fe <panic>
    80203548:	0001                	nop
    8020354a:	60e6                	ld	ra,88(sp)
    8020354c:	6446                	ld	s0,80(sp)
    8020354e:	6125                	addi	sp,sp,96
    80203550:	8082                	ret

0000000080203552 <memory_set_new_bare>:
    80203552:	1101                	addi	sp,sp,-32
    80203554:	ec06                	sd	ra,24(sp)
    80203556:	e822                	sd	s0,16(sp)
    80203558:	1000                	addi	s0,sp,32
    8020355a:	fea43423          	sd	a0,-24(s0)
    8020355e:	ed4ff0ef          	jal	ra,80202c32 <PageTable_new>
    80203562:	872a                	mv	a4,a0
    80203564:	fe843783          	ld	a5,-24(s0)
    80203568:	630c                	ld	a1,0(a4)
    8020356a:	6710                	ld	a2,8(a4)
    8020356c:	6b14                	ld	a3,16(a4)
    8020356e:	6f18                	ld	a4,24(a4)
    80203570:	e38c                	sd	a1,0(a5)
    80203572:	e790                	sd	a2,8(a5)
    80203574:	eb94                	sd	a3,16(a5)
    80203576:	ef98                	sd	a4,24(a5)
    80203578:	fe843783          	ld	a5,-24(s0)
    8020357c:	02078793          	addi	a5,a5,32
    80203580:	45e1                	li	a1,24
    80203582:	853e                	mv	a0,a5
    80203584:	451010ef          	jal	ra,802051d4 <vector_new>
    80203588:	0001                	nop
    8020358a:	60e2                	ld	ra,24(sp)
    8020358c:	6442                	ld	s0,16(sp)
    8020358e:	6105                	addi	sp,sp,32
    80203590:	8082                	ret

0000000080203592 <ppn_get_bytes_array>:
    80203592:	7179                	addi	sp,sp,-48
    80203594:	f406                	sd	ra,40(sp)
    80203596:	f022                	sd	s0,32(sp)
    80203598:	1800                	addi	s0,sp,48
    8020359a:	fca43c23          	sd	a0,-40(s0)
    8020359e:	fd843503          	ld	a0,-40(s0)
    802035a2:	7fc000ef          	jal	ra,80203d9e <phys_page_num_to_addr>
    802035a6:	87aa                	mv	a5,a0
    802035a8:	fef43423          	sd	a5,-24(s0)
    802035ac:	fe843783          	ld	a5,-24(s0)
    802035b0:	853e                	mv	a0,a5
    802035b2:	70a2                	ld	ra,40(sp)
    802035b4:	7402                	ld	s0,32(sp)
    802035b6:	6145                	addi	sp,sp,48
    802035b8:	8082                	ret

00000000802035ba <map_area_copy_data>:
    802035ba:	711d                	addi	sp,sp,-96
    802035bc:	ec86                	sd	ra,88(sp)
    802035be:	e8a2                	sd	s0,80(sp)
    802035c0:	1080                	addi	s0,sp,96
    802035c2:	faa43c23          	sd	a0,-72(s0)
    802035c6:	fab43823          	sd	a1,-80(s0)
    802035ca:	fac43423          	sd	a2,-88(s0)
    802035ce:	fad43023          	sd	a3,-96(s0)
    802035d2:	fe043423          	sd	zero,-24(s0)
    802035d6:	fb843783          	ld	a5,-72(s0)
    802035da:	639c                	ld	a5,0(a5)
    802035dc:	fcf43423          	sd	a5,-56(s0)
    802035e0:	fc843583          	ld	a1,-56(s0)
    802035e4:	fb043503          	ld	a0,-80(s0)
    802035e8:	903ff0ef          	jal	ra,80202eea <page_table_find_pte>
    802035ec:	87aa                	mv	a5,a0
    802035ee:	6388                	ld	a0,0(a5)
    802035f0:	d10ff0ef          	jal	ra,80202b00 <pte_ppn>
    802035f4:	87aa                	mv	a5,a0
    802035f6:	fcf43023          	sd	a5,-64(s0)
    802035fa:	fa843703          	ld	a4,-88(s0)
    802035fe:	fe843783          	ld	a5,-24(s0)
    80203602:	97ba                	add	a5,a5,a4
    80203604:	fef43023          	sd	a5,-32(s0)
    80203608:	fc043503          	ld	a0,-64(s0)
    8020360c:	f87ff0ef          	jal	ra,80203592 <ppn_get_bytes_array>
    80203610:	fca43c23          	sd	a0,-40(s0)
    80203614:	fa043703          	ld	a4,-96(s0)
    80203618:	fe843783          	ld	a5,-24(s0)
    8020361c:	40f707b3          	sub	a5,a4,a5
    80203620:	6705                	lui	a4,0x1
    80203622:	00f77363          	bgeu	a4,a5,80203628 <map_area_copy_data+0x6e>
    80203626:	6785                	lui	a5,0x1
    80203628:	fcf43823          	sd	a5,-48(s0)
    8020362c:	fd043783          	ld	a5,-48(s0)
    80203630:	2781                	sext.w	a5,a5
    80203632:	863e                	mv	a2,a5
    80203634:	fe043583          	ld	a1,-32(s0)
    80203638:	fd843503          	ld	a0,-40(s0)
    8020363c:	8aeff0ef          	jal	ra,802026ea <memcpy>
    80203640:	fe843703          	ld	a4,-24(s0)
    80203644:	6785                	lui	a5,0x1
    80203646:	97ba                	add	a5,a5,a4
    80203648:	fef43423          	sd	a5,-24(s0)
    8020364c:	fe843703          	ld	a4,-24(s0)
    80203650:	fa043783          	ld	a5,-96(s0)
    80203654:	00f77863          	bgeu	a4,a5,80203664 <map_area_copy_data+0xaa>
    80203658:	fc843783          	ld	a5,-56(s0)
    8020365c:	0785                	addi	a5,a5,1
    8020365e:	fcf43423          	sd	a5,-56(s0)
    80203662:	bfbd                	j	802035e0 <map_area_copy_data+0x26>
    80203664:	0001                	nop
    80203666:	60e6                	ld	ra,88(sp)
    80203668:	6446                	ld	s0,80(sp)
    8020366a:	6125                	addi	sp,sp,96
    8020366c:	8082                	ret

000000008020366e <memory_set_push_pro>:
    8020366e:	7179                	addi	sp,sp,-48
    80203670:	f406                	sd	ra,40(sp)
    80203672:	f022                	sd	s0,32(sp)
    80203674:	1800                	addi	s0,sp,48
    80203676:	fea43423          	sd	a0,-24(s0)
    8020367a:	feb43023          	sd	a1,-32(s0)
    8020367e:	fcc43c23          	sd	a2,-40(s0)
    80203682:	fcd43823          	sd	a3,-48(s0)
    80203686:	fe843783          	ld	a5,-24(s0)
    8020368a:	85be                	mv	a1,a5
    8020368c:	fe043503          	ld	a0,-32(s0)
    80203690:	969ff0ef          	jal	ra,80202ff8 <map_area_map>
    80203694:	fd843783          	ld	a5,-40(s0)
    80203698:	cf81                	beqz	a5,802036b0 <memory_set_push_pro+0x42>
    8020369a:	fe843783          	ld	a5,-24(s0)
    8020369e:	fd043683          	ld	a3,-48(s0)
    802036a2:	fd843603          	ld	a2,-40(s0)
    802036a6:	85be                	mv	a1,a5
    802036a8:	fe043503          	ld	a0,-32(s0)
    802036ac:	f0fff0ef          	jal	ra,802035ba <map_area_copy_data>
    802036b0:	fe843783          	ld	a5,-24(s0)
    802036b4:	02078793          	addi	a5,a5,32 # 1020 <n+0x1000>
    802036b8:	fe043583          	ld	a1,-32(s0)
    802036bc:	853e                	mv	a0,a5
    802036be:	179010ef          	jal	ra,80205036 <vector_add>
    802036c2:	0001                	nop
    802036c4:	70a2                	ld	ra,40(sp)
    802036c6:	7402                	ld	s0,32(sp)
    802036c8:	6145                	addi	sp,sp,48
    802036ca:	8082                	ret

00000000802036cc <memory_set_from_elf>:
    802036cc:	716d                	addi	sp,sp,-272
    802036ce:	e606                	sd	ra,264(sp)
    802036d0:	e222                	sd	s0,256(sp)
    802036d2:	fda6                	sd	s1,248(sp)
    802036d4:	0a00                	addi	s0,sp,272
    802036d6:	81010113          	addi	sp,sp,-2032 # 80219810 <boot_stack_lower_bound+0xf810>
    802036da:	77fd                	lui	a5,0xfffff
    802036dc:	fe040493          	addi	s1,s0,-32
    802036e0:	97a6                	add	a5,a5,s1
    802036e2:	74a7b423          	sd	a0,1864(a5) # fffffffffffff748 <bss_end+0xffffffff7f594748>
    802036e6:	77fd                	lui	a5,0xfffff
    802036e8:	fe040513          	addi	a0,s0,-32
    802036ec:	97aa                	add	a5,a5,a0
    802036ee:	74b7b023          	sd	a1,1856(a5) # fffffffffffff740 <bss_end+0xffffffff7f594740>
    802036f2:	77fd                	lui	a5,0xfffff
    802036f4:	fe040593          	addi	a1,s0,-32
    802036f8:	97ae                	add	a5,a5,a1
    802036fa:	72c7bc23          	sd	a2,1848(a5) # fffffffffffff738 <bss_end+0xffffffff7f594738>
    802036fe:	77fd                	lui	a5,0xfffff
    80203700:	fe040613          	addi	a2,s0,-32
    80203704:	97b2                	add	a5,a5,a2
    80203706:	72d7b823          	sd	a3,1840(a5) # fffffffffffff730 <bss_end+0xffffffff7f594730>
    8020370a:	77fd                	lui	a5,0xfffff
    8020370c:	fe040693          	addi	a3,s0,-32
    80203710:	97b6                	add	a5,a5,a3
    80203712:	72e7b423          	sd	a4,1832(a5) # fffffffffffff728 <bss_end+0xffffffff7f594728>
    80203716:	77fd                	lui	a5,0xfffff
    80203718:	fe040713          	addi	a4,s0,-32
    8020371c:	97ba                	add	a5,a5,a4
    8020371e:	7487b503          	ld	a0,1864(a5) # fffffffffffff748 <bss_end+0xffffffff7f594748>
    80203722:	e31ff0ef          	jal	ra,80203552 <memory_set_new_bare>
    80203726:	77fd                	lui	a5,0xfffff
    80203728:	fe040713          	addi	a4,s0,-32
    8020372c:	97ba                	add	a5,a5,a4
    8020372e:	7487b503          	ld	a0,1864(a5) # fffffffffffff748 <bss_end+0xffffffff7f594748>
    80203732:	a7fff0ef          	jal	ra,802031b0 <memory_set_map_trampoline>
    80203736:	77fd                	lui	a5,0xfffff
    80203738:	7a878793          	addi	a5,a5,1960 # fffffffffffff7a8 <bss_end+0xffffffff7f5947a8>
    8020373c:	fe040713          	addi	a4,s0,-32
    80203740:	00f706b3          	add	a3,a4,a5
    80203744:	77fd                	lui	a5,0xfffff
    80203746:	fe040713          	addi	a4,s0,-32
    8020374a:	973e                	add	a4,a4,a5
    8020374c:	77fd                	lui	a5,0xfffff
    8020374e:	fe040613          	addi	a2,s0,-32
    80203752:	97b2                	add	a5,a5,a2
    80203754:	8636                	mv	a2,a3
    80203756:	73873583          	ld	a1,1848(a4) # 1738 <n+0x1718>
    8020375a:	7407b503          	ld	a0,1856(a5) # fffffffffffff740 <bss_end+0xffffffff7f594740>
    8020375e:	f72fe0ef          	jal	ra,80201ed0 <elf_load>
    80203762:	87aa                	mv	a5,a0
    80203764:	fcf42a23          	sw	a5,-44(s0)
    80203768:	fd442783          	lw	a5,-44(s0)
    8020376c:	2781                	sext.w	a5,a5
    8020376e:	cf99                	beqz	a5,8020378c <memory_set_from_elf+0xc0>
    80203770:	00003517          	auipc	a0,0x3
    80203774:	a6050513          	addi	a0,a0,-1440 # 802061d0 <rodata_start+0x1d0>
    80203778:	872fe0ef          	jal	ra,802017ea <printk>
    8020377c:	0d900593          	li	a1,217
    80203780:	00003517          	auipc	a0,0x3
    80203784:	a2850513          	addi	a0,a0,-1496 # 802061a8 <rodata_start+0x1a8>
    80203788:	177000ef          	jal	ra,802040fe <panic>
    8020378c:	77fd                	lui	a5,0xfffff
    8020378e:	7a878793          	addi	a5,a5,1960 # fffffffffffff7a8 <bss_end+0xffffffff7f5947a8>
    80203792:	fe040713          	addi	a4,s0,-32
    80203796:	97ba                	add	a5,a5,a4
    80203798:	853e                	mv	a0,a5
    8020379a:	907fe0ef          	jal	ra,802020a0 <elf_header_get_phnum>
    8020379e:	fca43423          	sd	a0,-56(s0)
    802037a2:	77fd                	lui	a5,0xfffff
    802037a4:	fe040713          	addi	a4,s0,-32
    802037a8:	97ba                	add	a5,a5,a4
    802037aa:	7607bc23          	sd	zero,1912(a5) # fffffffffffff778 <bss_end+0xffffffff7f594778>
    802037ae:	fc043c23          	sd	zero,-40(s0)
    802037b2:	a2fd                	j	802039a0 <memory_set_from_elf+0x2d4>
    802037b4:	77fd                	lui	a5,0xfffff
    802037b6:	7a878793          	addi	a5,a5,1960 # fffffffffffff7a8 <bss_end+0xffffffff7f5947a8>
    802037ba:	fe040713          	addi	a4,s0,-32
    802037be:	973e                	add	a4,a4,a5
    802037c0:	fd843783          	ld	a5,-40(s0)
    802037c4:	04278793          	addi	a5,a5,66
    802037c8:	0792                	slli	a5,a5,0x4
    802037ca:	97ba                	add	a5,a5,a4
    802037cc:	07a1                	addi	a5,a5,8
    802037ce:	fcf43023          	sd	a5,-64(s0)
    802037d2:	77fd                	lui	a5,0xfffff
    802037d4:	7a878793          	addi	a5,a5,1960 # fffffffffffff7a8 <bss_end+0xffffffff7f5947a8>
    802037d8:	fe040713          	addi	a4,s0,-32
    802037dc:	97ba                	add	a5,a5,a4
    802037de:	fc043583          	ld	a1,-64(s0)
    802037e2:	853e                	mv	a0,a5
    802037e4:	c3efe0ef          	jal	ra,80201c22 <elf_program_get_type>
    802037e8:	87aa                	mv	a5,a0
    802037ea:	2781                	sext.w	a5,a5
    802037ec:	873e                	mv	a4,a5
    802037ee:	4785                	li	a5,1
    802037f0:	1af71363          	bne	a4,a5,80203996 <memory_set_from_elf+0x2ca>
    802037f4:	77fd                	lui	a5,0xfffff
    802037f6:	7a878793          	addi	a5,a5,1960 # fffffffffffff7a8 <bss_end+0xffffffff7f5947a8>
    802037fa:	fe040713          	addi	a4,s0,-32
    802037fe:	97ba                	add	a5,a5,a4
    80203800:	fc043583          	ld	a1,-64(s0)
    80203804:	853e                	mv	a0,a5
    80203806:	cf4fe0ef          	jal	ra,80201cfa <elf_program_get_vaddr>
    8020380a:	872a                	mv	a4,a0
    8020380c:	77fd                	lui	a5,0xfffff
    8020380e:	fe040693          	addi	a3,s0,-32
    80203812:	97b6                	add	a5,a5,a3
    80203814:	7ae7b023          	sd	a4,1952(a5) # fffffffffffff7a0 <bss_end+0xffffffff7f5947a0>
    80203818:	77fd                	lui	a5,0xfffff
    8020381a:	fe040713          	addi	a4,s0,-32
    8020381e:	97ba                	add	a5,a5,a4
    80203820:	7a07b483          	ld	s1,1952(a5) # fffffffffffff7a0 <bss_end+0xffffffff7f5947a0>
    80203824:	77fd                	lui	a5,0xfffff
    80203826:	7a878793          	addi	a5,a5,1960 # fffffffffffff7a8 <bss_end+0xffffffff7f5947a8>
    8020382a:	fe040713          	addi	a4,s0,-32
    8020382e:	97ba                	add	a5,a5,a4
    80203830:	fc043583          	ld	a1,-64(s0)
    80203834:	853e                	mv	a0,a5
    80203836:	d0cfe0ef          	jal	ra,80201d42 <elf_program_get_memsz>
    8020383a:	87aa                	mv	a5,a0
    8020383c:	00f48733          	add	a4,s1,a5
    80203840:	77fd                	lui	a5,0xfffff
    80203842:	fe040693          	addi	a3,s0,-32
    80203846:	97b6                	add	a5,a5,a3
    80203848:	78e7bc23          	sd	a4,1944(a5) # fffffffffffff798 <bss_end+0xffffffff7f594798>
    8020384c:	47c1                	li	a5,16
    8020384e:	faf42e23          	sw	a5,-68(s0)
    80203852:	77fd                	lui	a5,0xfffff
    80203854:	7a878793          	addi	a5,a5,1960 # fffffffffffff7a8 <bss_end+0xffffffff7f5947a8>
    80203858:	fe040713          	addi	a4,s0,-32
    8020385c:	97ba                	add	a5,a5,a4
    8020385e:	fc043583          	ld	a1,-64(s0)
    80203862:	853e                	mv	a0,a5
    80203864:	c4afe0ef          	jal	ra,80201cae <elf_program_get_flags>
    80203868:	faa43823          	sd	a0,-80(s0)
    8020386c:	fbc42783          	lw	a5,-68(s0)
    80203870:	0027e793          	ori	a5,a5,2
    80203874:	faf42e23          	sw	a5,-68(s0)
    80203878:	fbc42783          	lw	a5,-68(s0)
    8020387c:	0047e793          	ori	a5,a5,4
    80203880:	faf42e23          	sw	a5,-68(s0)
    80203884:	fbc42783          	lw	a5,-68(s0)
    80203888:	0087e793          	ori	a5,a5,8
    8020388c:	faf42e23          	sw	a5,-68(s0)
    80203890:	77fd                	lui	a5,0xfffff
    80203892:	fe040713          	addi	a4,s0,-32
    80203896:	00f704b3          	add	s1,a4,a5
    8020389a:	77fd                	lui	a5,0xfffff
    8020389c:	fe040713          	addi	a4,s0,-32
    802038a0:	97ba                	add	a5,a5,a4
    802038a2:	4581                	li	a1,0
    802038a4:	7a07b503          	ld	a0,1952(a5) # fffffffffffff7a0 <bss_end+0xffffffff7f5947a0>
    802038a8:	49e000ef          	jal	ra,80203d46 <virt_addr_to_page_num>
    802038ac:	78a4b023          	sd	a0,1920(s1)
    802038b0:	77fd                	lui	a5,0xfffff
    802038b2:	fe040713          	addi	a4,s0,-32
    802038b6:	97ba                	add	a5,a5,a4
    802038b8:	4581                	li	a1,0
    802038ba:	7a07b503          	ld	a0,1952(a5) # fffffffffffff7a0 <bss_end+0xffffffff7f5947a0>
    802038be:	488000ef          	jal	ra,80203d46 <virt_addr_to_page_num>
    802038c2:	87aa                	mv	a5,a0
    802038c4:	84be                	mv	s1,a5
    802038c6:	77fd                	lui	a5,0xfffff
    802038c8:	fe040713          	addi	a4,s0,-32
    802038cc:	97ba                	add	a5,a5,a4
    802038ce:	4585                	li	a1,1
    802038d0:	7987b503          	ld	a0,1944(a5) # fffffffffffff798 <bss_end+0xffffffff7f594798>
    802038d4:	472000ef          	jal	ra,80203d46 <virt_addr_to_page_num>
    802038d8:	87aa                	mv	a5,a0
    802038da:	40f487b3          	sub	a5,s1,a5
    802038de:	00178713          	addi	a4,a5,1
    802038e2:	77fd                	lui	a5,0xfffff
    802038e4:	fe040693          	addi	a3,s0,-32
    802038e8:	97b6                	add	a5,a5,a3
    802038ea:	78e7b423          	sd	a4,1928(a5) # fffffffffffff788 <bss_end+0xffffffff7f594788>
    802038ee:	77fd                	lui	a5,0xfffff
    802038f0:	fe040713          	addi	a4,s0,-32
    802038f4:	97ba                	add	a5,a5,a4
    802038f6:	4705                	li	a4,1
    802038f8:	78e7a823          	sw	a4,1936(a5) # fffffffffffff790 <bss_end+0xffffffff7f594790>
    802038fc:	77fd                	lui	a5,0xfffff
    802038fe:	fe040713          	addi	a4,s0,-32
    80203902:	97ba                	add	a5,a5,a4
    80203904:	fbc42703          	lw	a4,-68(s0)
    80203908:	78e7aa23          	sw	a4,1940(a5) # fffffffffffff794 <bss_end+0xffffffff7f594794>
    8020390c:	77fd                	lui	a5,0xfffff
    8020390e:	fe040713          	addi	a4,s0,-32
    80203912:	97ba                	add	a5,a5,a4
    80203914:	7807b703          	ld	a4,1920(a5) # fffffffffffff780 <bss_end+0xffffffff7f594780>
    80203918:	77fd                	lui	a5,0xfffff
    8020391a:	fe040693          	addi	a3,s0,-32
    8020391e:	97b6                	add	a5,a5,a3
    80203920:	7887b783          	ld	a5,1928(a5) # fffffffffffff788 <bss_end+0xffffffff7f594788>
    80203924:	97ba                	add	a5,a5,a4
    80203926:	fff78713          	addi	a4,a5,-1
    8020392a:	77fd                	lui	a5,0xfffff
    8020392c:	fe040693          	addi	a3,s0,-32
    80203930:	97b6                	add	a5,a5,a3
    80203932:	76e7bc23          	sd	a4,1912(a5) # fffffffffffff778 <bss_end+0xffffffff7f594778>
    80203936:	77fd                	lui	a5,0xfffff
    80203938:	7a878793          	addi	a5,a5,1960 # fffffffffffff7a8 <bss_end+0xffffffff7f5947a8>
    8020393c:	fe040713          	addi	a4,s0,-32
    80203940:	97ba                	add	a5,a5,a4
    80203942:	fc043583          	ld	a1,-64(s0)
    80203946:	853e                	mv	a0,a5
    80203948:	b1efe0ef          	jal	ra,80201c66 <elf_program_get_offset>
    8020394c:	872a                	mv	a4,a0
    8020394e:	77fd                	lui	a5,0xfffff
    80203950:	fe040693          	addi	a3,s0,-32
    80203954:	97b6                	add	a5,a5,a3
    80203956:	7407b783          	ld	a5,1856(a5) # fffffffffffff740 <bss_end+0xffffffff7f594740>
    8020395a:	00e784b3          	add	s1,a5,a4
    8020395e:	77fd                	lui	a5,0xfffff
    80203960:	7a878793          	addi	a5,a5,1960 # fffffffffffff7a8 <bss_end+0xffffffff7f5947a8>
    80203964:	fe040713          	addi	a4,s0,-32
    80203968:	97ba                	add	a5,a5,a4
    8020396a:	fc043583          	ld	a1,-64(s0)
    8020396e:	853e                	mv	a0,a5
    80203970:	c1afe0ef          	jal	ra,80201d8a <elf_program_get_filesz>
    80203974:	86aa                	mv	a3,a0
    80203976:	77fd                	lui	a5,0xfffff
    80203978:	78078793          	addi	a5,a5,1920 # fffffffffffff780 <bss_end+0xffffffff7f594780>
    8020397c:	fe040713          	addi	a4,s0,-32
    80203980:	973e                	add	a4,a4,a5
    80203982:	77fd                	lui	a5,0xfffff
    80203984:	fe040613          	addi	a2,s0,-32
    80203988:	97b2                	add	a5,a5,a2
    8020398a:	8626                	mv	a2,s1
    8020398c:	85ba                	mv	a1,a4
    8020398e:	7487b503          	ld	a0,1864(a5) # fffffffffffff748 <bss_end+0xffffffff7f594748>
    80203992:	cddff0ef          	jal	ra,8020366e <memory_set_push_pro>
    80203996:	fd843783          	ld	a5,-40(s0)
    8020399a:	0785                	addi	a5,a5,1
    8020399c:	fcf43c23          	sd	a5,-40(s0)
    802039a0:	fd843703          	ld	a4,-40(s0)
    802039a4:	fc843783          	ld	a5,-56(s0)
    802039a8:	e0f766e3          	bltu	a4,a5,802037b4 <memory_set_from_elf+0xe8>
    802039ac:	77fd                	lui	a5,0xfffff
    802039ae:	fe040713          	addi	a4,s0,-32
    802039b2:	97ba                	add	a5,a5,a4
    802039b4:	7787b503          	ld	a0,1912(a5) # fffffffffffff778 <bss_end+0xffffffff7f594778>
    802039b8:	3ce000ef          	jal	ra,80203d86 <virt_page_num_to_addr>
    802039bc:	872a                	mv	a4,a0
    802039be:	77fd                	lui	a5,0xfffff
    802039c0:	fe040693          	addi	a3,s0,-32
    802039c4:	97b6                	add	a5,a5,a3
    802039c6:	76e7b823          	sd	a4,1904(a5) # fffffffffffff770 <bss_end+0xffffffff7f594770>
    802039ca:	77fd                	lui	a5,0xfffff
    802039cc:	fe040713          	addi	a4,s0,-32
    802039d0:	97ba                	add	a5,a5,a4
    802039d2:	777d                	lui	a4,0xfffff
    802039d4:	fe040693          	addi	a3,s0,-32
    802039d8:	9736                	add	a4,a4,a3
    802039da:	77073703          	ld	a4,1904(a4) # fffffffffffff770 <bss_end+0xffffffff7f594770>
    802039de:	76e7b423          	sd	a4,1896(a5) # fffffffffffff768 <bss_end+0xffffffff7f594768>
    802039e2:	77fd                	lui	a5,0xfffff
    802039e4:	fe040713          	addi	a4,s0,-32
    802039e8:	97ba                	add	a5,a5,a4
    802039ea:	7687b703          	ld	a4,1896(a5) # fffffffffffff768 <bss_end+0xffffffff7f594768>
    802039ee:	6785                	lui	a5,0x1
    802039f0:	973e                	add	a4,a4,a5
    802039f2:	77fd                	lui	a5,0xfffff
    802039f4:	fe040693          	addi	a3,s0,-32
    802039f8:	97b6                	add	a5,a5,a3
    802039fa:	76e7b423          	sd	a4,1896(a5) # fffffffffffff768 <bss_end+0xffffffff7f594768>
    802039fe:	77fd                	lui	a5,0xfffff
    80203a00:	fe040713          	addi	a4,s0,-32
    80203a04:	97ba                	add	a5,a5,a4
    80203a06:	7687b703          	ld	a4,1896(a5) # fffffffffffff768 <bss_end+0xffffffff7f594768>
    80203a0a:	6789                	lui	a5,0x2
    80203a0c:	973e                	add	a4,a4,a5
    80203a0e:	77fd                	lui	a5,0xfffff
    80203a10:	fe040693          	addi	a3,s0,-32
    80203a14:	97b6                	add	a5,a5,a3
    80203a16:	76e7b023          	sd	a4,1888(a5) # fffffffffffff760 <bss_end+0xffffffff7f594760>
    80203a1a:	77fd                	lui	a5,0xfffff
    80203a1c:	fe040713          	addi	a4,s0,-32
    80203a20:	00f704b3          	add	s1,a4,a5
    80203a24:	77fd                	lui	a5,0xfffff
    80203a26:	fe040713          	addi	a4,s0,-32
    80203a2a:	97ba                	add	a5,a5,a4
    80203a2c:	4581                	li	a1,0
    80203a2e:	7687b503          	ld	a0,1896(a5) # fffffffffffff768 <bss_end+0xffffffff7f594768>
    80203a32:	314000ef          	jal	ra,80203d46 <virt_addr_to_page_num>
    80203a36:	78a4b023          	sd	a0,1920(s1)
    80203a3a:	77fd                	lui	a5,0xfffff
    80203a3c:	fe040713          	addi	a4,s0,-32
    80203a40:	97ba                	add	a5,a5,a4
    80203a42:	4585                	li	a1,1
    80203a44:	7607b503          	ld	a0,1888(a5) # fffffffffffff760 <bss_end+0xffffffff7f594760>
    80203a48:	2fe000ef          	jal	ra,80203d46 <virt_addr_to_page_num>
    80203a4c:	87aa                	mv	a5,a0
    80203a4e:	873e                	mv	a4,a5
    80203a50:	77fd                	lui	a5,0xfffff
    80203a52:	fe040693          	addi	a3,s0,-32
    80203a56:	97b6                	add	a5,a5,a3
    80203a58:	7807b783          	ld	a5,1920(a5) # fffffffffffff780 <bss_end+0xffffffff7f594780>
    80203a5c:	40f707b3          	sub	a5,a4,a5
    80203a60:	00178713          	addi	a4,a5,1
    80203a64:	77fd                	lui	a5,0xfffff
    80203a66:	fe040693          	addi	a3,s0,-32
    80203a6a:	97b6                	add	a5,a5,a3
    80203a6c:	78e7b423          	sd	a4,1928(a5) # fffffffffffff788 <bss_end+0xffffffff7f594788>
    80203a70:	77fd                	lui	a5,0xfffff
    80203a72:	fe040713          	addi	a4,s0,-32
    80203a76:	97ba                	add	a5,a5,a4
    80203a78:	4705                	li	a4,1
    80203a7a:	78e7a823          	sw	a4,1936(a5) # fffffffffffff790 <bss_end+0xffffffff7f594790>
    80203a7e:	77fd                	lui	a5,0xfffff
    80203a80:	fe040713          	addi	a4,s0,-32
    80203a84:	97ba                	add	a5,a5,a4
    80203a86:	4759                	li	a4,22
    80203a88:	78e7aa23          	sw	a4,1940(a5) # fffffffffffff794 <bss_end+0xffffffff7f594794>
    80203a8c:	77fd                	lui	a5,0xfffff
    80203a8e:	78078793          	addi	a5,a5,1920 # fffffffffffff780 <bss_end+0xffffffff7f594780>
    80203a92:	fe040713          	addi	a4,s0,-32
    80203a96:	973e                	add	a4,a4,a5
    80203a98:	77fd                	lui	a5,0xfffff
    80203a9a:	fe040693          	addi	a3,s0,-32
    80203a9e:	97b6                	add	a5,a5,a3
    80203aa0:	85ba                	mv	a1,a4
    80203aa2:	7487b503          	ld	a0,1864(a5) # fffffffffffff748 <bss_end+0xffffffff7f594748>
    80203aa6:	e32ff0ef          	jal	ra,802030d8 <memory_set_push>
    80203aaa:	77fd                	lui	a5,0xfffff
    80203aac:	fe040713          	addi	a4,s0,-32
    80203ab0:	97ba                	add	a5,a5,a4
    80203ab2:	04000737          	lui	a4,0x4000
    80203ab6:	177d                	addi	a4,a4,-1
    80203ab8:	0736                	slli	a4,a4,0xd
    80203aba:	74e7bc23          	sd	a4,1880(a5) # fffffffffffff758 <bss_end+0xffffffff7f594758>
    80203abe:	77fd                	lui	a5,0xfffff
    80203ac0:	fe040713          	addi	a4,s0,-32
    80203ac4:	00f704b3          	add	s1,a4,a5
    80203ac8:	77fd                	lui	a5,0xfffff
    80203aca:	fe040713          	addi	a4,s0,-32
    80203ace:	97ba                	add	a5,a5,a4
    80203ad0:	4581                	li	a1,0
    80203ad2:	7587b503          	ld	a0,1880(a5) # fffffffffffff758 <bss_end+0xffffffff7f594758>
    80203ad6:	270000ef          	jal	ra,80203d46 <virt_addr_to_page_num>
    80203ada:	78a4b023          	sd	a0,1920(s1)
    80203ade:	77fd                	lui	a5,0xfffff
    80203ae0:	fe040713          	addi	a4,s0,-32
    80203ae4:	97ba                	add	a5,a5,a4
    80203ae6:	08000737          	lui	a4,0x8000
    80203aea:	177d                	addi	a4,a4,-1
    80203aec:	0732                	slli	a4,a4,0xc
    80203aee:	74e7b823          	sd	a4,1872(a5) # fffffffffffff750 <bss_end+0xffffffff7f594750>
    80203af2:	77fd                	lui	a5,0xfffff
    80203af4:	fe040713          	addi	a4,s0,-32
    80203af8:	97ba                	add	a5,a5,a4
    80203afa:	4585                	li	a1,1
    80203afc:	7507b503          	ld	a0,1872(a5) # fffffffffffff750 <bss_end+0xffffffff7f594750>
    80203b00:	246000ef          	jal	ra,80203d46 <virt_addr_to_page_num>
    80203b04:	87aa                	mv	a5,a0
    80203b06:	873e                	mv	a4,a5
    80203b08:	77fd                	lui	a5,0xfffff
    80203b0a:	fe040693          	addi	a3,s0,-32
    80203b0e:	97b6                	add	a5,a5,a3
    80203b10:	7807b783          	ld	a5,1920(a5) # fffffffffffff780 <bss_end+0xffffffff7f594780>
    80203b14:	40f707b3          	sub	a5,a4,a5
    80203b18:	00178713          	addi	a4,a5,1
    80203b1c:	77fd                	lui	a5,0xfffff
    80203b1e:	fe040693          	addi	a3,s0,-32
    80203b22:	97b6                	add	a5,a5,a3
    80203b24:	78e7b423          	sd	a4,1928(a5) # fffffffffffff788 <bss_end+0xffffffff7f594788>
    80203b28:	77fd                	lui	a5,0xfffff
    80203b2a:	fe040713          	addi	a4,s0,-32
    80203b2e:	97ba                	add	a5,a5,a4
    80203b30:	4705                	li	a4,1
    80203b32:	78e7a823          	sw	a4,1936(a5) # fffffffffffff790 <bss_end+0xffffffff7f594790>
    80203b36:	77fd                	lui	a5,0xfffff
    80203b38:	fe040713          	addi	a4,s0,-32
    80203b3c:	97ba                	add	a5,a5,a4
    80203b3e:	4719                	li	a4,6
    80203b40:	78e7aa23          	sw	a4,1940(a5) # fffffffffffff794 <bss_end+0xffffffff7f594794>
    80203b44:	77fd                	lui	a5,0xfffff
    80203b46:	78078793          	addi	a5,a5,1920 # fffffffffffff780 <bss_end+0xffffffff7f594780>
    80203b4a:	fe040713          	addi	a4,s0,-32
    80203b4e:	973e                	add	a4,a4,a5
    80203b50:	77fd                	lui	a5,0xfffff
    80203b52:	fe040693          	addi	a3,s0,-32
    80203b56:	97b6                	add	a5,a5,a3
    80203b58:	85ba                	mv	a1,a4
    80203b5a:	7487b503          	ld	a0,1864(a5) # fffffffffffff748 <bss_end+0xffffffff7f594748>
    80203b5e:	d7aff0ef          	jal	ra,802030d8 <memory_set_push>
    80203b62:	77fd                	lui	a5,0xfffff
    80203b64:	fe040713          	addi	a4,s0,-32
    80203b68:	97ba                	add	a5,a5,a4
    80203b6a:	7607b703          	ld	a4,1888(a5) # fffffffffffff760 <bss_end+0xffffffff7f594760>
    80203b6e:	77fd                	lui	a5,0xfffff
    80203b70:	fe040693          	addi	a3,s0,-32
    80203b74:	97b6                	add	a5,a5,a3
    80203b76:	7307b783          	ld	a5,1840(a5) # fffffffffffff730 <bss_end+0xffffffff7f594730>
    80203b7a:	e398                	sd	a4,0(a5)
    80203b7c:	77fd                	lui	a5,0xfffff
    80203b7e:	7a878793          	addi	a5,a5,1960 # fffffffffffff7a8 <bss_end+0xffffffff7f5947a8>
    80203b82:	fe040713          	addi	a4,s0,-32
    80203b86:	97ba                	add	a5,a5,a4
    80203b88:	853e                	mv	a0,a5
    80203b8a:	f89fd0ef          	jal	ra,80201b12 <elf_header_get_entry>
    80203b8e:	872a                	mv	a4,a0
    80203b90:	77fd                	lui	a5,0xfffff
    80203b92:	fe040693          	addi	a3,s0,-32
    80203b96:	97b6                	add	a5,a5,a3
    80203b98:	7287b783          	ld	a5,1832(a5) # fffffffffffff728 <bss_end+0xffffffff7f594728>
    80203b9c:	e398                	sd	a4,0(a5)
    80203b9e:	0001                	nop
    80203ba0:	7f010113          	addi	sp,sp,2032
    80203ba4:	60b2                	ld	ra,264(sp)
    80203ba6:	6412                	ld	s0,256(sp)
    80203ba8:	74ee                	ld	s1,248(sp)
    80203baa:	6151                	addi	sp,sp,272
    80203bac:	8082                	ret

0000000080203bae <frame_allocator_init>:
    80203bae:	1101                	addi	sp,sp,-32
    80203bb0:	ec06                	sd	ra,24(sp)
    80203bb2:	e822                	sd	s0,16(sp)
    80203bb4:	1000                	addi	s0,sp,32
    80203bb6:	00867797          	auipc	a5,0x867
    80203bba:	44a78793          	addi	a5,a5,1098 # 80a6b000 <bss_end>
    80203bbe:	fef43423          	sd	a5,-24(s0)
    80203bc2:	10100793          	li	a5,257
    80203bc6:	07de                	slli	a5,a5,0x17
    80203bc8:	fef43023          	sd	a5,-32(s0)
    80203bcc:	4581                	li	a1,0
    80203bce:	fe843503          	ld	a0,-24(s0)
    80203bd2:	134000ef          	jal	ra,80203d06 <phys_addr_to_page_num>
    80203bd6:	87aa                	mv	a5,a0
    80203bd8:	873e                	mv	a4,a5
    80203bda:	00816797          	auipc	a5,0x816
    80203bde:	46678793          	addi	a5,a5,1126 # 80a1a040 <fram_allocator>
    80203be2:	e398                	sd	a4,0(a5)
    80203be4:	4585                	li	a1,1
    80203be6:	fe043503          	ld	a0,-32(s0)
    80203bea:	11c000ef          	jal	ra,80203d06 <phys_addr_to_page_num>
    80203bee:	87aa                	mv	a5,a0
    80203bf0:	873e                	mv	a4,a5
    80203bf2:	00816797          	auipc	a5,0x816
    80203bf6:	44e78793          	addi	a5,a5,1102 # 80a1a040 <fram_allocator>
    80203bfa:	e798                	sd	a4,8(a5)
    80203bfc:	00816517          	auipc	a0,0x816
    80203c00:	45450513          	addi	a0,a0,1108 # 80a1a050 <fram_allocator+0x10>
    80203c04:	392010ef          	jal	ra,80204f96 <vector_init>
    80203c08:	45a1                	li	a1,8
    80203c0a:	00816517          	auipc	a0,0x816
    80203c0e:	44650513          	addi	a0,a0,1094 # 80a1a050 <fram_allocator+0x10>
    80203c12:	3d8010ef          	jal	ra,80204fea <vector_resize>
    80203c16:	0001                	nop
    80203c18:	60e2                	ld	ra,24(sp)
    80203c1a:	6442                	ld	s0,16(sp)
    80203c1c:	6105                	addi	sp,sp,32
    80203c1e:	8082                	ret

0000000080203c20 <StackFrameAllocator_alloc>:
    80203c20:	7139                	addi	sp,sp,-64
    80203c22:	fc06                	sd	ra,56(sp)
    80203c24:	f822                	sd	s0,48(sp)
    80203c26:	0080                	addi	s0,sp,64
    80203c28:	fca43423          	sd	a0,-56(s0)
    80203c2c:	fc843783          	ld	a5,-56(s0)
    80203c30:	07c1                	addi	a5,a5,16
    80203c32:	853e                	mv	a0,a5
    80203c34:	39e010ef          	jal	ra,80204fd2 <vector_total>
    80203c38:	87aa                	mv	a5,a0
    80203c3a:	c7a1                	beqz	a5,80203c82 <StackFrameAllocator_alloc+0x62>
    80203c3c:	fc843783          	ld	a5,-56(s0)
    80203c40:	07c1                	addi	a5,a5,16
    80203c42:	853e                	mv	a0,a5
    80203c44:	38e010ef          	jal	ra,80204fd2 <vector_total>
    80203c48:	87aa                	mv	a5,a0
    80203c4a:	17fd                	addi	a5,a5,-1
    80203c4c:	fef43423          	sd	a5,-24(s0)
    80203c50:	fc843783          	ld	a5,-56(s0)
    80203c54:	07c1                	addi	a5,a5,16
    80203c56:	fe843583          	ld	a1,-24(s0)
    80203c5a:	853e                	mv	a0,a5
    80203c5c:	436010ef          	jal	ra,80205092 <vector_get>
    80203c60:	fea43023          	sd	a0,-32(s0)
    80203c64:	fe043783          	ld	a5,-32(s0)
    80203c68:	fcf43c23          	sd	a5,-40(s0)
    80203c6c:	fc843783          	ld	a5,-56(s0)
    80203c70:	07c1                	addi	a5,a5,16
    80203c72:	fe843583          	ld	a1,-24(s0)
    80203c76:	853e                	mv	a0,a5
    80203c78:	452010ef          	jal	ra,802050ca <vector_delete>
    80203c7c:	fd843783          	ld	a5,-40(s0)
    80203c80:	a03d                	j	80203cae <StackFrameAllocator_alloc+0x8e>
    80203c82:	fc843783          	ld	a5,-56(s0)
    80203c86:	6398                	ld	a4,0(a5)
    80203c88:	fc843783          	ld	a5,-56(s0)
    80203c8c:	679c                	ld	a5,8(a5)
    80203c8e:	00f77f63          	bgeu	a4,a5,80203cac <StackFrameAllocator_alloc+0x8c>
    80203c92:	fc843783          	ld	a5,-56(s0)
    80203c96:	639c                	ld	a5,0(a5)
    80203c98:	00178693          	addi	a3,a5,1
    80203c9c:	fc843703          	ld	a4,-56(s0)
    80203ca0:	e314                	sd	a3,0(a4)
    80203ca2:	fcf43823          	sd	a5,-48(s0)
    80203ca6:	fd043783          	ld	a5,-48(s0)
    80203caa:	a011                	j	80203cae <StackFrameAllocator_alloc+0x8e>
    80203cac:	57fd                	li	a5,-1
    80203cae:	853e                	mv	a0,a5
    80203cb0:	70e2                	ld	ra,56(sp)
    80203cb2:	7442                	ld	s0,48(sp)
    80203cb4:	6121                	addi	sp,sp,64
    80203cb6:	8082                	ret

0000000080203cb8 <StackFrameAllocator_dealloc>:
    80203cb8:	1101                	addi	sp,sp,-32
    80203cba:	ec06                	sd	ra,24(sp)
    80203cbc:	e822                	sd	s0,16(sp)
    80203cbe:	1000                	addi	s0,sp,32
    80203cc0:	fea43423          	sd	a0,-24(s0)
    80203cc4:	feb43023          	sd	a1,-32(s0)
    80203cc8:	fe843783          	ld	a5,-24(s0)
    80203ccc:	07c1                	addi	a5,a5,16
    80203cce:	fe043703          	ld	a4,-32(s0)
    80203cd2:	85ba                	mv	a1,a4
    80203cd4:	853e                	mv	a0,a5
    80203cd6:	360010ef          	jal	ra,80205036 <vector_add>
    80203cda:	0001                	nop
    80203cdc:	60e2                	ld	ra,24(sp)
    80203cde:	6442                	ld	s0,16(sp)
    80203ce0:	6105                	addi	sp,sp,32
    80203ce2:	8082                	ret

0000000080203ce4 <StackFrameAllocator_free>:
    80203ce4:	1101                	addi	sp,sp,-32
    80203ce6:	ec06                	sd	ra,24(sp)
    80203ce8:	e822                	sd	s0,16(sp)
    80203cea:	1000                	addi	s0,sp,32
    80203cec:	fea43423          	sd	a0,-24(s0)
    80203cf0:	fe843783          	ld	a5,-24(s0)
    80203cf4:	07c1                	addi	a5,a5,16
    80203cf6:	853e                	mv	a0,a5
    80203cf8:	4a2010ef          	jal	ra,8020519a <vector_free>
    80203cfc:	0001                	nop
    80203cfe:	60e2                	ld	ra,24(sp)
    80203d00:	6442                	ld	s0,16(sp)
    80203d02:	6105                	addi	sp,sp,32
    80203d04:	8082                	ret

0000000080203d06 <phys_addr_to_page_num>:
    80203d06:	7179                	addi	sp,sp,-48
    80203d08:	f422                	sd	s0,40(sp)
    80203d0a:	1800                	addi	s0,sp,48
    80203d0c:	fca43c23          	sd	a0,-40(s0)
    80203d10:	87ae                	mv	a5,a1
    80203d12:	fcf42a23          	sw	a5,-44(s0)
    80203d16:	fd442783          	lw	a5,-44(s0)
    80203d1a:	2781                	sext.w	a5,a5
    80203d1c:	e799                	bnez	a5,80203d2a <phys_addr_to_page_num+0x24>
    80203d1e:	fd843783          	ld	a5,-40(s0)
    80203d22:	83b1                	srli	a5,a5,0xc
    80203d24:	fef43423          	sd	a5,-24(s0)
    80203d28:	a809                	j	80203d3a <phys_addr_to_page_num+0x34>
    80203d2a:	fd843703          	ld	a4,-40(s0)
    80203d2e:	6785                	lui	a5,0x1
    80203d30:	17fd                	addi	a5,a5,-1
    80203d32:	97ba                	add	a5,a5,a4
    80203d34:	83b1                	srli	a5,a5,0xc
    80203d36:	fef43423          	sd	a5,-24(s0)
    80203d3a:	fe843783          	ld	a5,-24(s0)
    80203d3e:	853e                	mv	a0,a5
    80203d40:	7422                	ld	s0,40(sp)
    80203d42:	6145                	addi	sp,sp,48
    80203d44:	8082                	ret

0000000080203d46 <virt_addr_to_page_num>:
    80203d46:	7179                	addi	sp,sp,-48
    80203d48:	f422                	sd	s0,40(sp)
    80203d4a:	1800                	addi	s0,sp,48
    80203d4c:	fca43c23          	sd	a0,-40(s0)
    80203d50:	87ae                	mv	a5,a1
    80203d52:	fcf42a23          	sw	a5,-44(s0)
    80203d56:	fd442783          	lw	a5,-44(s0)
    80203d5a:	2781                	sext.w	a5,a5
    80203d5c:	e799                	bnez	a5,80203d6a <virt_addr_to_page_num+0x24>
    80203d5e:	fd843783          	ld	a5,-40(s0)
    80203d62:	83b1                	srli	a5,a5,0xc
    80203d64:	fef43423          	sd	a5,-24(s0)
    80203d68:	a809                	j	80203d7a <virt_addr_to_page_num+0x34>
    80203d6a:	fd843703          	ld	a4,-40(s0)
    80203d6e:	6785                	lui	a5,0x1
    80203d70:	17fd                	addi	a5,a5,-1
    80203d72:	97ba                	add	a5,a5,a4
    80203d74:	83b1                	srli	a5,a5,0xc
    80203d76:	fef43423          	sd	a5,-24(s0)
    80203d7a:	fe843783          	ld	a5,-24(s0)
    80203d7e:	853e                	mv	a0,a5
    80203d80:	7422                	ld	s0,40(sp)
    80203d82:	6145                	addi	sp,sp,48
    80203d84:	8082                	ret

0000000080203d86 <virt_page_num_to_addr>:
    80203d86:	1101                	addi	sp,sp,-32
    80203d88:	ec22                	sd	s0,24(sp)
    80203d8a:	1000                	addi	s0,sp,32
    80203d8c:	fea43423          	sd	a0,-24(s0)
    80203d90:	fe843783          	ld	a5,-24(s0)
    80203d94:	07b2                	slli	a5,a5,0xc
    80203d96:	853e                	mv	a0,a5
    80203d98:	6462                	ld	s0,24(sp)
    80203d9a:	6105                	addi	sp,sp,32
    80203d9c:	8082                	ret

0000000080203d9e <phys_page_num_to_addr>:
    80203d9e:	1101                	addi	sp,sp,-32
    80203da0:	ec22                	sd	s0,24(sp)
    80203da2:	1000                	addi	s0,sp,32
    80203da4:	fea43423          	sd	a0,-24(s0)
    80203da8:	fe843783          	ld	a5,-24(s0)
    80203dac:	07b2                	slli	a5,a5,0xc
    80203dae:	853e                	mv	a0,a5
    80203db0:	6462                	ld	s0,24(sp)
    80203db2:	6105                	addi	sp,sp,32
    80203db4:	8082                	ret

0000000080203db6 <decompose_vpn>:
    80203db6:	711d                	addi	sp,sp,-96
    80203db8:	eca2                	sd	s0,88(sp)
    80203dba:	1080                	addi	s0,sp,96
    80203dbc:	faa43423          	sd	a0,-88(s0)
    80203dc0:	fa843703          	ld	a4,-88(s0)
    80203dc4:	6785                	lui	a5,0x1
    80203dc6:	17fd                	addi	a5,a5,-1
    80203dc8:	8ff9                	and	a5,a5,a4
    80203dca:	fef43423          	sd	a5,-24(s0)
    80203dce:	fa843783          	ld	a5,-88(s0)
    80203dd2:	83b1                	srli	a5,a5,0xc
    80203dd4:	faf43423          	sd	a5,-88(s0)
    80203dd8:	fa843783          	ld	a5,-88(s0)
    80203ddc:	1ff7f793          	andi	a5,a5,511
    80203de0:	fef43023          	sd	a5,-32(s0)
    80203de4:	fa843783          	ld	a5,-88(s0)
    80203de8:	83a5                	srli	a5,a5,0x9
    80203dea:	faf43423          	sd	a5,-88(s0)
    80203dee:	fa843783          	ld	a5,-88(s0)
    80203df2:	1ff7f793          	andi	a5,a5,511
    80203df6:	fcf43c23          	sd	a5,-40(s0)
    80203dfa:	fa843783          	ld	a5,-88(s0)
    80203dfe:	83a5                	srli	a5,a5,0x9
    80203e00:	faf43423          	sd	a5,-88(s0)
    80203e04:	fa843783          	ld	a5,-88(s0)
    80203e08:	1ff7f793          	andi	a5,a5,511
    80203e0c:	fcf43823          	sd	a5,-48(s0)
    80203e10:	fd043783          	ld	a5,-48(s0)
    80203e14:	faf43823          	sd	a5,-80(s0)
    80203e18:	fd843783          	ld	a5,-40(s0)
    80203e1c:	faf43c23          	sd	a5,-72(s0)
    80203e20:	fe043783          	ld	a5,-32(s0)
    80203e24:	fcf43023          	sd	a5,-64(s0)
    80203e28:	fe843783          	ld	a5,-24(s0)
    80203e2c:	fcf43423          	sd	a5,-56(s0)
    80203e30:	4781                	li	a5,0
    80203e32:	853e                	mv	a0,a5
    80203e34:	6466                	ld	s0,88(sp)
    80203e36:	6125                	addi	sp,sp,96
    80203e38:	8082                	ret

0000000080203e3a <print_str>:
    80203e3a:	1101                	addi	sp,sp,-32
    80203e3c:	ec06                	sd	ra,24(sp)
    80203e3e:	e822                	sd	s0,16(sp)
    80203e40:	1000                	addi	s0,sp,32
    80203e42:	fea43423          	sd	a0,-24(s0)
    80203e46:	a829                	j	80203e60 <print_str+0x26>
    80203e48:	fe843783          	ld	a5,-24(s0)
    80203e4c:	0007c783          	lbu	a5,0(a5) # 1000 <n+0xfe0>
    80203e50:	853e                	mv	a0,a5
    80203e52:	c42fe0ef          	jal	ra,80202294 <console_putchar>
    80203e56:	fe843783          	ld	a5,-24(s0)
    80203e5a:	0785                	addi	a5,a5,1
    80203e5c:	fef43423          	sd	a5,-24(s0)
    80203e60:	fe843783          	ld	a5,-24(s0)
    80203e64:	0007c783          	lbu	a5,0(a5)
    80203e68:	f3e5                	bnez	a5,80203e48 <print_str+0xe>
    80203e6a:	0001                	nop
    80203e6c:	0001                	nop
    80203e6e:	60e2                	ld	ra,24(sp)
    80203e70:	6442                	ld	s0,16(sp)
    80203e72:	6105                	addi	sp,sp,32
    80203e74:	8082                	ret

0000000080203e76 <reverse_str>:
    80203e76:	7179                	addi	sp,sp,-48
    80203e78:	f422                	sd	s0,40(sp)
    80203e7a:	1800                	addi	s0,sp,48
    80203e7c:	fca43c23          	sd	a0,-40(s0)
    80203e80:	87ae                	mv	a5,a1
    80203e82:	fcf42a23          	sw	a5,-44(s0)
    80203e86:	fe042623          	sw	zero,-20(s0)
    80203e8a:	fd442783          	lw	a5,-44(s0)
    80203e8e:	37fd                	addiw	a5,a5,-1
    80203e90:	fef42423          	sw	a5,-24(s0)
    80203e94:	a899                	j	80203eea <reverse_str+0x74>
    80203e96:	fec42783          	lw	a5,-20(s0)
    80203e9a:	fd843703          	ld	a4,-40(s0)
    80203e9e:	97ba                	add	a5,a5,a4
    80203ea0:	0007c783          	lbu	a5,0(a5)
    80203ea4:	fef403a3          	sb	a5,-25(s0)
    80203ea8:	fe842783          	lw	a5,-24(s0)
    80203eac:	fd843703          	ld	a4,-40(s0)
    80203eb0:	973e                	add	a4,a4,a5
    80203eb2:	fec42783          	lw	a5,-20(s0)
    80203eb6:	fd843683          	ld	a3,-40(s0)
    80203eba:	97b6                	add	a5,a5,a3
    80203ebc:	00074703          	lbu	a4,0(a4) # 8000000 <n+0x7ffffe0>
    80203ec0:	00e78023          	sb	a4,0(a5)
    80203ec4:	fe842783          	lw	a5,-24(s0)
    80203ec8:	fd843703          	ld	a4,-40(s0)
    80203ecc:	97ba                	add	a5,a5,a4
    80203ece:	fe744703          	lbu	a4,-25(s0)
    80203ed2:	00e78023          	sb	a4,0(a5)
    80203ed6:	fec42783          	lw	a5,-20(s0)
    80203eda:	2785                	addiw	a5,a5,1
    80203edc:	fef42623          	sw	a5,-20(s0)
    80203ee0:	fe842783          	lw	a5,-24(s0)
    80203ee4:	37fd                	addiw	a5,a5,-1
    80203ee6:	fef42423          	sw	a5,-24(s0)
    80203eea:	fec42703          	lw	a4,-20(s0)
    80203eee:	fe842783          	lw	a5,-24(s0)
    80203ef2:	2701                	sext.w	a4,a4
    80203ef4:	2781                	sext.w	a5,a5
    80203ef6:	faf740e3          	blt	a4,a5,80203e96 <reverse_str+0x20>
    80203efa:	0001                	nop
    80203efc:	0001                	nop
    80203efe:	7422                	ld	s0,40(sp)
    80203f00:	6145                	addi	sp,sp,48
    80203f02:	8082                	ret

0000000080203f04 <print_uint32>:
    80203f04:	7139                	addi	sp,sp,-64
    80203f06:	fc06                	sd	ra,56(sp)
    80203f08:	f822                	sd	s0,48(sp)
    80203f0a:	0080                	addi	s0,sp,64
    80203f0c:	87aa                	mv	a5,a0
    80203f0e:	fcf42623          	sw	a5,-52(s0)
    80203f12:	fe042623          	sw	zero,-20(s0)
    80203f16:	fcc42783          	lw	a5,-52(s0)
    80203f1a:	2781                	sext.w	a5,a5
    80203f1c:	e3ad                	bnez	a5,80203f7e <print_uint32+0x7a>
    80203f1e:	fec42783          	lw	a5,-20(s0)
    80203f22:	0017871b          	addiw	a4,a5,1
    80203f26:	fee42623          	sw	a4,-20(s0)
    80203f2a:	ff040713          	addi	a4,s0,-16
    80203f2e:	97ba                	add	a5,a5,a4
    80203f30:	03000713          	li	a4,48
    80203f34:	fee78423          	sb	a4,-24(a5)
    80203f38:	a099                	j	80203f7e <print_uint32+0x7a>
    80203f3a:	fcc42703          	lw	a4,-52(s0)
    80203f3e:	47a9                	li	a5,10
    80203f40:	02f777bb          	remuw	a5,a4,a5
    80203f44:	2781                	sext.w	a5,a5
    80203f46:	fef42423          	sw	a5,-24(s0)
    80203f4a:	fe842783          	lw	a5,-24(s0)
    80203f4e:	0ff7f713          	andi	a4,a5,255
    80203f52:	fec42783          	lw	a5,-20(s0)
    80203f56:	0017869b          	addiw	a3,a5,1
    80203f5a:	fed42623          	sw	a3,-20(s0)
    80203f5e:	0307071b          	addiw	a4,a4,48
    80203f62:	0ff77713          	andi	a4,a4,255
    80203f66:	ff040693          	addi	a3,s0,-16
    80203f6a:	97b6                	add	a5,a5,a3
    80203f6c:	fee78423          	sb	a4,-24(a5)
    80203f70:	fcc42703          	lw	a4,-52(s0)
    80203f74:	47a9                	li	a5,10
    80203f76:	02f757bb          	divuw	a5,a4,a5
    80203f7a:	fcf42623          	sw	a5,-52(s0)
    80203f7e:	fcc42783          	lw	a5,-52(s0)
    80203f82:	2781                	sext.w	a5,a5
    80203f84:	fbdd                	bnez	a5,80203f3a <print_uint32+0x36>
    80203f86:	fec42783          	lw	a5,-20(s0)
    80203f8a:	ff040713          	addi	a4,s0,-16
    80203f8e:	97ba                	add	a5,a5,a4
    80203f90:	fe078423          	sb	zero,-24(a5)
    80203f94:	fec42703          	lw	a4,-20(s0)
    80203f98:	fd840793          	addi	a5,s0,-40
    80203f9c:	85ba                	mv	a1,a4
    80203f9e:	853e                	mv	a0,a5
    80203fa0:	ed7ff0ef          	jal	ra,80203e76 <reverse_str>
    80203fa4:	fd840793          	addi	a5,s0,-40
    80203fa8:	853e                	mv	a0,a5
    80203faa:	e91ff0ef          	jal	ra,80203e3a <print_str>
    80203fae:	0001                	nop
    80203fb0:	70e2                	ld	ra,56(sp)
    80203fb2:	7442                	ld	s0,48(sp)
    80203fb4:	6121                	addi	sp,sp,64
    80203fb6:	8082                	ret

0000000080203fb8 <print_uint64>:
    80203fb8:	7139                	addi	sp,sp,-64
    80203fba:	fc06                	sd	ra,56(sp)
    80203fbc:	f822                	sd	s0,48(sp)
    80203fbe:	0080                	addi	s0,sp,64
    80203fc0:	fca43423          	sd	a0,-56(s0)
    80203fc4:	fe042623          	sw	zero,-20(s0)
    80203fc8:	fc843783          	ld	a5,-56(s0)
    80203fcc:	e3a5                	bnez	a5,8020402c <print_uint64+0x74>
    80203fce:	fec42783          	lw	a5,-20(s0)
    80203fd2:	0017871b          	addiw	a4,a5,1
    80203fd6:	fee42623          	sw	a4,-20(s0)
    80203fda:	ff040713          	addi	a4,s0,-16
    80203fde:	97ba                	add	a5,a5,a4
    80203fe0:	03000713          	li	a4,48
    80203fe4:	fee78023          	sb	a4,-32(a5)
    80203fe8:	a091                	j	8020402c <print_uint64+0x74>
    80203fea:	fc843703          	ld	a4,-56(s0)
    80203fee:	47a9                	li	a5,10
    80203ff0:	02f777b3          	remu	a5,a4,a5
    80203ff4:	fef42423          	sw	a5,-24(s0)
    80203ff8:	fe842783          	lw	a5,-24(s0)
    80203ffc:	0ff7f713          	andi	a4,a5,255
    80204000:	fec42783          	lw	a5,-20(s0)
    80204004:	0017869b          	addiw	a3,a5,1
    80204008:	fed42623          	sw	a3,-20(s0)
    8020400c:	0307071b          	addiw	a4,a4,48
    80204010:	0ff77713          	andi	a4,a4,255
    80204014:	ff040693          	addi	a3,s0,-16
    80204018:	97b6                	add	a5,a5,a3
    8020401a:	fee78023          	sb	a4,-32(a5)
    8020401e:	fc843703          	ld	a4,-56(s0)
    80204022:	47a9                	li	a5,10
    80204024:	02f757b3          	divu	a5,a4,a5
    80204028:	fcf43423          	sd	a5,-56(s0)
    8020402c:	fc843783          	ld	a5,-56(s0)
    80204030:	ffcd                	bnez	a5,80203fea <print_uint64+0x32>
    80204032:	fec42783          	lw	a5,-20(s0)
    80204036:	ff040713          	addi	a4,s0,-16
    8020403a:	97ba                	add	a5,a5,a4
    8020403c:	fe078023          	sb	zero,-32(a5)
    80204040:	fec42703          	lw	a4,-20(s0)
    80204044:	fd040793          	addi	a5,s0,-48
    80204048:	85ba                	mv	a1,a4
    8020404a:	853e                	mv	a0,a5
    8020404c:	e2bff0ef          	jal	ra,80203e76 <reverse_str>
    80204050:	fd040793          	addi	a5,s0,-48
    80204054:	853e                	mv	a0,a5
    80204056:	de5ff0ef          	jal	ra,80203e3a <print_str>
    8020405a:	0001                	nop
    8020405c:	70e2                	ld	ra,56(sp)
    8020405e:	7442                	ld	s0,48(sp)
    80204060:	6121                	addi	sp,sp,64
    80204062:	8082                	ret

0000000080204064 <print_uint64_hex>:
    80204064:	7179                	addi	sp,sp,-48
    80204066:	f406                	sd	ra,40(sp)
    80204068:	f022                	sd	s0,32(sp)
    8020406a:	1800                	addi	s0,sp,48
    8020406c:	fca43c23          	sd	a0,-40(s0)
    80204070:	00002517          	auipc	a0,0x2
    80204074:	17850513          	addi	a0,a0,376 # 802061e8 <rodata_start+0x1e8>
    80204078:	dc3ff0ef          	jal	ra,80203e3a <print_str>
    8020407c:	47bd                	li	a5,15
    8020407e:	fef42623          	sw	a5,-20(s0)
    80204082:	a09d                	j	802040e8 <print_uint64_hex+0x84>
    80204084:	fec42783          	lw	a5,-20(s0)
    80204088:	0027979b          	slliw	a5,a5,0x2
    8020408c:	2781                	sext.w	a5,a5
    8020408e:	873e                	mv	a4,a5
    80204090:	fd843783          	ld	a5,-40(s0)
    80204094:	00e7d7b3          	srl	a5,a5,a4
    80204098:	2781                	sext.w	a5,a5
    8020409a:	8bbd                	andi	a5,a5,15
    8020409c:	fef42423          	sw	a5,-24(s0)
    802040a0:	fe842783          	lw	a5,-24(s0)
    802040a4:	0007871b          	sext.w	a4,a5
    802040a8:	47a5                	li	a5,9
    802040aa:	00e7cb63          	blt	a5,a4,802040c0 <print_uint64_hex+0x5c>
    802040ae:	fe842783          	lw	a5,-24(s0)
    802040b2:	0ff7f793          	andi	a5,a5,255
    802040b6:	0307879b          	addiw	a5,a5,48
    802040ba:	0ff7f793          	andi	a5,a5,255
    802040be:	a809                	j	802040d0 <print_uint64_hex+0x6c>
    802040c0:	fe842783          	lw	a5,-24(s0)
    802040c4:	0ff7f793          	andi	a5,a5,255
    802040c8:	0377879b          	addiw	a5,a5,55
    802040cc:	0ff7f793          	andi	a5,a5,255
    802040d0:	fef403a3          	sb	a5,-25(s0)
    802040d4:	fe744783          	lbu	a5,-25(s0)
    802040d8:	853e                	mv	a0,a5
    802040da:	9bafe0ef          	jal	ra,80202294 <console_putchar>
    802040de:	fec42783          	lw	a5,-20(s0)
    802040e2:	37fd                	addiw	a5,a5,-1
    802040e4:	fef42623          	sw	a5,-20(s0)
    802040e8:	fec42783          	lw	a5,-20(s0)
    802040ec:	2781                	sext.w	a5,a5
    802040ee:	f807dbe3          	bgez	a5,80204084 <print_uint64_hex+0x20>
    802040f2:	0001                	nop
    802040f4:	0001                	nop
    802040f6:	70a2                	ld	ra,40(sp)
    802040f8:	7402                	ld	s0,32(sp)
    802040fa:	6145                	addi	sp,sp,48
    802040fc:	8082                	ret

00000000802040fe <panic>:
    802040fe:	1101                	addi	sp,sp,-32
    80204100:	ec06                	sd	ra,24(sp)
    80204102:	e822                	sd	s0,16(sp)
    80204104:	1000                	addi	s0,sp,32
    80204106:	fea43423          	sd	a0,-24(s0)
    8020410a:	87ae                	mv	a5,a1
    8020410c:	fef42223          	sw	a5,-28(s0)
    80204110:	00002517          	auipc	a0,0x2
    80204114:	0e050513          	addi	a0,a0,224 # 802061f0 <rodata_start+0x1f0>
    80204118:	d23ff0ef          	jal	ra,80203e3a <print_str>
    8020411c:	fe843503          	ld	a0,-24(s0)
    80204120:	d1bff0ef          	jal	ra,80203e3a <print_str>
    80204124:	00002517          	auipc	a0,0x2
    80204128:	0dc50513          	addi	a0,a0,220 # 80206200 <rodata_start+0x200>
    8020412c:	d0fff0ef          	jal	ra,80203e3a <print_str>
    80204130:	fe442783          	lw	a5,-28(s0)
    80204134:	853e                	mv	a0,a5
    80204136:	dcfff0ef          	jal	ra,80203f04 <print_uint32>
    8020413a:	00002517          	auipc	a0,0x2
    8020413e:	0d650513          	addi	a0,a0,214 # 80206210 <rodata_start+0x210>
    80204142:	cf9ff0ef          	jal	ra,80203e3a <print_str>
    80204146:	994fe0ef          	jal	ra,802022da <sbi_shutdown>
    8020414a:	a001                	j	8020414a <panic+0x4c>

000000008020414c <task_manager_init>:
    8020414c:	7129                	addi	sp,sp,-320
    8020414e:	fe06                	sd	ra,312(sp)
    80204150:	fa22                	sd	s0,304(sp)
    80204152:	0280                	addi	s0,sp,320
    80204154:	00002517          	auipc	a0,0x2
    80204158:	0c450513          	addi	a0,a0,196 # 80206218 <rodata_start+0x218>
    8020415c:	cdfff0ef          	jal	ra,80203e3a <print_str>
    80204160:	00001797          	auipc	a5,0x1
    80204164:	13078793          	addi	a5,a5,304 # 80205290 <__restore>
    80204168:	853e                	mv	a0,a5
    8020416a:	e4fff0ef          	jal	ra,80203fb8 <print_uint64>
    8020416e:	00002517          	auipc	a0,0x2
    80204172:	0c250513          	addi	a0,a0,194 # 80206230 <rodata_start+0x230>
    80204176:	cc5ff0ef          	jal	ra,80203e3a <print_str>
    8020417a:	00816797          	auipc	a5,0x816
    8020417e:	eee78793          	addi	a5,a5,-274 # 80a1a068 <task_manager>
    80204182:	4751                	li	a4,20
    80204184:	e398                	sd	a4,0(a5)
    80204186:	00816797          	auipc	a5,0x816
    8020418a:	ee278793          	addi	a5,a5,-286 # 80a1a068 <task_manager>
    8020418e:	0007b423          	sd	zero,8(a5)
    80204192:	fe043423          	sd	zero,-24(s0)
    80204196:	a8d1                	j	8020426a <task_manager_init+0x11e>
    80204198:	fe843503          	ld	a0,-24(s0)
    8020419c:	6c2000ef          	jal	ra,8020485e <get_kernel_stack_top>
    802041a0:	87aa                	mv	a5,a0
    802041a2:	ef078793          	addi	a5,a5,-272
    802041a6:	fef43023          	sd	a5,-32(s0)
    802041aa:	00816697          	auipc	a3,0x816
    802041ae:	ebe68693          	addi	a3,a3,-322 # 80a1a068 <task_manager>
    802041b2:	fe843703          	ld	a4,-24(s0)
    802041b6:	87ba                	mv	a5,a4
    802041b8:	0792                	slli	a5,a5,0x4
    802041ba:	8f99                	sub	a5,a5,a4
    802041bc:	078e                	slli	a5,a5,0x3
    802041be:	97b6                	add	a5,a5,a3
    802041c0:	4705                	li	a4,1
    802041c2:	08e7a023          	sw	a4,128(a5)
    802041c6:	00001697          	auipc	a3,0x1
    802041ca:	0ca68693          	addi	a3,a3,202 # 80205290 <__restore>
    802041ce:	00816617          	auipc	a2,0x816
    802041d2:	e9a60613          	addi	a2,a2,-358 # 80a1a068 <task_manager>
    802041d6:	fe843703          	ld	a4,-24(s0)
    802041da:	87ba                	mv	a5,a4
    802041dc:	0792                	slli	a5,a5,0x4
    802041de:	8f99                	sub	a5,a5,a4
    802041e0:	078e                	slli	a5,a5,0x3
    802041e2:	97b2                	add	a5,a5,a2
    802041e4:	eb94                	sd	a3,16(a5)
    802041e6:	00816697          	auipc	a3,0x816
    802041ea:	e8268693          	addi	a3,a3,-382 # 80a1a068 <task_manager>
    802041ee:	fe843703          	ld	a4,-24(s0)
    802041f2:	87ba                	mv	a5,a4
    802041f4:	0792                	slli	a5,a5,0x4
    802041f6:	8f99                	sub	a5,a5,a4
    802041f8:	078e                	slli	a5,a5,0x3
    802041fa:	97b6                	add	a5,a5,a3
    802041fc:	fe043703          	ld	a4,-32(s0)
    80204200:	ef98                	sd	a4,24(a5)
    80204202:	ec840793          	addi	a5,s0,-312
    80204206:	11000713          	li	a4,272
    8020420a:	863a                	mv	a2,a4
    8020420c:	4581                	li	a1,0
    8020420e:	853e                	mv	a0,a5
    80204210:	d28fe0ef          	jal	ra,80202738 <memset>
    80204214:	fe843703          	ld	a4,-24(s0)
    80204218:	6791                	lui	a5,0x4
    8020421a:	02078793          	addi	a5,a5,32 # 4020 <n+0x4000>
    8020421e:	97ba                	add	a5,a5,a4
    80204220:	07c6                	slli	a5,a5,0x11
    80204222:	fcf43823          	sd	a5,-48(s0)
    80204226:	100027f3          	csrr	a5,sstatus
    8020422a:	fcf43c23          	sd	a5,-40(s0)
    8020422e:	fd843783          	ld	a5,-40(s0)
    80204232:	eff7f793          	andi	a5,a5,-257
    80204236:	fcf43423          	sd	a5,-56(s0)
    8020423a:	fe843503          	ld	a0,-24(s0)
    8020423e:	64a000ef          	jal	ra,80204888 <get_user_stack_top>
    80204242:	87aa                	mv	a5,a0
    80204244:	ecf43c23          	sd	a5,-296(s0)
    80204248:	fe043783          	ld	a5,-32(s0)
    8020424c:	86be                	mv	a3,a5
    8020424e:	ec840793          	addi	a5,s0,-312
    80204252:	11000713          	li	a4,272
    80204256:	863a                	mv	a2,a4
    80204258:	85be                	mv	a1,a5
    8020425a:	8536                	mv	a0,a3
    8020425c:	c8efe0ef          	jal	ra,802026ea <memcpy>
    80204260:	fe843783          	ld	a5,-24(s0)
    80204264:	0785                	addi	a5,a5,1
    80204266:	fef43423          	sd	a5,-24(s0)
    8020426a:	00816797          	auipc	a5,0x816
    8020426e:	7de78793          	addi	a5,a5,2014 # 80a1aa48 <app_manager>
    80204272:	639c                	ld	a5,0(a5)
    80204274:	fe843703          	ld	a4,-24(s0)
    80204278:	f2f760e3          	bltu	a4,a5,80204198 <task_manager_init+0x4c>
    8020427c:	0001                	nop
    8020427e:	0001                	nop
    80204280:	70f2                	ld	ra,312(sp)
    80204282:	7452                	ld	s0,304(sp)
    80204284:	6131                	addi	sp,sp,320
    80204286:	8082                	ret

0000000080204288 <run_next_task>:
    80204288:	7139                	addi	sp,sp,-64
    8020428a:	fc06                	sd	ra,56(sp)
    8020428c:	f822                	sd	s0,48(sp)
    8020428e:	0080                	addi	s0,sp,64
    80204290:	fca43423          	sd	a0,-56(s0)
    80204294:	00816797          	auipc	a5,0x816
    80204298:	dd478793          	addi	a5,a5,-556 # 80a1a068 <task_manager>
    8020429c:	679c                	ld	a5,8(a5)
    8020429e:	00178713          	addi	a4,a5,1
    802042a2:	47d1                	li	a5,20
    802042a4:	02f777b3          	remu	a5,a4,a5
    802042a8:	fef43423          	sd	a5,-24(s0)
    802042ac:	a81d                	j	802042e2 <run_next_task+0x5a>
    802042ae:	00816697          	auipc	a3,0x816
    802042b2:	dba68693          	addi	a3,a3,-582 # 80a1a068 <task_manager>
    802042b6:	fe843703          	ld	a4,-24(s0)
    802042ba:	87ba                	mv	a5,a4
    802042bc:	0792                	slli	a5,a5,0x4
    802042be:	8f99                	sub	a5,a5,a4
    802042c0:	078e                	slli	a5,a5,0x3
    802042c2:	97b6                	add	a5,a5,a3
    802042c4:	0807a783          	lw	a5,128(a5)
    802042c8:	873e                	mv	a4,a5
    802042ca:	4785                	li	a5,1
    802042cc:	02f70563          	beq	a4,a5,802042f6 <run_next_task+0x6e>
    802042d0:	fe843783          	ld	a5,-24(s0)
    802042d4:	00178713          	addi	a4,a5,1
    802042d8:	47d1                	li	a5,20
    802042da:	02f777b3          	remu	a5,a4,a5
    802042de:	fef43423          	sd	a5,-24(s0)
    802042e2:	00816797          	auipc	a5,0x816
    802042e6:	d8678793          	addi	a5,a5,-634 # 80a1a068 <task_manager>
    802042ea:	679c                	ld	a5,8(a5)
    802042ec:	fe843703          	ld	a4,-24(s0)
    802042f0:	faf71fe3          	bne	a4,a5,802042ae <run_next_task+0x26>
    802042f4:	a011                	j	802042f8 <run_next_task+0x70>
    802042f6:	0001                	nop
    802042f8:	00816797          	auipc	a5,0x816
    802042fc:	d7078793          	addi	a5,a5,-656 # 80a1a068 <task_manager>
    80204300:	679c                	ld	a5,8(a5)
    80204302:	fe843703          	ld	a4,-24(s0)
    80204306:	02f71b63          	bne	a4,a5,8020433c <run_next_task+0xb4>
    8020430a:	00816697          	auipc	a3,0x816
    8020430e:	d5e68693          	addi	a3,a3,-674 # 80a1a068 <task_manager>
    80204312:	fe843703          	ld	a4,-24(s0)
    80204316:	87ba                	mv	a5,a4
    80204318:	0792                	slli	a5,a5,0x4
    8020431a:	8f99                	sub	a5,a5,a4
    8020431c:	078e                	slli	a5,a5,0x3
    8020431e:	97b6                	add	a5,a5,a3
    80204320:	0807a783          	lw	a5,128(a5)
    80204324:	873e                	mv	a4,a5
    80204326:	4785                	li	a5,1
    80204328:	00f70a63          	beq	a4,a5,8020433c <run_next_task+0xb4>
    8020432c:	03a00593          	li	a1,58
    80204330:	00002517          	auipc	a0,0x2
    80204334:	f0850513          	addi	a0,a0,-248 # 80206238 <rodata_start+0x238>
    80204338:	dc7ff0ef          	jal	ra,802040fe <panic>
    8020433c:	fe843703          	ld	a4,-24(s0)
    80204340:	87ba                	mv	a5,a4
    80204342:	0792                	slli	a5,a5,0x4
    80204344:	8f99                	sub	a5,a5,a4
    80204346:	078e                	slli	a5,a5,0x3
    80204348:	01078713          	addi	a4,a5,16
    8020434c:	00816797          	auipc	a5,0x816
    80204350:	d1c78793          	addi	a5,a5,-740 # 80a1a068 <task_manager>
    80204354:	97ba                	add	a5,a5,a4
    80204356:	fef43023          	sd	a5,-32(s0)
    8020435a:	00816797          	auipc	a5,0x816
    8020435e:	d0e78793          	addi	a5,a5,-754 # 80a1a068 <task_manager>
    80204362:	6798                	ld	a4,8(a5)
    80204364:	87ba                	mv	a5,a4
    80204366:	0792                	slli	a5,a5,0x4
    80204368:	8f99                	sub	a5,a5,a4
    8020436a:	078e                	slli	a5,a5,0x3
    8020436c:	01078713          	addi	a4,a5,16
    80204370:	00816797          	auipc	a5,0x816
    80204374:	cf878793          	addi	a5,a5,-776 # 80a1a068 <task_manager>
    80204378:	97ba                	add	a5,a5,a4
    8020437a:	fcf43c23          	sd	a5,-40(s0)
    8020437e:	fc843783          	ld	a5,-56(s0)
    80204382:	0007871b          	sext.w	a4,a5
    80204386:	fd843783          	ld	a5,-40(s0)
    8020438a:	dbb8                	sw	a4,112(a5)
    8020438c:	fe043783          	ld	a5,-32(s0)
    80204390:	4709                	li	a4,2
    80204392:	dbb8                	sw	a4,112(a5)
    80204394:	00816797          	auipc	a5,0x816
    80204398:	cd478793          	addi	a5,a5,-812 # 80a1a068 <task_manager>
    8020439c:	fe843703          	ld	a4,-24(s0)
    802043a0:	e798                	sd	a4,8(a5)
    802043a2:	fd843783          	ld	a5,-40(s0)
    802043a6:	fe043703          	ld	a4,-32(s0)
    802043aa:	85ba                	mv	a1,a4
    802043ac:	853e                	mv	a0,a5
    802043ae:	73d000ef          	jal	ra,802052ea <__switch>
    802043b2:	0001                	nop
    802043b4:	70e2                	ld	ra,56(sp)
    802043b6:	7442                	ld	s0,48(sp)
    802043b8:	6121                	addi	sp,sp,64
    802043ba:	8082                	ret

00000000802043bc <run_first_task>:
    802043bc:	1141                	addi	sp,sp,-16
    802043be:	e406                	sd	ra,8(sp)
    802043c0:	e022                	sd	s0,0(sp)
    802043c2:	0800                	addi	s0,sp,16
    802043c4:	00816797          	auipc	a5,0x816
    802043c8:	ca478793          	addi	a5,a5,-860 # 80a1a068 <task_manager>
    802043cc:	6798                	ld	a4,8(a5)
    802043ce:	00816697          	auipc	a3,0x816
    802043d2:	c9a68693          	addi	a3,a3,-870 # 80a1a068 <task_manager>
    802043d6:	87ba                	mv	a5,a4
    802043d8:	0792                	slli	a5,a5,0x4
    802043da:	8f99                	sub	a5,a5,a4
    802043dc:	078e                	slli	a5,a5,0x3
    802043de:	97b6                	add	a5,a5,a3
    802043e0:	4709                	li	a4,2
    802043e2:	08e7a023          	sw	a4,128(a5)
    802043e6:	00002517          	auipc	a0,0x2
    802043ea:	e7250513          	addi	a0,a0,-398 # 80206258 <rodata_start+0x258>
    802043ee:	a4dff0ef          	jal	ra,80203e3a <print_str>
    802043f2:	00816797          	auipc	a5,0x816
    802043f6:	c7678793          	addi	a5,a5,-906 # 80a1a068 <task_manager>
    802043fa:	6798                	ld	a4,8(a5)
    802043fc:	87ba                	mv	a5,a4
    802043fe:	0792                	slli	a5,a5,0x4
    80204400:	8f99                	sub	a5,a5,a4
    80204402:	078e                	slli	a5,a5,0x3
    80204404:	01078713          	addi	a4,a5,16
    80204408:	00816797          	auipc	a5,0x816
    8020440c:	c6078793          	addi	a5,a5,-928 # 80a1a068 <task_manager>
    80204410:	97ba                	add	a5,a5,a4
    80204412:	85be                	mv	a1,a5
    80204414:	00816517          	auipc	a0,0x816
    80204418:	5c450513          	addi	a0,a0,1476 # 80a1a9d8 <temp.0>
    8020441c:	6cf000ef          	jal	ra,802052ea <__switch>
    80204420:	05000593          	li	a1,80
    80204424:	00002517          	auipc	a0,0x2
    80204428:	e1450513          	addi	a0,a0,-492 # 80206238 <rodata_start+0x238>
    8020442c:	cd3ff0ef          	jal	ra,802040fe <panic>
    80204430:	0001                	nop
    80204432:	60a2                	ld	ra,8(sp)
    80204434:	6402                	ld	s0,0(sp)
    80204436:	0141                	addi	sp,sp,16
    80204438:	8082                	ret

000000008020443a <init_appmanager>:
    8020443a:	1101                	addi	sp,sp,-32
    8020443c:	ec06                	sd	ra,24(sp)
    8020443e:	e822                	sd	s0,16(sp)
    80204440:	1000                	addi	s0,sp,32
    80204442:	00003797          	auipc	a5,0x3
    80204446:	bbe78793          	addi	a5,a5,-1090 # 80207000 <_num_app>
    8020444a:	6398                	ld	a4,0(a5)
    8020444c:	00816797          	auipc	a5,0x816
    80204450:	5fc78793          	addi	a5,a5,1532 # 80a1aa48 <app_manager>
    80204454:	e398                	sd	a4,0(a5)
    80204456:	fe043423          	sd	zero,-24(s0)
    8020445a:	a085                	j	802044ba <init_appmanager+0x80>
    8020445c:	fe843783          	ld	a5,-24(s0)
    80204460:	0786                	slli	a5,a5,0x1
    80204462:	0785                	addi	a5,a5,1
    80204464:	00003717          	auipc	a4,0x3
    80204468:	b9c70713          	addi	a4,a4,-1124 # 80207000 <_num_app>
    8020446c:	078e                	slli	a5,a5,0x3
    8020446e:	97ba                	add	a5,a5,a4
    80204470:	6398                	ld	a4,0(a5)
    80204472:	00816697          	auipc	a3,0x816
    80204476:	5d668693          	addi	a3,a3,1494 # 80a1aa48 <app_manager>
    8020447a:	fe843783          	ld	a5,-24(s0)
    8020447e:	0789                	addi	a5,a5,2
    80204480:	078e                	slli	a5,a5,0x3
    80204482:	97b6                	add	a5,a5,a3
    80204484:	e398                	sd	a4,0(a5)
    80204486:	fe843783          	ld	a5,-24(s0)
    8020448a:	0785                	addi	a5,a5,1
    8020448c:	0786                	slli	a5,a5,0x1
    8020448e:	00003717          	auipc	a4,0x3
    80204492:	b7270713          	addi	a4,a4,-1166 # 80207000 <_num_app>
    80204496:	078e                	slli	a5,a5,0x3
    80204498:	97ba                	add	a5,a5,a4
    8020449a:	6398                	ld	a4,0(a5)
    8020449c:	00816697          	auipc	a3,0x816
    802044a0:	5ac68693          	addi	a3,a3,1452 # 80a1aa48 <app_manager>
    802044a4:	fe843783          	ld	a5,-24(s0)
    802044a8:	07d9                	addi	a5,a5,22
    802044aa:	078e                	slli	a5,a5,0x3
    802044ac:	97b6                	add	a5,a5,a3
    802044ae:	e398                	sd	a4,0(a5)
    802044b0:	fe843783          	ld	a5,-24(s0)
    802044b4:	0785                	addi	a5,a5,1
    802044b6:	fef43423          	sd	a5,-24(s0)
    802044ba:	00816797          	auipc	a5,0x816
    802044be:	58e78793          	addi	a5,a5,1422 # 80a1aa48 <app_manager>
    802044c2:	639c                	ld	a5,0(a5)
    802044c4:	fe843703          	ld	a4,-24(s0)
    802044c8:	f8f76ae3          	bltu	a4,a5,8020445c <init_appmanager+0x22>
    802044cc:	00816797          	auipc	a5,0x816
    802044d0:	57c78793          	addi	a5,a5,1404 # 80a1aa48 <app_manager>
    802044d4:	0007b423          	sd	zero,8(a5)
    802044d8:	00816517          	auipc	a0,0x816
    802044dc:	57050513          	addi	a0,a0,1392 # 80a1aa48 <app_manager>
    802044e0:	00e000ef          	jal	ra,802044ee <print_app_info>
    802044e4:	0001                	nop
    802044e6:	60e2                	ld	ra,24(sp)
    802044e8:	6442                	ld	s0,16(sp)
    802044ea:	6105                	addi	sp,sp,32
    802044ec:	8082                	ret

00000000802044ee <print_app_info>:
    802044ee:	7179                	addi	sp,sp,-48
    802044f0:	f406                	sd	ra,40(sp)
    802044f2:	f022                	sd	s0,32(sp)
    802044f4:	1800                	addi	s0,sp,48
    802044f6:	fca43c23          	sd	a0,-40(s0)
    802044fa:	00002517          	auipc	a0,0x2
    802044fe:	d8650513          	addi	a0,a0,-634 # 80206280 <rodata_start+0x280>
    80204502:	939ff0ef          	jal	ra,80203e3a <print_str>
    80204506:	fd843783          	ld	a5,-40(s0)
    8020450a:	639c                	ld	a5,0(a5)
    8020450c:	853e                	mv	a0,a5
    8020450e:	aabff0ef          	jal	ra,80203fb8 <print_uint64>
    80204512:	00002517          	auipc	a0,0x2
    80204516:	d8650513          	addi	a0,a0,-634 # 80206298 <rodata_start+0x298>
    8020451a:	921ff0ef          	jal	ra,80203e3a <print_str>
    8020451e:	fe043423          	sd	zero,-24(s0)
    80204522:	a885                	j	80204592 <print_app_info+0xa4>
    80204524:	00002517          	auipc	a0,0x2
    80204528:	d7c50513          	addi	a0,a0,-644 # 802062a0 <rodata_start+0x2a0>
    8020452c:	90fff0ef          	jal	ra,80203e3a <print_str>
    80204530:	fe843503          	ld	a0,-24(s0)
    80204534:	a85ff0ef          	jal	ra,80203fb8 <print_uint64>
    80204538:	00002517          	auipc	a0,0x2
    8020453c:	d7050513          	addi	a0,a0,-656 # 802062a8 <rodata_start+0x2a8>
    80204540:	8fbff0ef          	jal	ra,80203e3a <print_str>
    80204544:	fd843703          	ld	a4,-40(s0)
    80204548:	fe843783          	ld	a5,-24(s0)
    8020454c:	0789                	addi	a5,a5,2
    8020454e:	078e                	slli	a5,a5,0x3
    80204550:	97ba                	add	a5,a5,a4
    80204552:	639c                	ld	a5,0(a5)
    80204554:	853e                	mv	a0,a5
    80204556:	a63ff0ef          	jal	ra,80203fb8 <print_uint64>
    8020455a:	00002517          	auipc	a0,0x2
    8020455e:	d6650513          	addi	a0,a0,-666 # 802062c0 <rodata_start+0x2c0>
    80204562:	8d9ff0ef          	jal	ra,80203e3a <print_str>
    80204566:	fd843703          	ld	a4,-40(s0)
    8020456a:	fe843783          	ld	a5,-24(s0)
    8020456e:	07d9                	addi	a5,a5,22
    80204570:	078e                	slli	a5,a5,0x3
    80204572:	97ba                	add	a5,a5,a4
    80204574:	639c                	ld	a5,0(a5)
    80204576:	853e                	mv	a0,a5
    80204578:	a41ff0ef          	jal	ra,80203fb8 <print_uint64>
    8020457c:	00002517          	auipc	a0,0x2
    80204580:	d1c50513          	addi	a0,a0,-740 # 80206298 <rodata_start+0x298>
    80204584:	8b7ff0ef          	jal	ra,80203e3a <print_str>
    80204588:	fe843783          	ld	a5,-24(s0)
    8020458c:	0785                	addi	a5,a5,1
    8020458e:	fef43423          	sd	a5,-24(s0)
    80204592:	fd843783          	ld	a5,-40(s0)
    80204596:	639c                	ld	a5,0(a5)
    80204598:	fe843703          	ld	a4,-24(s0)
    8020459c:	f8f764e3          	bltu	a4,a5,80204524 <print_app_info+0x36>
    802045a0:	0001                	nop
    802045a2:	0001                	nop
    802045a4:	70a2                	ld	ra,40(sp)
    802045a6:	7402                	ld	s0,32(sp)
    802045a8:	6145                	addi	sp,sp,48
    802045aa:	8082                	ret

00000000802045ac <run_next_app>:
    802045ac:	db010113          	addi	sp,sp,-592
    802045b0:	24113423          	sd	ra,584(sp)
    802045b4:	24813023          	sd	s0,576(sp)
    802045b8:	22913c23          	sd	s1,568(sp)
    802045bc:	0c80                	addi	s0,sp,592
    802045be:	00002517          	auipc	a0,0x2
    802045c2:	d1a50513          	addi	a0,a0,-742 # 802062d8 <rodata_start+0x2d8>
    802045c6:	875ff0ef          	jal	ra,80203e3a <print_str>
    802045ca:	00816797          	auipc	a5,0x816
    802045ce:	47e78793          	addi	a5,a5,1150 # 80a1aa48 <app_manager>
    802045d2:	679c                	ld	a5,8(a5)
    802045d4:	853e                	mv	a0,a5
    802045d6:	9e3ff0ef          	jal	ra,80203fb8 <print_uint64>
    802045da:	00002517          	auipc	a0,0x2
    802045de:	cbe50513          	addi	a0,a0,-834 # 80206298 <rodata_start+0x298>
    802045e2:	859ff0ef          	jal	ra,80203e3a <print_str>
    802045e6:	00816797          	auipc	a5,0x816
    802045ea:	46278793          	addi	a5,a5,1122 # 80a1aa48 <app_manager>
    802045ee:	679c                	ld	a5,8(a5)
    802045f0:	00178713          	addi	a4,a5,1
    802045f4:	00816797          	auipc	a5,0x816
    802045f8:	45478793          	addi	a5,a5,1108 # 80a1aa48 <app_manager>
    802045fc:	e798                	sd	a4,8(a5)
    802045fe:	00816797          	auipc	a5,0x816
    80204602:	44a78793          	addi	a5,a5,1098 # 80a1aa48 <app_manager>
    80204606:	6798                	ld	a4,8(a5)
    80204608:	00816797          	auipc	a5,0x816
    8020460c:	44078793          	addi	a5,a5,1088 # 80a1aa48 <app_manager>
    80204610:	639c                	ld	a5,0(a5)
    80204612:	02f76063          	bltu	a4,a5,80204632 <run_next_app+0x86>
    80204616:	00002517          	auipc	a0,0x2
    8020461a:	cd250513          	addi	a0,a0,-814 # 802062e8 <rodata_start+0x2e8>
    8020461e:	81dff0ef          	jal	ra,80203e3a <print_str>
    80204622:	03300593          	li	a1,51
    80204626:	00002517          	auipc	a0,0x2
    8020462a:	cda50513          	addi	a0,a0,-806 # 80206300 <rodata_start+0x300>
    8020462e:	ad1ff0ef          	jal	ra,802040fe <panic>
    80204632:	00816797          	auipc	a5,0x816
    80204636:	41678793          	addi	a5,a5,1046 # 80a1aa48 <app_manager>
    8020463a:	679c                	ld	a5,8(a5)
    8020463c:	00816717          	auipc	a4,0x816
    80204640:	40c70713          	addi	a4,a4,1036 # 80a1aa48 <app_manager>
    80204644:	0789                	addi	a5,a5,2
    80204646:	078e                	slli	a5,a5,0x3
    80204648:	97ba                	add	a5,a5,a4
    8020464a:	639c                	ld	a5,0(a5)
    8020464c:	fcf43c23          	sd	a5,-40(s0)
    80204650:	0000100f          	fence.i
    80204654:	00816797          	auipc	a5,0x816
    80204658:	3f478793          	addi	a5,a5,1012 # 80a1aa48 <app_manager>
    8020465c:	679c                	ld	a5,8(a5)
    8020465e:	853e                	mv	a0,a5
    80204660:	228000ef          	jal	ra,80204888 <get_user_stack_top>
    80204664:	872a                	mv	a4,a0
    80204666:	ec040793          	addi	a5,s0,-320
    8020466a:	863a                	mv	a2,a4
    8020466c:	fd843583          	ld	a1,-40(s0)
    80204670:	853e                	mv	a0,a5
    80204672:	302000ef          	jal	ra,80204974 <app_init_context>
    80204676:	00816797          	auipc	a5,0x816
    8020467a:	3d278793          	addi	a5,a5,978 # 80a1aa48 <app_manager>
    8020467e:	6784                	ld	s1,8(a5)
    80204680:	db040793          	addi	a5,s0,-592
    80204684:	ec040713          	addi	a4,s0,-320
    80204688:	11000693          	li	a3,272
    8020468c:	8636                	mv	a2,a3
    8020468e:	85ba                	mv	a1,a4
    80204690:	853e                	mv	a0,a5
    80204692:	858fe0ef          	jal	ra,802026ea <memcpy>
    80204696:	db040793          	addi	a5,s0,-592
    8020469a:	85a6                	mv	a1,s1
    8020469c:	853e                	mv	a0,a5
    8020469e:	214000ef          	jal	ra,802048b2 <Kernelstack_push_TrapContext>
    802046a2:	fca43823          	sd	a0,-48(s0)
    802046a6:	fd043783          	ld	a5,-48(s0)
    802046aa:	853e                	mv	a0,a5
    802046ac:	3e5000ef          	jal	ra,80205290 <__restore>
    802046b0:	0001                	nop
    802046b2:	24813083          	ld	ra,584(sp)
    802046b6:	24013403          	ld	s0,576(sp)
    802046ba:	23813483          	ld	s1,568(sp)
    802046be:	25010113          	addi	sp,sp,592
    802046c2:	8082                	ret

00000000802046c4 <run_first_app>:
    802046c4:	db010113          	addi	sp,sp,-592
    802046c8:	24113423          	sd	ra,584(sp)
    802046cc:	24813023          	sd	s0,576(sp)
    802046d0:	22913c23          	sd	s1,568(sp)
    802046d4:	0c80                	addi	s0,sp,592
    802046d6:	00816797          	auipc	a5,0x816
    802046da:	37278793          	addi	a5,a5,882 # 80a1aa48 <app_manager>
    802046de:	679c                	ld	a5,8(a5)
    802046e0:	00816717          	auipc	a4,0x816
    802046e4:	36870713          	addi	a4,a4,872 # 80a1aa48 <app_manager>
    802046e8:	0789                	addi	a5,a5,2
    802046ea:	078e                	slli	a5,a5,0x3
    802046ec:	97ba                	add	a5,a5,a4
    802046ee:	639c                	ld	a5,0(a5)
    802046f0:	fcf43c23          	sd	a5,-40(s0)
    802046f4:	00816797          	auipc	a5,0x816
    802046f8:	35478793          	addi	a5,a5,852 # 80a1aa48 <app_manager>
    802046fc:	679c                	ld	a5,8(a5)
    802046fe:	853e                	mv	a0,a5
    80204700:	188000ef          	jal	ra,80204888 <get_user_stack_top>
    80204704:	872a                	mv	a4,a0
    80204706:	ec040793          	addi	a5,s0,-320
    8020470a:	863a                	mv	a2,a4
    8020470c:	fd843583          	ld	a1,-40(s0)
    80204710:	853e                	mv	a0,a5
    80204712:	262000ef          	jal	ra,80204974 <app_init_context>
    80204716:	00816797          	auipc	a5,0x816
    8020471a:	33278793          	addi	a5,a5,818 # 80a1aa48 <app_manager>
    8020471e:	6784                	ld	s1,8(a5)
    80204720:	db040793          	addi	a5,s0,-592
    80204724:	ec040713          	addi	a4,s0,-320
    80204728:	11000693          	li	a3,272
    8020472c:	8636                	mv	a2,a3
    8020472e:	85ba                	mv	a1,a4
    80204730:	853e                	mv	a0,a5
    80204732:	fb9fd0ef          	jal	ra,802026ea <memcpy>
    80204736:	db040793          	addi	a5,s0,-592
    8020473a:	85a6                	mv	a1,s1
    8020473c:	853e                	mv	a0,a5
    8020473e:	174000ef          	jal	ra,802048b2 <Kernelstack_push_TrapContext>
    80204742:	fca43823          	sd	a0,-48(s0)
    80204746:	fd043783          	ld	a5,-48(s0)
    8020474a:	853e                	mv	a0,a5
    8020474c:	345000ef          	jal	ra,80205290 <__restore>
    80204750:	0001                	nop
    80204752:	24813083          	ld	ra,584(sp)
    80204756:	24013403          	ld	s0,576(sp)
    8020475a:	23813483          	ld	s1,568(sp)
    8020475e:	25010113          	addi	sp,sp,592
    80204762:	8082                	ret

0000000080204764 <load_app_test>:
    80204764:	715d                	addi	sp,sp,-80
    80204766:	e486                	sd	ra,72(sp)
    80204768:	e0a2                	sd	s0,64(sp)
    8020476a:	0880                	addi	s0,sp,80
    8020476c:	00003797          	auipc	a5,0x3
    80204770:	89478793          	addi	a5,a5,-1900 # 80207000 <_num_app>
    80204774:	639c                	ld	a5,0(a5)
    80204776:	fef43023          	sd	a5,-32(s0)
    8020477a:	0000100f          	fence.i
    8020477e:	fe043423          	sd	zero,-24(s0)
    80204782:	a0d1                	j	80204846 <load_app_test+0xe2>
    80204784:	fe843783          	ld	a5,-24(s0)
    80204788:	0786                	slli	a5,a5,0x1
    8020478a:	0785                	addi	a5,a5,1
    8020478c:	00003717          	auipc	a4,0x3
    80204790:	87470713          	addi	a4,a4,-1932 # 80207000 <_num_app>
    80204794:	078e                	slli	a5,a5,0x3
    80204796:	97ba                	add	a5,a5,a4
    80204798:	639c                	ld	a5,0(a5)
    8020479a:	fcf43c23          	sd	a5,-40(s0)
    8020479e:	fe843783          	ld	a5,-24(s0)
    802047a2:	0785                	addi	a5,a5,1
    802047a4:	0786                	slli	a5,a5,0x1
    802047a6:	00003717          	auipc	a4,0x3
    802047aa:	85a70713          	addi	a4,a4,-1958 # 80207000 <_num_app>
    802047ae:	078e                	slli	a5,a5,0x3
    802047b0:	97ba                	add	a5,a5,a4
    802047b2:	639c                	ld	a5,0(a5)
    802047b4:	fcf43823          	sd	a5,-48(s0)
    802047b8:	fd043703          	ld	a4,-48(s0)
    802047bc:	fd843783          	ld	a5,-40(s0)
    802047c0:	40f707b3          	sub	a5,a4,a5
    802047c4:	fcf43423          	sd	a5,-56(s0)
    802047c8:	fd843783          	ld	a5,-40(s0)
    802047cc:	fcf43023          	sd	a5,-64(s0)
    802047d0:	fe843703          	ld	a4,-24(s0)
    802047d4:	6791                	lui	a5,0x4
    802047d6:	02078793          	addi	a5,a5,32 # 4020 <n+0x4000>
    802047da:	97ba                	add	a5,a5,a4
    802047dc:	07c6                	slli	a5,a5,0x11
    802047de:	faf43c23          	sd	a5,-72(s0)
    802047e2:	00002517          	auipc	a0,0x2
    802047e6:	b3650513          	addi	a0,a0,-1226 # 80206318 <rodata_start+0x318>
    802047ea:	e50ff0ef          	jal	ra,80203e3a <print_str>
    802047ee:	fd843503          	ld	a0,-40(s0)
    802047f2:	fc6ff0ef          	jal	ra,80203fb8 <print_uint64>
    802047f6:	00002517          	auipc	a0,0x2
    802047fa:	b4250513          	addi	a0,a0,-1214 # 80206338 <rodata_start+0x338>
    802047fe:	e3cff0ef          	jal	ra,80203e3a <print_str>
    80204802:	fd043503          	ld	a0,-48(s0)
    80204806:	fb2ff0ef          	jal	ra,80203fb8 <print_uint64>
    8020480a:	00002517          	auipc	a0,0x2
    8020480e:	a8e50513          	addi	a0,a0,-1394 # 80206298 <rodata_start+0x298>
    80204812:	e28ff0ef          	jal	ra,80203e3a <print_str>
    80204816:	00020637          	lui	a2,0x20
    8020481a:	4581                	li	a1,0
    8020481c:	fb843503          	ld	a0,-72(s0)
    80204820:	cfdfd0ef          	jal	ra,8020251c <memset_t>
    80204824:	fc843783          	ld	a5,-56(s0)
    80204828:	2781                	sext.w	a5,a5
    8020482a:	863e                	mv	a2,a5
    8020482c:	fc043583          	ld	a1,-64(s0)
    80204830:	fb843503          	ld	a0,-72(s0)
    80204834:	b25fd0ef          	jal	ra,80202358 <memcpy_t>
    80204838:	0000100f          	fence.i
    8020483c:	fe843783          	ld	a5,-24(s0)
    80204840:	0785                	addi	a5,a5,1
    80204842:	fef43423          	sd	a5,-24(s0)
    80204846:	fe843703          	ld	a4,-24(s0)
    8020484a:	fe043783          	ld	a5,-32(s0)
    8020484e:	f2f76be3          	bltu	a4,a5,80204784 <load_app_test+0x20>
    80204852:	0001                	nop
    80204854:	0001                	nop
    80204856:	60a6                	ld	ra,72(sp)
    80204858:	6406                	ld	s0,64(sp)
    8020485a:	6161                	addi	sp,sp,80
    8020485c:	8082                	ret

000000008020485e <get_kernel_stack_top>:
    8020485e:	1101                	addi	sp,sp,-32
    80204860:	ec22                	sd	s0,24(sp)
    80204862:	1000                	addi	s0,sp,32
    80204864:	fea43423          	sd	a0,-24(s0)
    80204868:	fe843783          	ld	a5,-24(s0)
    8020486c:	00d79713          	slli	a4,a5,0xd
    80204870:	0083e797          	auipc	a5,0x83e
    80204874:	72878793          	addi	a5,a5,1832 # 80a42f98 <Kernelstack>
    80204878:	97ba                	add	a5,a5,a4
    8020487a:	873e                	mv	a4,a5
    8020487c:	6789                	lui	a5,0x2
    8020487e:	97ba                	add	a5,a5,a4
    80204880:	853e                	mv	a0,a5
    80204882:	6462                	ld	s0,24(sp)
    80204884:	6105                	addi	sp,sp,32
    80204886:	8082                	ret

0000000080204888 <get_user_stack_top>:
    80204888:	1101                	addi	sp,sp,-32
    8020488a:	ec22                	sd	s0,24(sp)
    8020488c:	1000                	addi	s0,sp,32
    8020488e:	fea43423          	sd	a0,-24(s0)
    80204892:	fe843783          	ld	a5,-24(s0)
    80204896:	00d79713          	slli	a4,a5,0xd
    8020489a:	00816797          	auipc	a5,0x816
    8020489e:	6fe78793          	addi	a5,a5,1790 # 80a1af98 <UserStack>
    802048a2:	97ba                	add	a5,a5,a4
    802048a4:	873e                	mv	a4,a5
    802048a6:	6789                	lui	a5,0x2
    802048a8:	97ba                	add	a5,a5,a4
    802048aa:	853e                	mv	a0,a5
    802048ac:	6462                	ld	s0,24(sp)
    802048ae:	6105                	addi	sp,sp,32
    802048b0:	8082                	ret

00000000802048b2 <Kernelstack_push_TrapContext>:
    802048b2:	7179                	addi	sp,sp,-48
    802048b4:	f406                	sd	ra,40(sp)
    802048b6:	f022                	sd	s0,32(sp)
    802048b8:	1800                	addi	s0,sp,48
    802048ba:	80aa                	mv	ra,a0
    802048bc:	fcb43c23          	sd	a1,-40(s0)
    802048c0:	fd843783          	ld	a5,-40(s0)
    802048c4:	00d79713          	slli	a4,a5,0xd
    802048c8:	0083e797          	auipc	a5,0x83e
    802048cc:	6d078793          	addi	a5,a5,1744 # 80a42f98 <Kernelstack>
    802048d0:	973e                	add	a4,a4,a5
    802048d2:	6789                	lui	a5,0x2
    802048d4:	97ba                	add	a5,a5,a4
    802048d6:	fef43423          	sd	a5,-24(s0)
    802048da:	fe843783          	ld	a5,-24(s0)
    802048de:	ef078793          	addi	a5,a5,-272 # 1ef0 <n+0x1ed0>
    802048e2:	fef43423          	sd	a5,-24(s0)
    802048e6:	fe843783          	ld	a5,-24(s0)
    802048ea:	873e                	mv	a4,a5
    802048ec:	8686                	mv	a3,ra
    802048ee:	11000793          	li	a5,272
    802048f2:	863e                	mv	a2,a5
    802048f4:	85b6                	mv	a1,a3
    802048f6:	853a                	mv	a0,a4
    802048f8:	df3fd0ef          	jal	ra,802026ea <memcpy>
    802048fc:	fe843783          	ld	a5,-24(s0)
    80204900:	853e                	mv	a0,a5
    80204902:	70a2                	ld	ra,40(sp)
    80204904:	7402                	ld	s0,32(sp)
    80204906:	6145                	addi	sp,sp,48
    80204908:	8082                	ret

000000008020490a <set_sstatus_spp_user>:
