
obj/os_kernel.elf:     file format elf64-littleriscv


Disassembly of section .text:

0000000080200000 <_start>:
stext():
/home/caigoubencai/Desktop/os_c/kernel/asm/entry.asm:4
    .section .text.entry
    .globl _start
_start:
    la sp, boot_stack_top
    80200000:	00022117          	auipc	sp,0x22
    80200004:	00010113          	mv	sp,sp
/home/caigoubencai/Desktop/os_c/kernel/asm/entry.asm:5
    call main_os
    80200008:	159020ef          	jal	ra,80202960 <main_os>
	...

0000000080201000 <__alltraps>:
__alltraps():
/home/caigoubencai/Desktop/os_c/kernel/asm/trap.asm:13
  .section .text.trampoline
  .globl __alltraps
  .globl __restore
  .align 2
__alltraps:
  csrrw sp, sscratch, sp
    80201000:	14011173          	csrrw	sp,sscratch,sp
/home/caigoubencai/Desktop/os_c/kernel/asm/trap.asm:16
  # now sp->*TrapContext in user space, sscratch->user stack
  # save other general purpose registers
  sd x1, 1*8(sp)
    80201004:	e406                	sd	ra,8(sp)
/home/caigoubencai/Desktop/os_c/kernel/asm/trap.asm:18
  # skip sp(x2), we will save it later
  sd x3, 3*8(sp)
    80201006:	ec0e                	sd	gp,24(sp)
/home/caigoubencai/Desktop/os_c/kernel/asm/trap.asm:25
  # save x5~x31
  .set n, 5
  .rept 27
    SAVE_GP %n
    .set n, n+1
  .endr
    80201008:	f416                	sd	t0,40(sp)
    8020100a:	f81a                	sd	t1,48(sp)
    8020100c:	fc1e                	sd	t2,56(sp)
    8020100e:	e0a2                	sd	s0,64(sp)
    80201010:	e4a6                	sd	s1,72(sp)
    80201012:	e8aa                	sd	a0,80(sp)
    80201014:	ecae                	sd	a1,88(sp)
    80201016:	f0b2                	sd	a2,96(sp)
    80201018:	f4b6                	sd	a3,104(sp)
    8020101a:	f8ba                	sd	a4,112(sp)
    8020101c:	fcbe                	sd	a5,120(sp)
    8020101e:	e142                	sd	a6,128(sp)
    80201020:	e546                	sd	a7,136(sp)
    80201022:	e94a                	sd	s2,144(sp)
    80201024:	ed4e                	sd	s3,152(sp)
    80201026:	f152                	sd	s4,160(sp)
    80201028:	f556                	sd	s5,168(sp)
    8020102a:	f95a                	sd	s6,176(sp)
    8020102c:	fd5e                	sd	s7,184(sp)
    8020102e:	e1e2                	sd	s8,192(sp)
    80201030:	e5e6                	sd	s9,200(sp)
    80201032:	e9ea                	sd	s10,208(sp)
    80201034:	edee                	sd	s11,216(sp)
    80201036:	f1f2                	sd	t3,224(sp)
    80201038:	f5f6                	sd	t4,232(sp)
    8020103a:	f9fa                	sd	t5,240(sp)
    8020103c:	fdfe                	sd	t6,248(sp)
/home/caigoubencai/Desktop/os_c/kernel/asm/trap.asm:27
  # we can use t0/t1/t2 freely, because they have been saved in TrapContext
  csrr t0, sstatus
    8020103e:	100022f3          	csrr	t0,sstatus
/home/caigoubencai/Desktop/os_c/kernel/asm/trap.asm:28
  csrr t1, sepc
    80201042:	14102373          	csrr	t1,sepc
/home/caigoubencai/Desktop/os_c/kernel/asm/trap.asm:29
  sd t0, 32*8(sp)
    80201046:	e216                	sd	t0,256(sp)
/home/caigoubencai/Desktop/os_c/kernel/asm/trap.asm:30
  sd t1, 33*8(sp)
    80201048:	e61a                	sd	t1,264(sp)
/home/caigoubencai/Desktop/os_c/kernel/asm/trap.asm:32
  # read user stack from sscratch and save it in TrapContext
  csrr t2, sscratch
    8020104a:	140023f3          	csrr	t2,sscratch
/home/caigoubencai/Desktop/os_c/kernel/asm/trap.asm:33
  sd t2, 2*8(sp)
    8020104e:	e81e                	sd	t2,16(sp)
/home/caigoubencai/Desktop/os_c/kernel/asm/trap.asm:35
  # load kernel_satp into t0
  ld t0, 34*8(sp)
    80201050:	62d2                	ld	t0,272(sp)
/home/caigoubencai/Desktop/os_c/kernel/asm/trap.asm:37
  # load trap_handler into t1
  ld t1, 36*8(sp)
    80201052:	7312                	ld	t1,288(sp)
/home/caigoubencai/Desktop/os_c/kernel/asm/trap.asm:39
  # move to kernel_sp
  ld sp, 35*8(sp)
    80201054:	6172                	ld	sp,280(sp)
/home/caigoubencai/Desktop/os_c/kernel/asm/trap.asm:41
  # switch to kernel space
  csrw satp, t0
    80201056:	18029073          	csrw	satp,t0
/home/caigoubencai/Desktop/os_c/kernel/asm/trap.asm:42
  sfence.vma
    8020105a:	12000073          	sfence.vma
/home/caigoubencai/Desktop/os_c/kernel/asm/trap.asm:44
  # jump to trap_handler
  jr t1
    8020105e:	8302                	jr	t1

0000000080201060 <__restore>:
__restore():
/home/caigoubencai/Desktop/os_c/kernel/asm/trap.asm:49

__restore:
  # a0: *TrapContext in user space(Constant); a1: user space token
  # switch to user space
  csrw satp, a1
    80201060:	18059073          	csrw	satp,a1
/home/caigoubencai/Desktop/os_c/kernel/asm/trap.asm:50
  sfence.vma
    80201064:	12000073          	sfence.vma
/home/caigoubencai/Desktop/os_c/kernel/asm/trap.asm:51
  csrw sscratch, a0
    80201068:	14051073          	csrw	sscratch,a0
/home/caigoubencai/Desktop/os_c/kernel/asm/trap.asm:52
  mv sp, a0
    8020106c:	812a                	mv	sp,a0
/home/caigoubencai/Desktop/os_c/kernel/asm/trap.asm:55
  # now sp points to TrapContext in user space, start restoring based on it
  # restore sstatus/sepc
  ld t0, 32*8(sp)
    8020106e:	6292                	ld	t0,256(sp)
/home/caigoubencai/Desktop/os_c/kernel/asm/trap.asm:56
  ld t1, 33*8(sp)
    80201070:	6332                	ld	t1,264(sp)
/home/caigoubencai/Desktop/os_c/kernel/asm/trap.asm:57
  csrw sstatus, t0
    80201072:	10029073          	csrw	sstatus,t0
/home/caigoubencai/Desktop/os_c/kernel/asm/trap.asm:58
  csrw sepc, t1
    80201076:	14131073          	csrw	sepc,t1
/home/caigoubencai/Desktop/os_c/kernel/asm/trap.asm:60
  # restore general purpose registers except x0/sp/tp
  ld x1, 1*8(sp)
    8020107a:	60a2                	ld	ra,8(sp)
/home/caigoubencai/Desktop/os_c/kernel/asm/trap.asm:61
  ld x3, 3*8(sp)
    8020107c:	61e2                	ld	gp,24(sp)
/home/caigoubencai/Desktop/os_c/kernel/asm/trap.asm:66
  .set n, 5
  .rept 27
    LOAD_GP %n
    .set n, n+1
  .endr
    8020107e:	72a2                	ld	t0,40(sp)
    80201080:	7342                	ld	t1,48(sp)
    80201082:	73e2                	ld	t2,56(sp)
    80201084:	6406                	ld	s0,64(sp)
    80201086:	64a6                	ld	s1,72(sp)
    80201088:	6546                	ld	a0,80(sp)
    8020108a:	65e6                	ld	a1,88(sp)
    8020108c:	7606                	ld	a2,96(sp)
    8020108e:	76a6                	ld	a3,104(sp)
    80201090:	7746                	ld	a4,112(sp)
    80201092:	77e6                	ld	a5,120(sp)
    80201094:	680a                	ld	a6,128(sp)
    80201096:	68aa                	ld	a7,136(sp)
    80201098:	694a                	ld	s2,144(sp)
    8020109a:	69ea                	ld	s3,152(sp)
    8020109c:	7a0a                	ld	s4,160(sp)
    8020109e:	7aaa                	ld	s5,168(sp)
    802010a0:	7b4a                	ld	s6,176(sp)
    802010a2:	7bea                	ld	s7,184(sp)
    802010a4:	6c0e                	ld	s8,192(sp)
    802010a6:	6cae                	ld	s9,200(sp)
    802010a8:	6d4e                	ld	s10,208(sp)
    802010aa:	6dee                	ld	s11,216(sp)
    802010ac:	7e0e                	ld	t3,224(sp)
    802010ae:	7eae                	ld	t4,232(sp)
    802010b0:	7f4e                	ld	t5,240(sp)
    802010b2:	7fee                	ld	t6,248(sp)
/home/caigoubencai/Desktop/os_c/kernel/asm/trap.asm:68
  # back to user stack
  ld sp, 2*8(sp)
    802010b4:	6142                	ld	sp,16(sp)
/home/caigoubencai/Desktop/os_c/kernel/asm/trap.asm:69
  sret
    802010b6:	10200073          	sret
	...

0000000080202000 <port_write>:
port_write():
/home/caigoubencai/Desktop/os_c/kernel/lib/printk.c:9
#include "stdarg.h"

/**
 *  @brief: 调用sbi输出函数，参数为固定要求，由_vprintk & _vprints调用
 */
void port_write(char *buf) {
    80202000:	1101                	addi	sp,sp,-32
    80202002:	ec06                	sd	ra,24(sp)
    80202004:	e822                	sd	s0,16(sp)
    80202006:	1000                	addi	s0,sp,32
    80202008:	fea43423          	sd	a0,-24(s0)
/home/caigoubencai/Desktop/os_c/kernel/lib/printk.c:10
    while(*buf != 0){
    8020200c:	a821                	j	80202024 <port_write+0x24>
/home/caigoubencai/Desktop/os_c/kernel/lib/printk.c:11
        console_putchar(*buf++);
    8020200e:	fe843783          	ld	a5,-24(s0)
    80202012:	00178713          	addi	a4,a5,1
    80202016:	fee43423          	sd	a4,-24(s0)
    8020201a:	0007c783          	lbu	a5,0(a5)
    8020201e:	853e                	mv	a0,a5
    80202020:	2cc010ef          	jal	ra,802032ec <console_putchar>
/home/caigoubencai/Desktop/os_c/kernel/lib/printk.c:10
    while(*buf != 0){
    80202024:	fe843783          	ld	a5,-24(s0)
    80202028:	0007c783          	lbu	a5,0(a5)
    8020202c:	f3ed                	bnez	a5,8020200e <port_write+0xe>
/home/caigoubencai/Desktop/os_c/kernel/lib/printk.c:13
    }
}
    8020202e:	0001                	nop
    80202030:	0001                	nop
    80202032:	60e2                	ld	ra,24(sp)
    80202034:	6442                	ld	s0,16(sp)
    80202036:	6105                	addi	sp,sp,32
    80202038:	8082                	ret

000000008020203a <mini_strlen>:
mini_strlen():
/home/caigoubencai/Desktop/os_c/kernel/lib/printk.c:17


static unsigned int mini_strlen(const char *s)
{
    8020203a:	7179                	addi	sp,sp,-48
    8020203c:	f422                	sd	s0,40(sp)
    8020203e:	1800                	addi	s0,sp,48
    80202040:	fca43c23          	sd	a0,-40(s0)
/home/caigoubencai/Desktop/os_c/kernel/lib/printk.c:18
    unsigned int len = 0;
    80202044:	fe042623          	sw	zero,-20(s0)
/home/caigoubencai/Desktop/os_c/kernel/lib/printk.c:19
    while (s[len] != '\0') len++;
    80202048:	a031                	j	80202054 <mini_strlen+0x1a>
/home/caigoubencai/Desktop/os_c/kernel/lib/printk.c:19 (discriminator 2)
    8020204a:	fec42783          	lw	a5,-20(s0)
    8020204e:	2785                	addiw	a5,a5,1
    80202050:	fef42623          	sw	a5,-20(s0)
/home/caigoubencai/Desktop/os_c/kernel/lib/printk.c:19 (discriminator 1)
    80202054:	fec46783          	lwu	a5,-20(s0)
    80202058:	fd843703          	ld	a4,-40(s0)
    8020205c:	97ba                	add	a5,a5,a4
    8020205e:	0007c783          	lbu	a5,0(a5)
    80202062:	f7e5                	bnez	a5,8020204a <mini_strlen+0x10>
/home/caigoubencai/Desktop/os_c/kernel/lib/printk.c:20
    return len;
    80202064:	fec42783          	lw	a5,-20(s0)
/home/caigoubencai/Desktop/os_c/kernel/lib/printk.c:21
}
    80202068:	853e                	mv	a0,a5
    8020206a:	7422                	ld	s0,40(sp)
    8020206c:	6145                	addi	sp,sp,48
    8020206e:	8082                	ret

0000000080202070 <mini_itoa>:
mini_itoa():
/home/caigoubencai/Desktop/os_c/kernel/lib/printk.c:26

static unsigned int mini_itoa(
    long value, unsigned int radix, unsigned int uppercase,
    unsigned int unsig, char *buffer, unsigned int zero_pad)
{
    80202070:	715d                	addi	sp,sp,-80
    80202072:	e4a2                	sd	s0,72(sp)
    80202074:	0880                	addi	s0,sp,80
    80202076:	fca43423          	sd	a0,-56(s0)
    8020207a:	fae43823          	sd	a4,-80(s0)
    8020207e:	873e                	mv	a4,a5
    80202080:	87ae                	mv	a5,a1
    80202082:	fcf42223          	sw	a5,-60(s0)
    80202086:	87b2                	mv	a5,a2
    80202088:	fcf42023          	sw	a5,-64(s0)
    8020208c:	87b6                	mv	a5,a3
    8020208e:	faf42e23          	sw	a5,-68(s0)
    80202092:	87ba                	mv	a5,a4
    80202094:	faf42c23          	sw	a5,-72(s0)
/home/caigoubencai/Desktop/os_c/kernel/lib/printk.c:27
    char *pbuffer = buffer;
    80202098:	fb043783          	ld	a5,-80(s0)
    8020209c:	fef43423          	sd	a5,-24(s0)
/home/caigoubencai/Desktop/os_c/kernel/lib/printk.c:28
    int negative  = 0;
    802020a0:	fe042223          	sw	zero,-28(s0)
/home/caigoubencai/Desktop/os_c/kernel/lib/printk.c:32
    unsigned int i, len;

    /* No support for unusual radixes. */
    if (radix > 16) return 0;
    802020a4:	fc442783          	lw	a5,-60(s0)
    802020a8:	0007871b          	sext.w	a4,a5
    802020ac:	47c1                	li	a5,16
    802020ae:	00e7f463          	bgeu	a5,a4,802020b6 <mini_itoa+0x46>
/home/caigoubencai/Desktop/os_c/kernel/lib/printk.c:32 (discriminator 1)
    802020b2:	4781                	li	a5,0
    802020b4:	aae9                	j	8020228e <mini_itoa+0x21e>
/home/caigoubencai/Desktop/os_c/kernel/lib/printk.c:34

    if (value < 0 && !unsig) {
    802020b6:	fc843783          	ld	a5,-56(s0)
    802020ba:	0007df63          	bgez	a5,802020d8 <mini_itoa+0x68>
/home/caigoubencai/Desktop/os_c/kernel/lib/printk.c:34 (discriminator 1)
    802020be:	fbc42783          	lw	a5,-68(s0)
    802020c2:	2781                	sext.w	a5,a5
    802020c4:	eb91                	bnez	a5,802020d8 <mini_itoa+0x68>
/home/caigoubencai/Desktop/os_c/kernel/lib/printk.c:35
        negative = 1;
    802020c6:	4785                	li	a5,1
    802020c8:	fef42223          	sw	a5,-28(s0)
/home/caigoubencai/Desktop/os_c/kernel/lib/printk.c:36
        value    = -value;
    802020cc:	fc843783          	ld	a5,-56(s0)
    802020d0:	40f007b3          	neg	a5,a5
    802020d4:	fcf43423          	sd	a5,-56(s0)
/home/caigoubencai/Desktop/os_c/kernel/lib/printk.c:41
    }

    /* This builds the string back to front ... */
    do {
        int digit = 0;
    802020d8:	fc042e23          	sw	zero,-36(s0)
/home/caigoubencai/Desktop/os_c/kernel/lib/printk.c:42
        if (unsig) {
    802020dc:	fbc42783          	lw	a5,-68(s0)
    802020e0:	2781                	sext.w	a5,a5
    802020e2:	cb91                	beqz	a5,802020f6 <mini_itoa+0x86>
/home/caigoubencai/Desktop/os_c/kernel/lib/printk.c:43
            digit = (unsigned long)value % (unsigned)radix;
    802020e4:	fc843703          	ld	a4,-56(s0)
    802020e8:	fc446783          	lwu	a5,-60(s0)
    802020ec:	02f777b3          	remu	a5,a4,a5
    802020f0:	fcf42e23          	sw	a5,-36(s0)
    802020f4:	a809                	j	80202106 <mini_itoa+0x96>
/home/caigoubencai/Desktop/os_c/kernel/lib/printk.c:45
        } else {
            digit = value % radix;
    802020f6:	fc446783          	lwu	a5,-60(s0)
    802020fa:	fc843703          	ld	a4,-56(s0)
    802020fe:	02f767b3          	rem	a5,a4,a5
    80202102:	fcf42e23          	sw	a5,-36(s0)
/home/caigoubencai/Desktop/os_c/kernel/lib/printk.c:47
        }
        *(pbuffer++) =
    80202106:	fdc42783          	lw	a5,-36(s0)
    8020210a:	0007871b          	sext.w	a4,a5
    8020210e:	47a5                	li	a5,9
    80202110:	00e7cb63          	blt	a5,a4,80202126 <mini_itoa+0xb6>
/home/caigoubencai/Desktop/os_c/kernel/lib/printk.c:48 (discriminator 1)
            (digit < 10 ? '0' + digit :
    80202114:	fdc42783          	lw	a5,-36(s0)
    80202118:	0ff7f793          	andi	a5,a5,255
/home/caigoubencai/Desktop/os_c/kernel/lib/printk.c:47 (discriminator 1)
        *(pbuffer++) =
    8020211c:	0307879b          	addiw	a5,a5,48
    80202120:	0ff7f713          	andi	a4,a5,255
    80202124:	a025                	j	8020214c <mini_itoa+0xdc>
/home/caigoubencai/Desktop/os_c/kernel/lib/printk.c:49
             (uppercase ? 'A' : 'a') + digit - 10);
    80202126:	fc042783          	lw	a5,-64(s0)
    8020212a:	2781                	sext.w	a5,a5
    8020212c:	c781                	beqz	a5,80202134 <mini_itoa+0xc4>
/home/caigoubencai/Desktop/os_c/kernel/lib/printk.c:49 (discriminator 1)
    8020212e:	04100793          	li	a5,65
    80202132:	a019                	j	80202138 <mini_itoa+0xc8>
/home/caigoubencai/Desktop/os_c/kernel/lib/printk.c:49 (discriminator 2)
    80202134:	06100793          	li	a5,97
/home/caigoubencai/Desktop/os_c/kernel/lib/printk.c:49 (discriminator 4)
    80202138:	fdc42703          	lw	a4,-36(s0)
    8020213c:	0ff77713          	andi	a4,a4,255
    80202140:	9fb9                	addw	a5,a5,a4
    80202142:	0ff7f793          	andi	a5,a5,255
/home/caigoubencai/Desktop/os_c/kernel/lib/printk.c:47 (discriminator 4)
        *(pbuffer++) =
    80202146:	37d9                	addiw	a5,a5,-10
    80202148:	0ff7f713          	andi	a4,a5,255
/home/caigoubencai/Desktop/os_c/kernel/lib/printk.c:47 (discriminator 3)
    8020214c:	fe843783          	ld	a5,-24(s0)
    80202150:	00178693          	addi	a3,a5,1
    80202154:	fed43423          	sd	a3,-24(s0)
    80202158:	00e78023          	sb	a4,0(a5)
/home/caigoubencai/Desktop/os_c/kernel/lib/printk.c:50 (discriminator 3)
        if (unsig) {
    8020215c:	fbc42783          	lw	a5,-68(s0)
    80202160:	2781                	sext.w	a5,a5
    80202162:	cb91                	beqz	a5,80202176 <mini_itoa+0x106>
/home/caigoubencai/Desktop/os_c/kernel/lib/printk.c:51
            value = (unsigned long) value / (unsigned) radix;
    80202164:	fc843703          	ld	a4,-56(s0)
    80202168:	fc446783          	lwu	a5,-60(s0)
    8020216c:	02f757b3          	divu	a5,a4,a5
    80202170:	fcf43423          	sd	a5,-56(s0)
    80202174:	a809                	j	80202186 <mini_itoa+0x116>
/home/caigoubencai/Desktop/os_c/kernel/lib/printk.c:53
        } else {
            value /= radix;
    80202176:	fc446783          	lwu	a5,-60(s0)
    8020217a:	fc843703          	ld	a4,-56(s0)
    8020217e:	02f747b3          	div	a5,a4,a5
    80202182:	fcf43423          	sd	a5,-56(s0)
/home/caigoubencai/Desktop/os_c/kernel/lib/printk.c:55
        }
    } while (value != 0);
    80202186:	fc843783          	ld	a5,-56(s0)
    8020218a:	f7b9                	bnez	a5,802020d8 <mini_itoa+0x68>
/home/caigoubencai/Desktop/os_c/kernel/lib/printk.c:57

    for (i = (pbuffer - buffer); i < zero_pad; i++)
    8020218c:	fe843703          	ld	a4,-24(s0)
    80202190:	fb043783          	ld	a5,-80(s0)
    80202194:	40f707b3          	sub	a5,a4,a5
    80202198:	fef42023          	sw	a5,-32(s0)
    8020219c:	a005                	j	802021bc <mini_itoa+0x14c>
/home/caigoubencai/Desktop/os_c/kernel/lib/printk.c:58 (discriminator 3)
        *(pbuffer++) = '0';
    8020219e:	fe843783          	ld	a5,-24(s0)
    802021a2:	00178713          	addi	a4,a5,1
    802021a6:	fee43423          	sd	a4,-24(s0)
    802021aa:	03000713          	li	a4,48
    802021ae:	00e78023          	sb	a4,0(a5)
/home/caigoubencai/Desktop/os_c/kernel/lib/printk.c:57 (discriminator 3)
    for (i = (pbuffer - buffer); i < zero_pad; i++)
    802021b2:	fe042783          	lw	a5,-32(s0)
    802021b6:	2785                	addiw	a5,a5,1
    802021b8:	fef42023          	sw	a5,-32(s0)
/home/caigoubencai/Desktop/os_c/kernel/lib/printk.c:57 (discriminator 1)
    802021bc:	fe042703          	lw	a4,-32(s0)
    802021c0:	fb842783          	lw	a5,-72(s0)
    802021c4:	2701                	sext.w	a4,a4
    802021c6:	2781                	sext.w	a5,a5
    802021c8:	fcf76be3          	bltu	a4,a5,8020219e <mini_itoa+0x12e>
/home/caigoubencai/Desktop/os_c/kernel/lib/printk.c:60

    if (negative) *(pbuffer++) = '-';
    802021cc:	fe442783          	lw	a5,-28(s0)
    802021d0:	2781                	sext.w	a5,a5
    802021d2:	cb99                	beqz	a5,802021e8 <mini_itoa+0x178>
/home/caigoubencai/Desktop/os_c/kernel/lib/printk.c:60 (discriminator 1)
    802021d4:	fe843783          	ld	a5,-24(s0)
    802021d8:	00178713          	addi	a4,a5,1
    802021dc:	fee43423          	sd	a4,-24(s0)
    802021e0:	02d00713          	li	a4,45
    802021e4:	00e78023          	sb	a4,0(a5)
/home/caigoubencai/Desktop/os_c/kernel/lib/printk.c:62

    *(pbuffer) = '\0';
    802021e8:	fe843783          	ld	a5,-24(s0)
    802021ec:	00078023          	sb	zero,0(a5)
/home/caigoubencai/Desktop/os_c/kernel/lib/printk.c:64

    len = (pbuffer - buffer);
    802021f0:	fe843703          	ld	a4,-24(s0)
    802021f4:	fb043783          	ld	a5,-80(s0)
    802021f8:	40f707b3          	sub	a5,a4,a5
    802021fc:	fcf42c23          	sw	a5,-40(s0)
/home/caigoubencai/Desktop/os_c/kernel/lib/printk.c:65
    for (i = 0; i < len / 2; i++) {
    80202200:	fe042023          	sw	zero,-32(s0)
    80202204:	a885                	j	80202274 <mini_itoa+0x204>
/home/caigoubencai/Desktop/os_c/kernel/lib/printk.c:66 (discriminator 3)
        char j              = buffer[i];
    80202206:	fe046783          	lwu	a5,-32(s0)
    8020220a:	fb043703          	ld	a4,-80(s0)
    8020220e:	97ba                	add	a5,a5,a4
    80202210:	0007c783          	lbu	a5,0(a5)
    80202214:	fcf40ba3          	sb	a5,-41(s0)
/home/caigoubencai/Desktop/os_c/kernel/lib/printk.c:67 (discriminator 3)
        buffer[i]           = buffer[len - i - 1];
    80202218:	fd842703          	lw	a4,-40(s0)
    8020221c:	fe042783          	lw	a5,-32(s0)
    80202220:	40f707bb          	subw	a5,a4,a5
    80202224:	2781                	sext.w	a5,a5
    80202226:	37fd                	addiw	a5,a5,-1
    80202228:	2781                	sext.w	a5,a5
    8020222a:	1782                	slli	a5,a5,0x20
    8020222c:	9381                	srli	a5,a5,0x20
    8020222e:	fb043703          	ld	a4,-80(s0)
    80202232:	973e                	add	a4,a4,a5
    80202234:	fe046783          	lwu	a5,-32(s0)
    80202238:	fb043683          	ld	a3,-80(s0)
    8020223c:	97b6                	add	a5,a5,a3
    8020223e:	00074703          	lbu	a4,0(a4)
    80202242:	00e78023          	sb	a4,0(a5)
/home/caigoubencai/Desktop/os_c/kernel/lib/printk.c:68 (discriminator 3)
        buffer[len - i - 1] = j;
    80202246:	fd842703          	lw	a4,-40(s0)
    8020224a:	fe042783          	lw	a5,-32(s0)
    8020224e:	40f707bb          	subw	a5,a4,a5
    80202252:	2781                	sext.w	a5,a5
    80202254:	37fd                	addiw	a5,a5,-1
    80202256:	2781                	sext.w	a5,a5
    80202258:	1782                	slli	a5,a5,0x20
    8020225a:	9381                	srli	a5,a5,0x20
    8020225c:	fb043703          	ld	a4,-80(s0)
    80202260:	97ba                	add	a5,a5,a4
    80202262:	fd744703          	lbu	a4,-41(s0)
    80202266:	00e78023          	sb	a4,0(a5)
/home/caigoubencai/Desktop/os_c/kernel/lib/printk.c:65 (discriminator 3)
    for (i = 0; i < len / 2; i++) {
    8020226a:	fe042783          	lw	a5,-32(s0)
    8020226e:	2785                	addiw	a5,a5,1
    80202270:	fef42023          	sw	a5,-32(s0)
/home/caigoubencai/Desktop/os_c/kernel/lib/printk.c:65 (discriminator 1)
    80202274:	fd842783          	lw	a5,-40(s0)
    80202278:	0017d79b          	srliw	a5,a5,0x1
    8020227c:	0007871b          	sext.w	a4,a5
    80202280:	fe042783          	lw	a5,-32(s0)
    80202284:	2781                	sext.w	a5,a5
    80202286:	f8e7e0e3          	bltu	a5,a4,80202206 <mini_itoa+0x196>
/home/caigoubencai/Desktop/os_c/kernel/lib/printk.c:71
    }

    return len;
    8020228a:	fd842783          	lw	a5,-40(s0)
/home/caigoubencai/Desktop/os_c/kernel/lib/printk.c:72
}
    8020228e:	853e                	mv	a0,a5
    80202290:	6426                	ld	s0,72(sp)
    80202292:	6161                	addi	sp,sp,80
    80202294:	8082                	ret

0000000080202296 <_putc>:
_putc():
/home/caigoubencai/Desktop/os_c/kernel/lib/printk.c:81
    char *buffer, *pbuffer;
    unsigned int buffer_len;
};

static int _putc(int ch, struct mini_buff *b)
{
    80202296:	1101                	addi	sp,sp,-32
    80202298:	ec22                	sd	s0,24(sp)
    8020229a:	1000                	addi	s0,sp,32
    8020229c:	87aa                	mv	a5,a0
    8020229e:	feb43023          	sd	a1,-32(s0)
    802022a2:	fef42623          	sw	a5,-20(s0)
/home/caigoubencai/Desktop/os_c/kernel/lib/printk.c:82
    if ((unsigned int)((b->pbuffer - b->buffer) + 1) >=
    802022a6:	fe043783          	ld	a5,-32(s0)
    802022aa:	6798                	ld	a4,8(a5)
    802022ac:	fe043783          	ld	a5,-32(s0)
    802022b0:	639c                	ld	a5,0(a5)
    802022b2:	40f707b3          	sub	a5,a4,a5
    802022b6:	2781                	sext.w	a5,a5
    802022b8:	2785                	addiw	a5,a5,1
    802022ba:	0007871b          	sext.w	a4,a5
/home/caigoubencai/Desktop/os_c/kernel/lib/printk.c:83
        b->buffer_len)
    802022be:	fe043783          	ld	a5,-32(s0)
    802022c2:	4b9c                	lw	a5,16(a5)
/home/caigoubencai/Desktop/os_c/kernel/lib/printk.c:82
    if ((unsigned int)((b->pbuffer - b->buffer) + 1) >=
    802022c4:	00f76463          	bltu	a4,a5,802022cc <_putc+0x36>
/home/caigoubencai/Desktop/os_c/kernel/lib/printk.c:84
        return 0;
    802022c8:	4781                	li	a5,0
    802022ca:	a02d                	j	802022f4 <_putc+0x5e>
/home/caigoubencai/Desktop/os_c/kernel/lib/printk.c:85
    *(b->pbuffer++) = ch;
    802022cc:	fe043783          	ld	a5,-32(s0)
    802022d0:	679c                	ld	a5,8(a5)
    802022d2:	00178693          	addi	a3,a5,1
    802022d6:	fe043703          	ld	a4,-32(s0)
    802022da:	e714                	sd	a3,8(a4)
    802022dc:	fec42703          	lw	a4,-20(s0)
    802022e0:	0ff77713          	andi	a4,a4,255
    802022e4:	00e78023          	sb	a4,0(a5)
/home/caigoubencai/Desktop/os_c/kernel/lib/printk.c:86
    *(b->pbuffer)   = '\0';
    802022e8:	fe043783          	ld	a5,-32(s0)
    802022ec:	679c                	ld	a5,8(a5)
    802022ee:	00078023          	sb	zero,0(a5)
/home/caigoubencai/Desktop/os_c/kernel/lib/printk.c:87
    return 1;
    802022f2:	4785                	li	a5,1
/home/caigoubencai/Desktop/os_c/kernel/lib/printk.c:88
}
    802022f4:	853e                	mv	a0,a5
    802022f6:	6462                	ld	s0,24(sp)
    802022f8:	6105                	addi	sp,sp,32
    802022fa:	8082                	ret

00000000802022fc <_puts>:
_puts():
/home/caigoubencai/Desktop/os_c/kernel/lib/printk.c:91

static int _puts(char *s, unsigned int len, struct mini_buff *b)
{
    802022fc:	7139                	addi	sp,sp,-64
    802022fe:	fc22                	sd	s0,56(sp)
    80202300:	0080                	addi	s0,sp,64
    80202302:	fca43c23          	sd	a0,-40(s0)
    80202306:	87ae                	mv	a5,a1
    80202308:	fcc43423          	sd	a2,-56(s0)
    8020230c:	fcf42a23          	sw	a5,-44(s0)
/home/caigoubencai/Desktop/os_c/kernel/lib/printk.c:94
    unsigned int i;

    if (b->buffer_len - (b->pbuffer - b->buffer) - 1 < len)
    80202310:	fc843783          	ld	a5,-56(s0)
    80202314:	4b9c                	lw	a5,16(a5)
    80202316:	02079713          	slli	a4,a5,0x20
    8020231a:	9301                	srli	a4,a4,0x20
    8020231c:	fc843783          	ld	a5,-56(s0)
    80202320:	6794                	ld	a3,8(a5)
    80202322:	fc843783          	ld	a5,-56(s0)
    80202326:	639c                	ld	a5,0(a5)
    80202328:	40f687b3          	sub	a5,a3,a5
    8020232c:	8f1d                	sub	a4,a4,a5
    8020232e:	fd446783          	lwu	a5,-44(s0)
    80202332:	02e7c463          	blt	a5,a4,8020235a <_puts+0x5e>
/home/caigoubencai/Desktop/os_c/kernel/lib/printk.c:95
        len = b->buffer_len - (b->pbuffer - b->buffer) - 1;
    80202336:	fc843783          	ld	a5,-56(s0)
    8020233a:	4b98                	lw	a4,16(a5)
    8020233c:	fc843783          	ld	a5,-56(s0)
    80202340:	6794                	ld	a3,8(a5)
    80202342:	fc843783          	ld	a5,-56(s0)
    80202346:	639c                	ld	a5,0(a5)
    80202348:	40f687b3          	sub	a5,a3,a5
    8020234c:	2781                	sext.w	a5,a5
    8020234e:	40f707bb          	subw	a5,a4,a5
    80202352:	2781                	sext.w	a5,a5
    80202354:	37fd                	addiw	a5,a5,-1
    80202356:	fcf42a23          	sw	a5,-44(s0)
/home/caigoubencai/Desktop/os_c/kernel/lib/printk.c:98

    /* Copy to buffer */
    for (i = 0; i < len; i++) *(b->pbuffer++) = s[i];
    8020235a:	fe042623          	sw	zero,-20(s0)
    8020235e:	a03d                	j	8020238c <_puts+0x90>
/home/caigoubencai/Desktop/os_c/kernel/lib/printk.c:98 (discriminator 3)
    80202360:	fec46783          	lwu	a5,-20(s0)
    80202364:	fd843703          	ld	a4,-40(s0)
    80202368:	973e                	add	a4,a4,a5
    8020236a:	fc843783          	ld	a5,-56(s0)
    8020236e:	679c                	ld	a5,8(a5)
    80202370:	00178613          	addi	a2,a5,1
    80202374:	fc843683          	ld	a3,-56(s0)
    80202378:	e690                	sd	a2,8(a3)
    8020237a:	00074703          	lbu	a4,0(a4)
    8020237e:	00e78023          	sb	a4,0(a5)
    80202382:	fec42783          	lw	a5,-20(s0)
    80202386:	2785                	addiw	a5,a5,1
    80202388:	fef42623          	sw	a5,-20(s0)
/home/caigoubencai/Desktop/os_c/kernel/lib/printk.c:98 (discriminator 1)
    8020238c:	fec42703          	lw	a4,-20(s0)
    80202390:	fd442783          	lw	a5,-44(s0)
    80202394:	2701                	sext.w	a4,a4
    80202396:	2781                	sext.w	a5,a5
    80202398:	fcf764e3          	bltu	a4,a5,80202360 <_puts+0x64>
/home/caigoubencai/Desktop/os_c/kernel/lib/printk.c:99
    *(b->pbuffer) = '\0';
    8020239c:	fc843783          	ld	a5,-56(s0)
    802023a0:	679c                	ld	a5,8(a5)
    802023a2:	00078023          	sb	zero,0(a5)
/home/caigoubencai/Desktop/os_c/kernel/lib/printk.c:101

    return len;
    802023a6:	fd442783          	lw	a5,-44(s0)
/home/caigoubencai/Desktop/os_c/kernel/lib/printk.c:102
}
    802023aa:	853e                	mv	a0,a5
    802023ac:	7462                	ld	s0,56(sp)
    802023ae:	6121                	addi	sp,sp,64
    802023b0:	8082                	ret

00000000802023b2 <mini_vsnprintf>:
mini_vsnprintf():
/home/caigoubencai/Desktop/os_c/kernel/lib/printk.c:107

static int mini_vsnprintf(
    char *buffer, unsigned int buffer_len, const char *fmt,
    va_list va)
{
    802023b2:	7119                	addi	sp,sp,-128
    802023b4:	fc86                	sd	ra,120(sp)
    802023b6:	f8a2                	sd	s0,112(sp)
    802023b8:	0100                	addi	s0,sp,128
    802023ba:	f8a43c23          	sd	a0,-104(s0)
    802023be:	87ae                	mv	a5,a1
    802023c0:	f8c43423          	sd	a2,-120(s0)
    802023c4:	f8d43023          	sd	a3,-128(s0)
    802023c8:	f8f42a23          	sw	a5,-108(s0)
/home/caigoubencai/Desktop/os_c/kernel/lib/printk.c:112
    struct mini_buff b;
    char bf[24];
    char ch;

    b.buffer     = buffer;
    802023cc:	f9843783          	ld	a5,-104(s0)
    802023d0:	fcf43023          	sd	a5,-64(s0)
/home/caigoubencai/Desktop/os_c/kernel/lib/printk.c:113
    b.pbuffer    = buffer;
    802023d4:	f9843783          	ld	a5,-104(s0)
    802023d8:	fcf43423          	sd	a5,-56(s0)
/home/caigoubencai/Desktop/os_c/kernel/lib/printk.c:114
    b.buffer_len = buffer_len;
    802023dc:	f9442783          	lw	a5,-108(s0)
    802023e0:	fcf42823          	sw	a5,-48(s0)
/home/caigoubencai/Desktop/os_c/kernel/lib/printk.c:116

    while ((ch = *(fmt++))) {
    802023e4:	a4f9                	j	802026b2 <mini_vsnprintf+0x300>
/home/caigoubencai/Desktop/os_c/kernel/lib/printk.c:117
        if ((unsigned int)((b.pbuffer - b.buffer) + 1) >=
    802023e6:	fc843703          	ld	a4,-56(s0)
    802023ea:	fc043783          	ld	a5,-64(s0)
    802023ee:	40f707b3          	sub	a5,a4,a5
    802023f2:	2781                	sext.w	a5,a5
    802023f4:	2785                	addiw	a5,a5,1
    802023f6:	0007871b          	sext.w	a4,a5
/home/caigoubencai/Desktop/os_c/kernel/lib/printk.c:118
            b.buffer_len)
    802023fa:	fd042783          	lw	a5,-48(s0)
/home/caigoubencai/Desktop/os_c/kernel/lib/printk.c:117
        if ((unsigned int)((b.pbuffer - b.buffer) + 1) >=
    802023fe:	2cf77b63          	bgeu	a4,a5,802026d4 <mini_vsnprintf+0x322>
/home/caigoubencai/Desktop/os_c/kernel/lib/printk.c:120
            break;
        if (ch != '%')
    80202402:	fef44783          	lbu	a5,-17(s0)
    80202406:	0ff7f713          	andi	a4,a5,255
    8020240a:	02500793          	li	a5,37
    8020240e:	00f70c63          	beq	a4,a5,80202426 <mini_vsnprintf+0x74>
/home/caigoubencai/Desktop/os_c/kernel/lib/printk.c:121
            _putc(ch, &b);
    80202412:	fef44783          	lbu	a5,-17(s0)
    80202416:	2781                	sext.w	a5,a5
    80202418:	fc040713          	addi	a4,s0,-64
    8020241c:	85ba                	mv	a1,a4
    8020241e:	853e                	mv	a0,a5
    80202420:	e77ff0ef          	jal	ra,80202296 <_putc>
    80202424:	a479                	j	802026b2 <mini_vsnprintf+0x300>
/home/caigoubencai/Desktop/os_c/kernel/lib/printk.c:123
        else {
            char zero_pad = 0;
    80202426:	fe040723          	sb	zero,-18(s0)
/home/caigoubencai/Desktop/os_c/kernel/lib/printk.c:124
            int longflag = 0;
    8020242a:	fe042423          	sw	zero,-24(s0)
/home/caigoubencai/Desktop/os_c/kernel/lib/printk.c:128
            char *ptr;
            unsigned int len;

            ch = *(fmt++);
    8020242e:	f8843783          	ld	a5,-120(s0)
    80202432:	00178713          	addi	a4,a5,1
    80202436:	f8e43423          	sd	a4,-120(s0)
    8020243a:	0007c783          	lbu	a5,0(a5)
    8020243e:	fef407a3          	sb	a5,-17(s0)
/home/caigoubencai/Desktop/os_c/kernel/lib/printk.c:131

            /* Zero padding requested */
            if (ch == '0') {
    80202442:	fef44783          	lbu	a5,-17(s0)
    80202446:	0ff7f713          	andi	a4,a5,255
    8020244a:	03000793          	li	a5,48
    8020244e:	06f71b63          	bne	a4,a5,802024c4 <mini_vsnprintf+0x112>
/home/caigoubencai/Desktop/os_c/kernel/lib/printk.c:132
                while ((ch = *(fmt++))) {
    80202452:	a891                	j	802024a6 <mini_vsnprintf+0xf4>
/home/caigoubencai/Desktop/os_c/kernel/lib/printk.c:133
                    if (ch == '\0') goto end;
    80202454:	fef44783          	lbu	a5,-17(s0)
    80202458:	0ff7f793          	andi	a5,a5,255
    8020245c:	26078e63          	beqz	a5,802026d8 <mini_vsnprintf+0x326>
/home/caigoubencai/Desktop/os_c/kernel/lib/printk.c:134
                    if (ch >= '0' && ch <= '9') {
    80202460:	fef44783          	lbu	a5,-17(s0)
    80202464:	0ff7f713          	andi	a4,a5,255
    80202468:	02f00793          	li	a5,47
    8020246c:	04e7fc63          	bgeu	a5,a4,802024c4 <mini_vsnprintf+0x112>
/home/caigoubencai/Desktop/os_c/kernel/lib/printk.c:134 (discriminator 1)
    80202470:	fef44783          	lbu	a5,-17(s0)
    80202474:	0ff7f713          	andi	a4,a5,255
    80202478:	03900793          	li	a5,57
    8020247c:	04e7e463          	bltu	a5,a4,802024c4 <mini_vsnprintf+0x112>
/home/caigoubencai/Desktop/os_c/kernel/lib/printk.c:135
                        zero_pad = zero_pad * 10 + ch - '0';
    80202480:	fee44703          	lbu	a4,-18(s0)
    80202484:	87ba                	mv	a5,a4
    80202486:	0027979b          	slliw	a5,a5,0x2
    8020248a:	9fb9                	addw	a5,a5,a4
    8020248c:	0017979b          	slliw	a5,a5,0x1
    80202490:	0ff7f793          	andi	a5,a5,255
    80202494:	fef44703          	lbu	a4,-17(s0)
    80202498:	9fb9                	addw	a5,a5,a4
    8020249a:	0ff7f793          	andi	a5,a5,255
    8020249e:	fd07879b          	addiw	a5,a5,-48
    802024a2:	fef40723          	sb	a5,-18(s0)
/home/caigoubencai/Desktop/os_c/kernel/lib/printk.c:132
                while ((ch = *(fmt++))) {
    802024a6:	f8843783          	ld	a5,-120(s0)
    802024aa:	00178713          	addi	a4,a5,1
    802024ae:	f8e43423          	sd	a4,-120(s0)
    802024b2:	0007c783          	lbu	a5,0(a5)
    802024b6:	fef407a3          	sb	a5,-17(s0)
    802024ba:	fef44783          	lbu	a5,-17(s0)
    802024be:	0ff7f793          	andi	a5,a5,255
    802024c2:	fbc9                	bnez	a5,80202454 <mini_vsnprintf+0xa2>
/home/caigoubencai/Desktop/os_c/kernel/lib/printk.c:141
                    } else {
                        break;
                    }
                }
            }
            if (ch == 'l') {
    802024c4:	fef44783          	lbu	a5,-17(s0)
    802024c8:	0ff7f713          	andi	a4,a5,255
    802024cc:	06c00793          	li	a5,108
    802024d0:	00f71f63          	bne	a4,a5,802024ee <mini_vsnprintf+0x13c>
/home/caigoubencai/Desktop/os_c/kernel/lib/printk.c:142
                longflag = 1;
    802024d4:	4785                	li	a5,1
    802024d6:	fef42423          	sw	a5,-24(s0)
/home/caigoubencai/Desktop/os_c/kernel/lib/printk.c:143
                ch = *(fmt++);
    802024da:	f8843783          	ld	a5,-120(s0)
    802024de:	00178713          	addi	a4,a5,1
    802024e2:	f8e43423          	sd	a4,-120(s0)
    802024e6:	0007c783          	lbu	a5,0(a5)
    802024ea:	fef407a3          	sb	a5,-17(s0)
/home/caigoubencai/Desktop/os_c/kernel/lib/printk.c:146
            }

            switch (ch) {
    802024ee:	fef44783          	lbu	a5,-17(s0)
    802024f2:	2781                	sext.w	a5,a5
    802024f4:	1e078463          	beqz	a5,802026dc <mini_vsnprintf+0x32a>
    802024f8:	873e                	mv	a4,a5
    802024fa:	1a074263          	bltz	a4,8020269e <mini_vsnprintf+0x2ec>
    802024fe:	86be                	mv	a3,a5
    80202500:	07800713          	li	a4,120
    80202504:	18d74d63          	blt	a4,a3,8020269e <mini_vsnprintf+0x2ec>
    80202508:	86be                	mv	a3,a5
    8020250a:	05800713          	li	a4,88
    8020250e:	18e6c863          	blt	a3,a4,8020269e <mini_vsnprintf+0x2ec>
    80202512:	fa87869b          	addiw	a3,a5,-88
    80202516:	0006871b          	sext.w	a4,a3
    8020251a:	02000793          	li	a5,32
    8020251e:	18e7e063          	bltu	a5,a4,8020269e <mini_vsnprintf+0x2ec>
    80202522:	02069793          	slli	a5,a3,0x20
    80202526:	9381                	srli	a5,a5,0x20
    80202528:	00279713          	slli	a4,a5,0x2
    8020252c:	00007797          	auipc	a5,0x7
    80202530:	ad478793          	addi	a5,a5,-1324 # 80209000 <etext>
    80202534:	97ba                	add	a5,a5,a4
    80202536:	439c                	lw	a5,0(a5)
    80202538:	0007871b          	sext.w	a4,a5
    8020253c:	00007797          	auipc	a5,0x7
    80202540:	ac478793          	addi	a5,a5,-1340 # 80209000 <etext>
    80202544:	97ba                	add	a5,a5,a4
    80202546:	8782                	jr	a5
/home/caigoubencai/Desktop/os_c/kernel/lib/printk.c:151
                case 0:
                    goto end;

                case 'l':
                    longflag = 1;
    80202548:	4785                	li	a5,1
    8020254a:	fef42423          	sw	a5,-24(s0)
/home/caigoubencai/Desktop/os_c/kernel/lib/printk.c:152
                    break;
    8020254e:	a295                	j	802026b2 <mini_vsnprintf+0x300>
/home/caigoubencai/Desktop/os_c/kernel/lib/printk.c:156

                case 'u':
                case 'd':
                    len = mini_itoa(
    80202550:	fe842783          	lw	a5,-24(s0)
    80202554:	2781                	sext.w	a5,a5
    80202556:	ef81                	bnez	a5,8020256e <mini_vsnprintf+0x1bc>
/home/caigoubencai/Desktop/os_c/kernel/lib/printk.c:157
                        longflag == 0 ? (unsigned long)va_arg(
    80202558:	f8043783          	ld	a5,-128(s0)
    8020255c:	00878713          	addi	a4,a5,8
    80202560:	f8e43023          	sd	a4,-128(s0)
    80202564:	439c                	lw	a5,0(a5)
/home/caigoubencai/Desktop/os_c/kernel/lib/printk.c:156
                    len = mini_itoa(
    80202566:	02079513          	slli	a0,a5,0x20
    8020256a:	9101                	srli	a0,a0,0x20
    8020256c:	a809                	j	8020257e <mini_vsnprintf+0x1cc>
/home/caigoubencai/Desktop/os_c/kernel/lib/printk.c:159
                                            va, unsigned int) :
                                        va_arg(va, unsigned long),
    8020256e:	f8043783          	ld	a5,-128(s0)
    80202572:	00878713          	addi	a4,a5,8
    80202576:	f8e43023          	sd	a4,-128(s0)
    8020257a:	639c                	ld	a5,0(a5)
/home/caigoubencai/Desktop/os_c/kernel/lib/printk.c:156
                    len = mini_itoa(
    8020257c:	853e                	mv	a0,a5
/home/caigoubencai/Desktop/os_c/kernel/lib/printk.c:156 (discriminator 4)
    8020257e:	fef44783          	lbu	a5,-17(s0)
    80202582:	0007871b          	sext.w	a4,a5
    80202586:	07500793          	li	a5,117
    8020258a:	40f707b3          	sub	a5,a4,a5
    8020258e:	0017b793          	seqz	a5,a5
    80202592:	0ff7f793          	andi	a5,a5,255
    80202596:	0007869b          	sext.w	a3,a5
    8020259a:	fee44783          	lbu	a5,-18(s0)
    8020259e:	2781                	sext.w	a5,a5
    802025a0:	fa840713          	addi	a4,s0,-88
    802025a4:	4601                	li	a2,0
    802025a6:	45a9                	li	a1,10
    802025a8:	ac9ff0ef          	jal	ra,80202070 <mini_itoa>
    802025ac:	87aa                	mv	a5,a0
    802025ae:	fcf42e23          	sw	a5,-36(s0)
/home/caigoubencai/Desktop/os_c/kernel/lib/printk.c:161 (discriminator 4)
                        10, 0, (ch == 'u'), bf, zero_pad);
                    _puts(bf, len, &b);
    802025b2:	fc040693          	addi	a3,s0,-64
    802025b6:	fdc42703          	lw	a4,-36(s0)
    802025ba:	fa840793          	addi	a5,s0,-88
    802025be:	8636                	mv	a2,a3
    802025c0:	85ba                	mv	a1,a4
    802025c2:	853e                	mv	a0,a5
    802025c4:	d39ff0ef          	jal	ra,802022fc <_puts>
/home/caigoubencai/Desktop/os_c/kernel/lib/printk.c:162 (discriminator 4)
                    longflag = 0;
    802025c8:	fe042423          	sw	zero,-24(s0)
/home/caigoubencai/Desktop/os_c/kernel/lib/printk.c:163 (discriminator 4)
                    break;
    802025cc:	a0dd                	j	802026b2 <mini_vsnprintf+0x300>
/home/caigoubencai/Desktop/os_c/kernel/lib/printk.c:166
                case 'x':
                case 'X':
                    len = mini_itoa(
    802025ce:	fe842783          	lw	a5,-24(s0)
    802025d2:	2781                	sext.w	a5,a5
    802025d4:	ef81                	bnez	a5,802025ec <mini_vsnprintf+0x23a>
/home/caigoubencai/Desktop/os_c/kernel/lib/printk.c:167
                        longflag == 0 ? (unsigned long)va_arg(
    802025d6:	f8043783          	ld	a5,-128(s0)
    802025da:	00878713          	addi	a4,a5,8
    802025de:	f8e43023          	sd	a4,-128(s0)
    802025e2:	439c                	lw	a5,0(a5)
/home/caigoubencai/Desktop/os_c/kernel/lib/printk.c:166
                    len = mini_itoa(
    802025e4:	02079513          	slli	a0,a5,0x20
    802025e8:	9101                	srli	a0,a0,0x20
    802025ea:	a809                	j	802025fc <mini_vsnprintf+0x24a>
/home/caigoubencai/Desktop/os_c/kernel/lib/printk.c:169
                                            va, unsigned int) :
                                        va_arg(va, unsigned long),
    802025ec:	f8043783          	ld	a5,-128(s0)
    802025f0:	00878713          	addi	a4,a5,8
    802025f4:	f8e43023          	sd	a4,-128(s0)
    802025f8:	639c                	ld	a5,0(a5)
/home/caigoubencai/Desktop/os_c/kernel/lib/printk.c:166
                    len = mini_itoa(
    802025fa:	853e                	mv	a0,a5
/home/caigoubencai/Desktop/os_c/kernel/lib/printk.c:166 (discriminator 4)
    802025fc:	fef44783          	lbu	a5,-17(s0)
    80202600:	0007871b          	sext.w	a4,a5
    80202604:	05800793          	li	a5,88
    80202608:	40f707b3          	sub	a5,a4,a5
    8020260c:	0017b793          	seqz	a5,a5
    80202610:	0ff7f793          	andi	a5,a5,255
    80202614:	0007861b          	sext.w	a2,a5
    80202618:	fee44783          	lbu	a5,-18(s0)
    8020261c:	2781                	sext.w	a5,a5
    8020261e:	fa840713          	addi	a4,s0,-88
    80202622:	4685                	li	a3,1
    80202624:	45c1                	li	a1,16
    80202626:	a4bff0ef          	jal	ra,80202070 <mini_itoa>
    8020262a:	87aa                	mv	a5,a0
    8020262c:	fcf42e23          	sw	a5,-36(s0)
/home/caigoubencai/Desktop/os_c/kernel/lib/printk.c:171 (discriminator 4)
                        16, (ch == 'X'), 1, bf, zero_pad);
                    _puts(bf, len, &b);
    80202630:	fc040693          	addi	a3,s0,-64
    80202634:	fdc42703          	lw	a4,-36(s0)
    80202638:	fa840793          	addi	a5,s0,-88
    8020263c:	8636                	mv	a2,a3
    8020263e:	85ba                	mv	a1,a4
    80202640:	853e                	mv	a0,a5
    80202642:	cbbff0ef          	jal	ra,802022fc <_puts>
/home/caigoubencai/Desktop/os_c/kernel/lib/printk.c:172 (discriminator 4)
                    longflag = 0;
    80202646:	fe042423          	sw	zero,-24(s0)
/home/caigoubencai/Desktop/os_c/kernel/lib/printk.c:173 (discriminator 4)
                    break;
    8020264a:	a0a5                	j	802026b2 <mini_vsnprintf+0x300>
/home/caigoubencai/Desktop/os_c/kernel/lib/printk.c:176

                case 'c':
                    _putc((char)(va_arg(va, int)), &b);
    8020264c:	f8043783          	ld	a5,-128(s0)
    80202650:	00878713          	addi	a4,a5,8
    80202654:	f8e43023          	sd	a4,-128(s0)
    80202658:	439c                	lw	a5,0(a5)
    8020265a:	0ff7f793          	andi	a5,a5,255
    8020265e:	2781                	sext.w	a5,a5
    80202660:	fc040713          	addi	a4,s0,-64
    80202664:	85ba                	mv	a1,a4
    80202666:	853e                	mv	a0,a5
    80202668:	c2fff0ef          	jal	ra,80202296 <_putc>
/home/caigoubencai/Desktop/os_c/kernel/lib/printk.c:177
                    break;
    8020266c:	a099                	j	802026b2 <mini_vsnprintf+0x300>
/home/caigoubencai/Desktop/os_c/kernel/lib/printk.c:180

                case 's':
                    ptr = va_arg(va, char *);
    8020266e:	f8043783          	ld	a5,-128(s0)
    80202672:	00878713          	addi	a4,a5,8
    80202676:	f8e43023          	sd	a4,-128(s0)
    8020267a:	639c                	ld	a5,0(a5)
    8020267c:	fef43023          	sd	a5,-32(s0)
/home/caigoubencai/Desktop/os_c/kernel/lib/printk.c:181
                    _puts(ptr, mini_strlen(ptr), &b);
    80202680:	fe043503          	ld	a0,-32(s0)
    80202684:	9b7ff0ef          	jal	ra,8020203a <mini_strlen>
    80202688:	87aa                	mv	a5,a0
    8020268a:	2781                	sext.w	a5,a5
    8020268c:	fc040713          	addi	a4,s0,-64
    80202690:	863a                	mv	a2,a4
    80202692:	85be                	mv	a1,a5
    80202694:	fe043503          	ld	a0,-32(s0)
    80202698:	c65ff0ef          	jal	ra,802022fc <_puts>
/home/caigoubencai/Desktop/os_c/kernel/lib/printk.c:182
                    break;
    8020269c:	a819                	j	802026b2 <mini_vsnprintf+0x300>
/home/caigoubencai/Desktop/os_c/kernel/lib/printk.c:185

                default:
                    _putc(ch, &b);
    8020269e:	fef44783          	lbu	a5,-17(s0)
    802026a2:	2781                	sext.w	a5,a5
    802026a4:	fc040713          	addi	a4,s0,-64
    802026a8:	85ba                	mv	a1,a4
    802026aa:	853e                	mv	a0,a5
    802026ac:	bebff0ef          	jal	ra,80202296 <_putc>
/home/caigoubencai/Desktop/os_c/kernel/lib/printk.c:186
                    break;
    802026b0:	0001                	nop
/home/caigoubencai/Desktop/os_c/kernel/lib/printk.c:116
    while ((ch = *(fmt++))) {
    802026b2:	f8843783          	ld	a5,-120(s0)
    802026b6:	00178713          	addi	a4,a5,1
    802026ba:	f8e43423          	sd	a4,-120(s0)
    802026be:	0007c783          	lbu	a5,0(a5)
    802026c2:	fef407a3          	sb	a5,-17(s0)
    802026c6:	fef44783          	lbu	a5,-17(s0)
    802026ca:	0ff7f793          	andi	a5,a5,255
    802026ce:	d0079ce3          	bnez	a5,802023e6 <mini_vsnprintf+0x34>
/home/caigoubencai/Desktop/os_c/kernel/lib/printk.c:190
            }
        }
    }
end:
    802026d2:	a031                	j	802026de <mini_vsnprintf+0x32c>
/home/caigoubencai/Desktop/os_c/kernel/lib/printk.c:119
            break;
    802026d4:	0001                	nop
    802026d6:	a021                	j	802026de <mini_vsnprintf+0x32c>
/home/caigoubencai/Desktop/os_c/kernel/lib/printk.c:133
                    if (ch == '\0') goto end;
    802026d8:	0001                	nop
    802026da:	a011                	j	802026de <mini_vsnprintf+0x32c>
/home/caigoubencai/Desktop/os_c/kernel/lib/printk.c:148
                    goto end;
    802026dc:	0001                	nop
/home/caigoubencai/Desktop/os_c/kernel/lib/printk.c:191
    return b.pbuffer - b.buffer;
    802026de:	fc843703          	ld	a4,-56(s0)
    802026e2:	fc043783          	ld	a5,-64(s0)
    802026e6:	40f707b3          	sub	a5,a4,a5
    802026ea:	2781                	sext.w	a5,a5
/home/caigoubencai/Desktop/os_c/kernel/lib/printk.c:192
}
    802026ec:	853e                	mv	a0,a5
    802026ee:	70e6                	ld	ra,120(sp)
    802026f0:	7446                	ld	s0,112(sp)
    802026f2:	6109                	addi	sp,sp,128
    802026f4:	8082                	ret

00000000802026f6 <_vprintk>:
_vprintk():
/home/caigoubencai/Desktop/os_c/kernel/lib/printk.c:196

static int _vprintk(const char* fmt, va_list _va,
                   void (*output)(char*))
{
    802026f6:	7129                	addi	sp,sp,-320
    802026f8:	fe06                	sd	ra,312(sp)
    802026fa:	fa22                	sd	s0,304(sp)
    802026fc:	0280                	addi	s0,sp,320
    802026fe:	eca43c23          	sd	a0,-296(s0)
    80202702:	ecb43823          	sd	a1,-304(s0)
    80202706:	ecc43423          	sd	a2,-312(s0)
/home/caigoubencai/Desktop/os_c/kernel/lib/printk.c:198
    va_list va;
    va_copy(va, _va);
    8020270a:	ed043783          	ld	a5,-304(s0)
    8020270e:	fef43023          	sd	a5,-32(s0)
/home/caigoubencai/Desktop/os_c/kernel/lib/printk.c:203

    int ret;
    char buff[256];

    ret = mini_vsnprintf(buff, 256, fmt, va);
    80202712:	fe043703          	ld	a4,-32(s0)
    80202716:	ee040793          	addi	a5,s0,-288
    8020271a:	86ba                	mv	a3,a4
    8020271c:	ed843603          	ld	a2,-296(s0)
    80202720:	10000593          	li	a1,256
    80202724:	853e                	mv	a0,a5
    80202726:	c8dff0ef          	jal	ra,802023b2 <mini_vsnprintf>
    8020272a:	87aa                	mv	a5,a0
    8020272c:	fef42623          	sw	a5,-20(s0)
/home/caigoubencai/Desktop/os_c/kernel/lib/printk.c:205

    buff[ret] = '\0';
    80202730:	fec42783          	lw	a5,-20(s0)
    80202734:	ff040713          	addi	a4,s0,-16
    80202738:	97ba                	add	a5,a5,a4
    8020273a:	ee078823          	sb	zero,-272(a5)
/home/caigoubencai/Desktop/os_c/kernel/lib/printk.c:210

    // disable_preempt();
    
    // 在此处调用sbi，output
    output(buff);
    8020273e:	ee040793          	addi	a5,s0,-288
    80202742:	ec843703          	ld	a4,-312(s0)
    80202746:	853e                	mv	a0,a5
    80202748:	9702                	jalr	a4
/home/caigoubencai/Desktop/os_c/kernel/lib/printk.c:225
    //     }
    // }

    // enable_preempt();

    return ret;
    8020274a:	fec42783          	lw	a5,-20(s0)
/home/caigoubencai/Desktop/os_c/kernel/lib/printk.c:226
}
    8020274e:	853e                	mv	a0,a5
    80202750:	70f2                	ld	ra,312(sp)
    80202752:	7452                	ld	s0,304(sp)
    80202754:	6131                	addi	sp,sp,320
    80202756:	8082                	ret

0000000080202758 <_vprints>:
_vprints():
/home/caigoubencai/Desktop/os_c/kernel/lib/printk.c:230

static int _vprints(const char* fmt, va_list _va,
                   void (*output)(char*))
{
    80202758:	7129                	addi	sp,sp,-320
    8020275a:	fe06                	sd	ra,312(sp)
    8020275c:	fa22                	sd	s0,304(sp)
    8020275e:	0280                	addi	s0,sp,320
    80202760:	eca43c23          	sd	a0,-296(s0)
    80202764:	ecb43823          	sd	a1,-304(s0)
    80202768:	ecc43423          	sd	a2,-312(s0)
/home/caigoubencai/Desktop/os_c/kernel/lib/printk.c:232
    va_list va;
    va_copy(va, _va);
    8020276c:	ed043783          	ld	a5,-304(s0)
    80202770:	fef43023          	sd	a5,-32(s0)
/home/caigoubencai/Desktop/os_c/kernel/lib/printk.c:237

    int ret;
    char buff[256];

    ret = mini_vsnprintf(buff, 256, fmt, va);
    80202774:	fe043703          	ld	a4,-32(s0)
    80202778:	ee040793          	addi	a5,s0,-288
    8020277c:	86ba                	mv	a3,a4
    8020277e:	ed843603          	ld	a2,-296(s0)
    80202782:	10000593          	li	a1,256
    80202786:	853e                	mv	a0,a5
    80202788:	c2bff0ef          	jal	ra,802023b2 <mini_vsnprintf>
    8020278c:	87aa                	mv	a5,a0
    8020278e:	fef42623          	sw	a5,-20(s0)
/home/caigoubencai/Desktop/os_c/kernel/lib/printk.c:239

    buff[ret] = '\0';
    80202792:	fec42783          	lw	a5,-20(s0)
    80202796:	ff040713          	addi	a4,s0,-16
    8020279a:	97ba                	add	a5,a5,a4
    8020279c:	ee078823          	sb	zero,-272(a5)
/home/caigoubencai/Desktop/os_c/kernel/lib/printk.c:245


    // disable_preempt();

    // 在此处调用sbi，output
    output(buff);
    802027a0:	ee040793          	addi	a5,s0,-288
    802027a4:	ec843703          	ld	a4,-312(s0)
    802027a8:	853e                	mv	a0,a5
    802027aa:	9702                	jalr	a4
/home/caigoubencai/Desktop/os_c/kernel/lib/printk.c:249

    // enable_preempt();

    return ret;
    802027ac:	fec42783          	lw	a5,-20(s0)
/home/caigoubencai/Desktop/os_c/kernel/lib/printk.c:250
}
    802027b0:	853e                	mv	a0,a5
    802027b2:	70f2                	ld	ra,312(sp)
    802027b4:	7452                	ld	s0,304(sp)
    802027b6:	6131                	addi	sp,sp,320
    802027b8:	8082                	ret

00000000802027ba <vprintk>:
vprintk():
/home/caigoubencai/Desktop/os_c/kernel/lib/printk.c:254


int vprintk(const char *fmt, va_list _va)
{
    802027ba:	1101                	addi	sp,sp,-32
    802027bc:	ec06                	sd	ra,24(sp)
    802027be:	e822                	sd	s0,16(sp)
    802027c0:	1000                	addi	s0,sp,32
    802027c2:	fea43423          	sd	a0,-24(s0)
    802027c6:	feb43023          	sd	a1,-32(s0)
/home/caigoubencai/Desktop/os_c/kernel/lib/printk.c:255
    return _vprintk(fmt, _va, port_write);
    802027ca:	00000617          	auipc	a2,0x0
    802027ce:	83660613          	addi	a2,a2,-1994 # 80202000 <port_write>
    802027d2:	fe043583          	ld	a1,-32(s0)
    802027d6:	fe843503          	ld	a0,-24(s0)
    802027da:	f1dff0ef          	jal	ra,802026f6 <_vprintk>
    802027de:	87aa                	mv	a5,a0
/home/caigoubencai/Desktop/os_c/kernel/lib/printk.c:256
}
    802027e0:	853e                	mv	a0,a5
    802027e2:	60e2                	ld	ra,24(sp)
    802027e4:	6442                	ld	s0,16(sp)
    802027e6:	6105                	addi	sp,sp,32
    802027e8:	8082                	ret

00000000802027ea <printk>:
printk():
/home/caigoubencai/Desktop/os_c/kernel/lib/printk.c:259

int printk(const char *fmt, ...)
{
    802027ea:	7159                	addi	sp,sp,-112
    802027ec:	f406                	sd	ra,40(sp)
    802027ee:	f022                	sd	s0,32(sp)
    802027f0:	1800                	addi	s0,sp,48
    802027f2:	fca43c23          	sd	a0,-40(s0)
    802027f6:	e40c                	sd	a1,8(s0)
    802027f8:	e810                	sd	a2,16(s0)
    802027fa:	ec14                	sd	a3,24(s0)
    802027fc:	f018                	sd	a4,32(s0)
    802027fe:	f41c                	sd	a5,40(s0)
    80202800:	03043823          	sd	a6,48(s0)
    80202804:	03143c23          	sd	a7,56(s0)
/home/caigoubencai/Desktop/os_c/kernel/lib/printk.c:260
    int ret = 0;
    80202808:	fe042623          	sw	zero,-20(s0)
/home/caigoubencai/Desktop/os_c/kernel/lib/printk.c:263
    va_list va;

    va_start(va, fmt);
    8020280c:	04040793          	addi	a5,s0,64
    80202810:	fcf43823          	sd	a5,-48(s0)
    80202814:	fd043783          	ld	a5,-48(s0)
    80202818:	fc878793          	addi	a5,a5,-56
    8020281c:	fef43023          	sd	a5,-32(s0)
/home/caigoubencai/Desktop/os_c/kernel/lib/printk.c:264
    ret = vprintk(fmt, va);
    80202820:	fe043783          	ld	a5,-32(s0)
    80202824:	85be                	mv	a1,a5
    80202826:	fd843503          	ld	a0,-40(s0)
    8020282a:	f91ff0ef          	jal	ra,802027ba <vprintk>
    8020282e:	87aa                	mv	a5,a0
    80202830:	fef42623          	sw	a5,-20(s0)
/home/caigoubencai/Desktop/os_c/kernel/lib/printk.c:267
    va_end(va);

    return ret;
    80202834:	fec42783          	lw	a5,-20(s0)
/home/caigoubencai/Desktop/os_c/kernel/lib/printk.c:268
}
    80202838:	853e                	mv	a0,a5
    8020283a:	70a2                	ld	ra,40(sp)
    8020283c:	7402                	ld	s0,32(sp)
    8020283e:	6165                	addi	sp,sp,112
    80202840:	8082                	ret

0000000080202842 <_vprintk_port>:
_vprintk_port():
/home/caigoubencai/Desktop/os_c/kernel/lib/printk.c:274

/* for port output, direct output */

static int _vprintk_port(const char* fmt, va_list _va,
                   void (*output)(char*))
{
    80202842:	7129                	addi	sp,sp,-320
    80202844:	fe06                	sd	ra,312(sp)
    80202846:	fa22                	sd	s0,304(sp)
    80202848:	0280                	addi	s0,sp,320
    8020284a:	eca43c23          	sd	a0,-296(s0)
    8020284e:	ecb43823          	sd	a1,-304(s0)
    80202852:	ecc43423          	sd	a2,-312(s0)
/home/caigoubencai/Desktop/os_c/kernel/lib/printk.c:276
    va_list va;
    va_copy(va, _va);
    80202856:	ed043783          	ld	a5,-304(s0)
    8020285a:	fef43023          	sd	a5,-32(s0)
/home/caigoubencai/Desktop/os_c/kernel/lib/printk.c:281

    int ret;
    char buff[256];

    ret = mini_vsnprintf(buff, 256, fmt, va);
    8020285e:	fe043703          	ld	a4,-32(s0)
    80202862:	ee040793          	addi	a5,s0,-288
    80202866:	86ba                	mv	a3,a4
    80202868:	ed843603          	ld	a2,-296(s0)
    8020286c:	10000593          	li	a1,256
    80202870:	853e                	mv	a0,a5
    80202872:	b41ff0ef          	jal	ra,802023b2 <mini_vsnprintf>
    80202876:	87aa                	mv	a5,a0
    80202878:	fef42623          	sw	a5,-20(s0)
/home/caigoubencai/Desktop/os_c/kernel/lib/printk.c:283

    buff[ret] = '\0';
    8020287c:	fec42783          	lw	a5,-20(s0)
    80202880:	ff040713          	addi	a4,s0,-16
    80202884:	97ba                	add	a5,a5,a4
    80202886:	ee078823          	sb	zero,-272(a5)
/home/caigoubencai/Desktop/os_c/kernel/lib/printk.c:292
    // 在此处调用sbi，output
    // port_write(buff);

    // enable_preempt();

    return ret;
    8020288a:	fec42783          	lw	a5,-20(s0)
/home/caigoubencai/Desktop/os_c/kernel/lib/printk.c:293
}
    8020288e:	853e                	mv	a0,a5
    80202890:	70f2                	ld	ra,312(sp)
    80202892:	7452                	ld	s0,304(sp)
    80202894:	6131                	addi	sp,sp,320
    80202896:	8082                	ret

0000000080202898 <vprintk_port>:
vprintk_port():
/home/caigoubencai/Desktop/os_c/kernel/lib/printk.c:297


int vprintk_port(const char *fmt, va_list _va)
{
    80202898:	1101                	addi	sp,sp,-32
    8020289a:	ec06                	sd	ra,24(sp)
    8020289c:	e822                	sd	s0,16(sp)
    8020289e:	1000                	addi	s0,sp,32
    802028a0:	fea43423          	sd	a0,-24(s0)
    802028a4:	feb43023          	sd	a1,-32(s0)
/home/caigoubencai/Desktop/os_c/kernel/lib/printk.c:298
    return _vprintk_port(fmt, _va, port_write);
    802028a8:	fffff617          	auipc	a2,0xfffff
    802028ac:	75860613          	addi	a2,a2,1880 # 80202000 <port_write>
    802028b0:	fe043583          	ld	a1,-32(s0)
    802028b4:	fe843503          	ld	a0,-24(s0)
    802028b8:	f8bff0ef          	jal	ra,80202842 <_vprintk_port>
    802028bc:	87aa                	mv	a5,a0
/home/caigoubencai/Desktop/os_c/kernel/lib/printk.c:299
}
    802028be:	853e                	mv	a0,a5
    802028c0:	60e2                	ld	ra,24(sp)
    802028c2:	6442                	ld	s0,16(sp)
    802028c4:	6105                	addi	sp,sp,32
    802028c6:	8082                	ret

00000000802028c8 <printk_port>:
printk_port():
/home/caigoubencai/Desktop/os_c/kernel/lib/printk.c:302

uint32_t printk_port(const char *fmt, ...)
{
    802028c8:	7159                	addi	sp,sp,-112
    802028ca:	f406                	sd	ra,40(sp)
    802028cc:	f022                	sd	s0,32(sp)
    802028ce:	1800                	addi	s0,sp,48
    802028d0:	fca43c23          	sd	a0,-40(s0)
    802028d4:	e40c                	sd	a1,8(s0)
    802028d6:	e810                	sd	a2,16(s0)
    802028d8:	ec14                	sd	a3,24(s0)
    802028da:	f018                	sd	a4,32(s0)
    802028dc:	f41c                	sd	a5,40(s0)
    802028de:	03043823          	sd	a6,48(s0)
    802028e2:	03143c23          	sd	a7,56(s0)
/home/caigoubencai/Desktop/os_c/kernel/lib/printk.c:303
    uint32_t ret = 0;
    802028e6:	fe042623          	sw	zero,-20(s0)
/home/caigoubencai/Desktop/os_c/kernel/lib/printk.c:306
    va_list va;

    va_start(va, fmt);
    802028ea:	04040793          	addi	a5,s0,64
    802028ee:	fcf43823          	sd	a5,-48(s0)
    802028f2:	fd043783          	ld	a5,-48(s0)
    802028f6:	fc878793          	addi	a5,a5,-56
    802028fa:	fef43023          	sd	a5,-32(s0)
/home/caigoubencai/Desktop/os_c/kernel/lib/printk.c:307
    ret = vprintk_port(fmt, va);
    802028fe:	fe043783          	ld	a5,-32(s0)
    80202902:	85be                	mv	a1,a5
    80202904:	fd843503          	ld	a0,-40(s0)
    80202908:	f91ff0ef          	jal	ra,80202898 <vprintk_port>
    8020290c:	87aa                	mv	a5,a0
    8020290e:	fef42623          	sw	a5,-20(s0)
/home/caigoubencai/Desktop/os_c/kernel/lib/printk.c:310
    va_end(va);

    return ret;
    80202912:	fec42783          	lw	a5,-20(s0)
/home/caigoubencai/Desktop/os_c/kernel/lib/printk.c:311
    80202916:	853e                	mv	a0,a5
    80202918:	70a2                	ld	ra,40(sp)
    8020291a:	7402                	ld	s0,32(sp)
    8020291c:	6165                	addi	sp,sp,112
    8020291e:	8082                	ret

0000000080202920 <clear_bss>:
clear_bss():
/home/caigoubencai/Desktop/os_c/kernel/main.c:15
#include "loader.h"
#include "processor.h"
#include "taskmanager.h"
extern uint8_t sbss, ebss;

void clear_bss() {
    80202920:	1101                	addi	sp,sp,-32
    80202922:	ec22                	sd	s0,24(sp)
    80202924:	1000                	addi	s0,sp,32
/home/caigoubencai/Desktop/os_c/kernel/main.c:16
  for (uint8_t *i = &sbss; i < &ebss; i++) {
    80202926:	0001f797          	auipc	a5,0x1f
    8020292a:	6da78793          	addi	a5,a5,1754 # 80222000 <ticks>
    8020292e:	fef43423          	sd	a5,-24(s0)
    80202932:	a811                	j	80202946 <clear_bss+0x26>
/home/caigoubencai/Desktop/os_c/kernel/main.c:17 (discriminator 3)
    *i = 0;
    80202934:	fe843783          	ld	a5,-24(s0)
    80202938:	00078023          	sb	zero,0(a5)
/home/caigoubencai/Desktop/os_c/kernel/main.c:16 (discriminator 3)
  for (uint8_t *i = &sbss; i < &ebss; i++) {
    8020293c:	fe843783          	ld	a5,-24(s0)
    80202940:	0785                	addi	a5,a5,1
    80202942:	fef43423          	sd	a5,-24(s0)
/home/caigoubencai/Desktop/os_c/kernel/main.c:16 (discriminator 1)
    80202946:	fe843703          	ld	a4,-24(s0)
    8020294a:	00b23797          	auipc	a5,0xb23
    8020294e:	6b678793          	addi	a5,a5,1718 # 80d26000 <ebss>
    80202952:	fef761e3          	bltu	a4,a5,80202934 <clear_bss+0x14>
/home/caigoubencai/Desktop/os_c/kernel/main.c:19
  }
}
    80202956:	0001                	nop
    80202958:	0001                	nop
    8020295a:	6462                	ld	s0,24(sp)
    8020295c:	6105                	addi	sp,sp,32
    8020295e:	8082                	ret

0000000080202960 <main_os>:
main_os():
/home/caigoubencai/Desktop/os_c/kernel/main.c:21
int main_os()
{
    80202960:	1141                	addi	sp,sp,-16
    80202962:	e406                	sd	ra,8(sp)
    80202964:	e022                	sd	s0,0(sp)
    80202966:	0800                	addi	s0,sp,16
/home/caigoubencai/Desktop/os_c/kernel/main.c:22
    mm_init();
    80202968:	321020ef          	jal	ra,80205488 <mm_init>
/home/caigoubencai/Desktop/os_c/kernel/main.c:23
    printk("123%d\n",123);
    8020296c:	07b00593          	li	a1,123
    80202970:	00006517          	auipc	a0,0x6
    80202974:	72850513          	addi	a0,a0,1832 # 80209098 <MMIO+0x10>
    80202978:	e73ff0ef          	jal	ra,802027ea <printk>
/home/caigoubencai/Desktop/os_c/kernel/main.c:24
    init_trap();
    8020297c:	152050ef          	jal	ra,80207ace <init_trap>
/home/caigoubencai/Desktop/os_c/kernel/main.c:25
    timer_init();
    80202980:	4c0050ef          	jal	ra,80207e40 <timer_init>
/home/caigoubencai/Desktop/os_c/kernel/main.c:26
    loader_init_and_list_apps();
    80202984:	2b1040ef          	jal	ra,80207434 <loader_init_and_list_apps>
/home/caigoubencai/Desktop/os_c/kernel/main.c:27
    taks_init();
    80202988:	164040ef          	jal	ra,80206aec <taks_init>
/home/caigoubencai/Desktop/os_c/kernel/main.c:28
    task_manager_add_2_initproc();
    8020298c:	1b2040ef          	jal	ra,80206b3e <task_manager_add_2_initproc>
/home/caigoubencai/Desktop/os_c/kernel/main.c:29
    processor_run_tasks();
    80202990:	059040ef          	jal	ra,802071e8 <processor_run_tasks>
/home/caigoubencai/Desktop/os_c/kernel/main.c:38
    // processor_init(&PROCESSOR);
    // task_manager_init_2();
    // task_manager_add_2_initproc();
    // //run_first_app();
    // processor_run_tasks();
    ASSERT(0);
    80202994:	00006617          	auipc	a2,0x6
    80202998:	70c60613          	addi	a2,a2,1804 # 802090a0 <MMIO+0x18>
    8020299c:	02600593          	li	a1,38
    802029a0:	00006517          	auipc	a0,0x6
    802029a4:	71850513          	addi	a0,a0,1816 # 802090b8 <MMIO+0x30>
    802029a8:	4f1030ef          	jal	ra,80206698 <_panic>
/home/caigoubencai/Desktop/os_c/kernel/main.c:39
    802029ac:	0001                	nop
    802029ae:	853e                	mv	a0,a5
    802029b0:	60a2                	ld	ra,8(sp)
    802029b2:	6402                	ld	s0,0(sp)
    802029b4:	0141                	addi	sp,sp,16
    802029b6:	8082                	ret

00000000802029b8 <elf_load_sections_loop>:
elf_load_sections_loop():
/home/caigoubencai/Desktop/os_c/kernel/elf/elf_load_sections.c:18

/*
** traverse the section header table and load each section
*/
static int elf_load_sections_loop(t_elf *elf, size_t shoff, size_t shnum,
                                  size_t shentsize) {
    802029b8:	715d                	addi	sp,sp,-80
    802029ba:	e486                	sd	ra,72(sp)
    802029bc:	e0a2                	sd	s0,64(sp)
    802029be:	0880                	addi	s0,sp,80
    802029c0:	fca43423          	sd	a0,-56(s0)
    802029c4:	fcb43023          	sd	a1,-64(s0)
    802029c8:	fac43c23          	sd	a2,-72(s0)
    802029cc:	fad43823          	sd	a3,-80(s0)
/home/caigoubencai/Desktop/os_c/kernel/elf/elf_load_sections.c:23
  size_t i;
  size_t content_offset;
  uint32_t type;

  i = 0;
    802029d0:	fe043423          	sd	zero,-24(s0)
/home/caigoubencai/Desktop/os_c/kernel/elf/elf_load_sections.c:24
  while (i < shnum) {
    802029d4:	a0dd                	j	80202aba <elf_load_sections_loop+0x102>
/home/caigoubencai/Desktop/os_c/kernel/elf/elf_load_sections.c:25
    if (i >= MAX_SECTION_NUM) {
    802029d6:	fe843703          	ld	a4,-24(s0)
    802029da:	03f00793          	li	a5,63
    802029de:	00e7f463          	bgeu	a5,a4,802029e6 <elf_load_sections_loop+0x2e>
/home/caigoubencai/Desktop/os_c/kernel/elf/elf_load_sections.c:26
      return (-1);
    802029e2:	57fd                	li	a5,-1
    802029e4:	a0d5                	j	80202ac8 <elf_load_sections_loop+0x110>
/home/caigoubencai/Desktop/os_c/kernel/elf/elf_load_sections.c:29
    }
    elf->sections[i].header =
        (union u_elf_sh *)(elf->raw_data + shoff + i * shentsize);
    802029e6:	fc843783          	ld	a5,-56(s0)
    802029ea:	6798                	ld	a4,8(a5)
    802029ec:	fe843683          	ld	a3,-24(s0)
    802029f0:	fb043783          	ld	a5,-80(s0)
    802029f4:	02f686b3          	mul	a3,a3,a5
    802029f8:	fc043783          	ld	a5,-64(s0)
    802029fc:	97b6                	add	a5,a5,a3
    802029fe:	973e                	add	a4,a4,a5
/home/caigoubencai/Desktop/os_c/kernel/elf/elf_load_sections.c:28
    elf->sections[i].header =
    80202a00:	fc843683          	ld	a3,-56(s0)
    80202a04:	fe843783          	ld	a5,-24(s0)
    80202a08:	0789                	addi	a5,a5,2
    80202a0a:	0792                	slli	a5,a5,0x4
    80202a0c:	97b6                	add	a5,a5,a3
    80202a0e:	e798                	sd	a4,8(a5)
/home/caigoubencai/Desktop/os_c/kernel/elf/elf_load_sections.c:30
    type = elf_section_get_type(elf, &elf->sections[i]);
    80202a10:	fe843783          	ld	a5,-24(s0)
    80202a14:	0789                	addi	a5,a5,2
    80202a16:	0792                	slli	a5,a5,0x4
    80202a18:	fc843703          	ld	a4,-56(s0)
    80202a1c:	97ba                	add	a5,a5,a4
    80202a1e:	07a1                	addi	a5,a5,8
    80202a20:	85be                	mv	a1,a5
    80202a22:	fc843503          	ld	a0,-56(s0)
    80202a26:	576000ef          	jal	ra,80202f9c <elf_section_get_type>
    80202a2a:	87aa                	mv	a5,a0
    80202a2c:	fef42223          	sw	a5,-28(s0)
/home/caigoubencai/Desktop/os_c/kernel/elf/elf_load_sections.c:31
    if (type != SHT_NULL && type != SHT_NOBITS) {
    80202a30:	fe442783          	lw	a5,-28(s0)
    80202a34:	2781                	sext.w	a5,a5
    80202a36:	cfad                	beqz	a5,80202ab0 <elf_load_sections_loop+0xf8>
/home/caigoubencai/Desktop/os_c/kernel/elf/elf_load_sections.c:31 (discriminator 1)
    80202a38:	fe442783          	lw	a5,-28(s0)
    80202a3c:	0007871b          	sext.w	a4,a5
    80202a40:	47a1                	li	a5,8
    80202a42:	06f70763          	beq	a4,a5,80202ab0 <elf_load_sections_loop+0xf8>
/home/caigoubencai/Desktop/os_c/kernel/elf/elf_load_sections.c:32
      content_offset = elf_section_get_offset(elf, &elf->sections[i]);
    80202a46:	fe843783          	ld	a5,-24(s0)
    80202a4a:	0789                	addi	a5,a5,2
    80202a4c:	0792                	slli	a5,a5,0x4
    80202a4e:	fc843703          	ld	a4,-56(s0)
    80202a52:	97ba                	add	a5,a5,a4
    80202a54:	07a1                	addi	a5,a5,8
    80202a56:	85be                	mv	a1,a5
    80202a58:	fc843503          	ld	a0,-56(s0)
    80202a5c:	584000ef          	jal	ra,80202fe0 <elf_section_get_offset>
    80202a60:	fca43c23          	sd	a0,-40(s0)
/home/caigoubencai/Desktop/os_c/kernel/elf/elf_load_sections.c:33
      if (content_offset + elf_section_get_size(elf, &elf->sections[i]) >
    80202a64:	fe843783          	ld	a5,-24(s0)
    80202a68:	0789                	addi	a5,a5,2
    80202a6a:	0792                	slli	a5,a5,0x4
    80202a6c:	fc843703          	ld	a4,-56(s0)
    80202a70:	97ba                	add	a5,a5,a4
    80202a72:	07a1                	addi	a5,a5,8
    80202a74:	85be                	mv	a1,a5
    80202a76:	fc843503          	ld	a0,-56(s0)
    80202a7a:	5ae000ef          	jal	ra,80203028 <elf_section_get_size>
    80202a7e:	872a                	mv	a4,a0
    80202a80:	fd843783          	ld	a5,-40(s0)
    80202a84:	973e                	add	a4,a4,a5
/home/caigoubencai/Desktop/os_c/kernel/elf/elf_load_sections.c:34
          elf->size) {
    80202a86:	fc843783          	ld	a5,-56(s0)
    80202a8a:	639c                	ld	a5,0(a5)
/home/caigoubencai/Desktop/os_c/kernel/elf/elf_load_sections.c:33
      if (content_offset + elf_section_get_size(elf, &elf->sections[i]) >
    80202a8c:	00e7f463          	bgeu	a5,a4,80202a94 <elf_load_sections_loop+0xdc>
/home/caigoubencai/Desktop/os_c/kernel/elf/elf_load_sections.c:35
        return (-1);
    80202a90:	57fd                	li	a5,-1
    80202a92:	a81d                	j	80202ac8 <elf_load_sections_loop+0x110>
/home/caigoubencai/Desktop/os_c/kernel/elf/elf_load_sections.c:37
      }
      elf->sections[i].content = elf->raw_data + content_offset;
    80202a94:	fc843783          	ld	a5,-56(s0)
    80202a98:	6798                	ld	a4,8(a5)
    80202a9a:	fd843783          	ld	a5,-40(s0)
    80202a9e:	973e                	add	a4,a4,a5
    80202aa0:	fc843683          	ld	a3,-56(s0)
    80202aa4:	fe843783          	ld	a5,-24(s0)
    80202aa8:	0789                	addi	a5,a5,2
    80202aaa:	0792                	slli	a5,a5,0x4
    80202aac:	97b6                	add	a5,a5,a3
    80202aae:	eb98                	sd	a4,16(a5)
/home/caigoubencai/Desktop/os_c/kernel/elf/elf_load_sections.c:39
    }
    i++;
    80202ab0:	fe843783          	ld	a5,-24(s0)
    80202ab4:	0785                	addi	a5,a5,1
    80202ab6:	fef43423          	sd	a5,-24(s0)
/home/caigoubencai/Desktop/os_c/kernel/elf/elf_load_sections.c:24
  while (i < shnum) {
    80202aba:	fe843703          	ld	a4,-24(s0)
    80202abe:	fb843783          	ld	a5,-72(s0)
    80202ac2:	f0f76ae3          	bltu	a4,a5,802029d6 <elf_load_sections_loop+0x1e>
/home/caigoubencai/Desktop/os_c/kernel/elf/elf_load_sections.c:41
  }
  return (0);
    80202ac6:	4781                	li	a5,0
/home/caigoubencai/Desktop/os_c/kernel/elf/elf_load_sections.c:42
}
    80202ac8:	853e                	mv	a0,a5
    80202aca:	60a6                	ld	ra,72(sp)
    80202acc:	6406                	ld	s0,64(sp)
    80202ace:	6161                	addi	sp,sp,80
    80202ad0:	8082                	ret

0000000080202ad2 <elf_load_sections>:
elf_load_sections():
/home/caigoubencai/Desktop/os_c/kernel/elf/elf_load_sections.c:48

/*
** Load sections. Create a table of t_elf_section in elf->sections.
** This table is null if there is no section header table.
*/
int elf_load_sections(t_elf *elf) {
    80202ad2:	7139                	addi	sp,sp,-64
    80202ad4:	fc06                	sd	ra,56(sp)
    80202ad6:	f822                	sd	s0,48(sp)
    80202ad8:	0080                	addi	s0,sp,64
    80202ada:	fca43423          	sd	a0,-56(s0)
/home/caigoubencai/Desktop/os_c/kernel/elf/elf_load_sections.c:53
  size_t shoff;
  size_t shnum;
  size_t shentsize;

  if ((shoff = elf_header_get_shoff(elf)) > 0) {
    80202ade:	fc843503          	ld	a0,-56(s0)
    80202ae2:	0cc000ef          	jal	ra,80202bae <elf_header_get_shoff>
    80202ae6:	fea43423          	sd	a0,-24(s0)
    80202aea:	fe843783          	ld	a5,-24(s0)
    80202aee:	cfb1                	beqz	a5,80202b4a <elf_load_sections+0x78>
/home/caigoubencai/Desktop/os_c/kernel/elf/elf_load_sections.c:54
    shnum = elf_header_get_shnum(elf);
    80202af0:	fc843503          	ld	a0,-56(s0)
    80202af4:	142000ef          	jal	ra,80202c36 <elf_header_get_shnum>
    80202af8:	fea43023          	sd	a0,-32(s0)
/home/caigoubencai/Desktop/os_c/kernel/elf/elf_load_sections.c:55
    shentsize = elf_header_get_shentsize(elf);
    80202afc:	fc843503          	ld	a0,-56(s0)
    80202b00:	0f2000ef          	jal	ra,80202bf2 <elf_header_get_shentsize>
    80202b04:	fca43c23          	sd	a0,-40(s0)
/home/caigoubencai/Desktop/os_c/kernel/elf/elf_load_sections.c:56
    if (shoff + shnum * shentsize > elf->size) {
    80202b08:	fe043703          	ld	a4,-32(s0)
    80202b0c:	fd843783          	ld	a5,-40(s0)
    80202b10:	02f70733          	mul	a4,a4,a5
    80202b14:	fe843783          	ld	a5,-24(s0)
    80202b18:	973e                	add	a4,a4,a5
    80202b1a:	fc843783          	ld	a5,-56(s0)
    80202b1e:	639c                	ld	a5,0(a5)
    80202b20:	00e7f463          	bgeu	a5,a4,80202b28 <elf_load_sections+0x56>
/home/caigoubencai/Desktop/os_c/kernel/elf/elf_load_sections.c:57
      return (-1);
    80202b24:	57fd                	li	a5,-1
    80202b26:	a82d                	j	80202b60 <elf_load_sections+0x8e>
/home/caigoubencai/Desktop/os_c/kernel/elf/elf_load_sections.c:59
    }
    if (elf_load_sections_loop(elf, shoff, shnum, shentsize) == -1) {
    80202b28:	fd843683          	ld	a3,-40(s0)
    80202b2c:	fe043603          	ld	a2,-32(s0)
    80202b30:	fe843583          	ld	a1,-24(s0)
    80202b34:	fc843503          	ld	a0,-56(s0)
    80202b38:	e81ff0ef          	jal	ra,802029b8 <elf_load_sections_loop>
    80202b3c:	87aa                	mv	a5,a0
    80202b3e:	873e                	mv	a4,a5
    80202b40:	57fd                	li	a5,-1
    80202b42:	00f71e63          	bne	a4,a5,80202b5e <elf_load_sections+0x8c>
/home/caigoubencai/Desktop/os_c/kernel/elf/elf_load_sections.c:60
      return (-1);
    80202b46:	57fd                	li	a5,-1
    80202b48:	a821                	j	80202b60 <elf_load_sections+0x8e>
/home/caigoubencai/Desktop/os_c/kernel/elf/elf_load_sections.c:63
    }
  } else
    memset(elf->sections, 0, MAX_SECTION_NUM * sizeof(t_elf_section));
    80202b4a:	fc843783          	ld	a5,-56(s0)
    80202b4e:	02878793          	addi	a5,a5,40
    80202b52:	40000613          	li	a2,1024
    80202b56:	4581                	li	a1,0
    80202b58:	853e                	mv	a0,a5
    80202b5a:	437000ef          	jal	ra,80203790 <memset>
/home/caigoubencai/Desktop/os_c/kernel/elf/elf_load_sections.c:64
  return (0);
    80202b5e:	4781                	li	a5,0
/home/caigoubencai/Desktop/os_c/kernel/elf/elf_load_sections.c:65
}
    80202b60:	853e                	mv	a0,a5
    80202b62:	70e2                	ld	ra,56(sp)
    80202b64:	7442                	ld	s0,48(sp)
    80202b66:	6121                	addi	sp,sp,64
    80202b68:	8082                	ret

0000000080202b6a <elf_header_get_entry>:
elf_header_get_entry():
/home/caigoubencai/Desktop/os_c/kernel/elf/elf_header_get.c:14
** Last update Mon Mar 10 20:51:03 2014 Barthelemy Delemotte
*/

#include "elfparse.h"

size_t elf_header_get_entry(t_elf *elf) {
    80202b6a:	7179                	addi	sp,sp,-48
    80202b6c:	f422                	sd	s0,40(sp)
    80202b6e:	1800                	addi	s0,sp,48
    80202b70:	fca43c23          	sd	a0,-40(s0)
/home/caigoubencai/Desktop/os_c/kernel/elf/elf_header_get.c:17
  size_t entry;

  if (ELF_IS_32(elf))
    80202b74:	fd843783          	ld	a5,-40(s0)
    80202b78:	0187c783          	lbu	a5,24(a5)
    80202b7c:	873e                	mv	a4,a5
    80202b7e:	4785                	li	a5,1
    80202b80:	00f71b63          	bne	a4,a5,80202b96 <elf_header_get_entry+0x2c>
/home/caigoubencai/Desktop/os_c/kernel/elf/elf_header_get.c:18
    entry = (size_t)elf->header->_32.e_entry;
    80202b84:	fd843783          	ld	a5,-40(s0)
    80202b88:	739c                	ld	a5,32(a5)
    80202b8a:	4f9c                	lw	a5,24(a5)
    80202b8c:	1782                	slli	a5,a5,0x20
    80202b8e:	9381                	srli	a5,a5,0x20
    80202b90:	fef43423          	sd	a5,-24(s0)
    80202b94:	a039                	j	80202ba2 <elf_header_get_entry+0x38>
/home/caigoubencai/Desktop/os_c/kernel/elf/elf_header_get.c:20
  else
    entry = (size_t)elf->header->_64.e_entry;
    80202b96:	fd843783          	ld	a5,-40(s0)
    80202b9a:	739c                	ld	a5,32(a5)
    80202b9c:	6f9c                	ld	a5,24(a5)
    80202b9e:	fef43423          	sd	a5,-24(s0)
/home/caigoubencai/Desktop/os_c/kernel/elf/elf_header_get.c:21
  return (entry);
    80202ba2:	fe843783          	ld	a5,-24(s0)
/home/caigoubencai/Desktop/os_c/kernel/elf/elf_header_get.c:22
}
    80202ba6:	853e                	mv	a0,a5
    80202ba8:	7422                	ld	s0,40(sp)
    80202baa:	6145                	addi	sp,sp,48
    80202bac:	8082                	ret

0000000080202bae <elf_header_get_shoff>:
elf_header_get_shoff():
/home/caigoubencai/Desktop/os_c/kernel/elf/elf_header_get_sh.c:17
#include "elfparse.h"

/*
** Get the section header table offset
*/
size_t elf_header_get_shoff(t_elf *elf) {
    80202bae:	7179                	addi	sp,sp,-48
    80202bb0:	f422                	sd	s0,40(sp)
    80202bb2:	1800                	addi	s0,sp,48
    80202bb4:	fca43c23          	sd	a0,-40(s0)
/home/caigoubencai/Desktop/os_c/kernel/elf/elf_header_get_sh.c:20
  size_t shoff;

  if (ELF_IS_32(elf))
    80202bb8:	fd843783          	ld	a5,-40(s0)
    80202bbc:	0187c783          	lbu	a5,24(a5)
    80202bc0:	873e                	mv	a4,a5
    80202bc2:	4785                	li	a5,1
    80202bc4:	00f71b63          	bne	a4,a5,80202bda <elf_header_get_shoff+0x2c>
/home/caigoubencai/Desktop/os_c/kernel/elf/elf_header_get_sh.c:21
    shoff = (size_t)elf->header->_32.e_shoff;
    80202bc8:	fd843783          	ld	a5,-40(s0)
    80202bcc:	739c                	ld	a5,32(a5)
    80202bce:	539c                	lw	a5,32(a5)
    80202bd0:	1782                	slli	a5,a5,0x20
    80202bd2:	9381                	srli	a5,a5,0x20
    80202bd4:	fef43423          	sd	a5,-24(s0)
    80202bd8:	a039                	j	80202be6 <elf_header_get_shoff+0x38>
/home/caigoubencai/Desktop/os_c/kernel/elf/elf_header_get_sh.c:23
  else
    shoff = (size_t)elf->header->_64.e_shoff;
    80202bda:	fd843783          	ld	a5,-40(s0)
    80202bde:	739c                	ld	a5,32(a5)
    80202be0:	779c                	ld	a5,40(a5)
    80202be2:	fef43423          	sd	a5,-24(s0)
/home/caigoubencai/Desktop/os_c/kernel/elf/elf_header_get_sh.c:24
  return (shoff);
    80202be6:	fe843783          	ld	a5,-24(s0)
/home/caigoubencai/Desktop/os_c/kernel/elf/elf_header_get_sh.c:25
}
    80202bea:	853e                	mv	a0,a5
    80202bec:	7422                	ld	s0,40(sp)
    80202bee:	6145                	addi	sp,sp,48
    80202bf0:	8082                	ret

0000000080202bf2 <elf_header_get_shentsize>:
elf_header_get_shentsize():
/home/caigoubencai/Desktop/os_c/kernel/elf/elf_header_get_sh.c:30

/*
** Get the size of one section header
*/
size_t elf_header_get_shentsize(t_elf *elf) {
    80202bf2:	7179                	addi	sp,sp,-48
    80202bf4:	f422                	sd	s0,40(sp)
    80202bf6:	1800                	addi	s0,sp,48
    80202bf8:	fca43c23          	sd	a0,-40(s0)
/home/caigoubencai/Desktop/os_c/kernel/elf/elf_header_get_sh.c:33
  size_t shentsize;

  if (ELF_IS_32(elf))
    80202bfc:	fd843783          	ld	a5,-40(s0)
    80202c00:	0187c783          	lbu	a5,24(a5)
    80202c04:	873e                	mv	a4,a5
    80202c06:	4785                	li	a5,1
    80202c08:	00f71a63          	bne	a4,a5,80202c1c <elf_header_get_shentsize+0x2a>
/home/caigoubencai/Desktop/os_c/kernel/elf/elf_header_get_sh.c:34
    shentsize = (size_t)elf->header->_32.e_shentsize;
    80202c0c:	fd843783          	ld	a5,-40(s0)
    80202c10:	739c                	ld	a5,32(a5)
    80202c12:	02e7d783          	lhu	a5,46(a5)
    80202c16:	fef43423          	sd	a5,-24(s0)
    80202c1a:	a801                	j	80202c2a <elf_header_get_shentsize+0x38>
/home/caigoubencai/Desktop/os_c/kernel/elf/elf_header_get_sh.c:36
  else
    shentsize = (size_t)elf->header->_64.e_shentsize;
    80202c1c:	fd843783          	ld	a5,-40(s0)
    80202c20:	739c                	ld	a5,32(a5)
    80202c22:	03a7d783          	lhu	a5,58(a5)
    80202c26:	fef43423          	sd	a5,-24(s0)
/home/caigoubencai/Desktop/os_c/kernel/elf/elf_header_get_sh.c:37
  return (shentsize);
    80202c2a:	fe843783          	ld	a5,-24(s0)
/home/caigoubencai/Desktop/os_c/kernel/elf/elf_header_get_sh.c:38
}
    80202c2e:	853e                	mv	a0,a5
    80202c30:	7422                	ld	s0,40(sp)
    80202c32:	6145                	addi	sp,sp,48
    80202c34:	8082                	ret

0000000080202c36 <elf_header_get_shnum>:
elf_header_get_shnum():
/home/caigoubencai/Desktop/os_c/kernel/elf/elf_header_get_sh.c:43

/*
** Get the number of entry in the section header table
*/
size_t elf_header_get_shnum(t_elf *elf) {
    80202c36:	7179                	addi	sp,sp,-48
    80202c38:	f422                	sd	s0,40(sp)
    80202c3a:	1800                	addi	s0,sp,48
    80202c3c:	fca43c23          	sd	a0,-40(s0)
/home/caigoubencai/Desktop/os_c/kernel/elf/elf_header_get_sh.c:46
  size_t shum;

  if (ELF_IS_32(elf))
    80202c40:	fd843783          	ld	a5,-40(s0)
    80202c44:	0187c783          	lbu	a5,24(a5)
    80202c48:	873e                	mv	a4,a5
    80202c4a:	4785                	li	a5,1
    80202c4c:	00f71a63          	bne	a4,a5,80202c60 <elf_header_get_shnum+0x2a>
/home/caigoubencai/Desktop/os_c/kernel/elf/elf_header_get_sh.c:47
    shum = (size_t)elf->header->_32.e_shnum;
    80202c50:	fd843783          	ld	a5,-40(s0)
    80202c54:	739c                	ld	a5,32(a5)
    80202c56:	0307d783          	lhu	a5,48(a5)
    80202c5a:	fef43423          	sd	a5,-24(s0)
    80202c5e:	a801                	j	80202c6e <elf_header_get_shnum+0x38>
/home/caigoubencai/Desktop/os_c/kernel/elf/elf_header_get_sh.c:49
  else
    shum = (size_t)elf->header->_64.e_shnum;
    80202c60:	fd843783          	ld	a5,-40(s0)
    80202c64:	739c                	ld	a5,32(a5)
    80202c66:	03c7d783          	lhu	a5,60(a5)
    80202c6a:	fef43423          	sd	a5,-24(s0)
/home/caigoubencai/Desktop/os_c/kernel/elf/elf_header_get_sh.c:50
  return (shum);
    80202c6e:	fe843783          	ld	a5,-24(s0)
/home/caigoubencai/Desktop/os_c/kernel/elf/elf_header_get_sh.c:51
}
    80202c72:	853e                	mv	a0,a5
    80202c74:	7422                	ld	s0,40(sp)
    80202c76:	6145                	addi	sp,sp,48
    80202c78:	8082                	ret

0000000080202c7a <elf_program_get_type>:
elf_program_get_type():
/home/caigoubencai/Desktop/os_c/kernel/elf/elf_program_get.c:8
#include "elfparse.h"

/*
** Get the program type.
*/
uint32_t elf_program_get_type(t_elf *elf, t_elf_program *program) {
    80202c7a:	7179                	addi	sp,sp,-48
    80202c7c:	f422                	sd	s0,40(sp)
    80202c7e:	1800                	addi	s0,sp,48
    80202c80:	fca43c23          	sd	a0,-40(s0)
    80202c84:	fcb43823          	sd	a1,-48(s0)
/home/caigoubencai/Desktop/os_c/kernel/elf/elf_program_get.c:11
  uint32_t type;

  if (ELF_IS_32(elf))
    80202c88:	fd843783          	ld	a5,-40(s0)
    80202c8c:	0187c783          	lbu	a5,24(a5)
    80202c90:	873e                	mv	a4,a5
    80202c92:	4785                	li	a5,1
    80202c94:	00f71963          	bne	a4,a5,80202ca6 <elf_program_get_type+0x2c>
/home/caigoubencai/Desktop/os_c/kernel/elf/elf_program_get.c:12
    type = (uint32_t)program->header->_32.p_type;
    80202c98:	fd043783          	ld	a5,-48(s0)
    80202c9c:	639c                	ld	a5,0(a5)
    80202c9e:	439c                	lw	a5,0(a5)
    80202ca0:	fef42623          	sw	a5,-20(s0)
    80202ca4:	a039                	j	80202cb2 <elf_program_get_type+0x38>
/home/caigoubencai/Desktop/os_c/kernel/elf/elf_program_get.c:14
  else
    type = (uint32_t)program->header->_64.p_type;
    80202ca6:	fd043783          	ld	a5,-48(s0)
    80202caa:	639c                	ld	a5,0(a5)
    80202cac:	439c                	lw	a5,0(a5)
    80202cae:	fef42623          	sw	a5,-20(s0)
/home/caigoubencai/Desktop/os_c/kernel/elf/elf_program_get.c:15
  return (type);
    80202cb2:	fec42783          	lw	a5,-20(s0)
/home/caigoubencai/Desktop/os_c/kernel/elf/elf_program_get.c:16
}
    80202cb6:	853e                	mv	a0,a5
    80202cb8:	7422                	ld	s0,40(sp)
    80202cba:	6145                	addi	sp,sp,48
    80202cbc:	8082                	ret

0000000080202cbe <elf_program_get_offset>:
elf_program_get_offset():
/home/caigoubencai/Desktop/os_c/kernel/elf/elf_program_get.c:21

/*
** Get the program offset (from the begin of the file)
*/
size_t elf_program_get_offset(t_elf *elf, t_elf_program *program) {
    80202cbe:	7179                	addi	sp,sp,-48
    80202cc0:	f422                	sd	s0,40(sp)
    80202cc2:	1800                	addi	s0,sp,48
    80202cc4:	fca43c23          	sd	a0,-40(s0)
    80202cc8:	fcb43823          	sd	a1,-48(s0)
/home/caigoubencai/Desktop/os_c/kernel/elf/elf_program_get.c:24
  size_t offset;

  if (ELF_IS_32(elf))
    80202ccc:	fd843783          	ld	a5,-40(s0)
    80202cd0:	0187c783          	lbu	a5,24(a5)
    80202cd4:	873e                	mv	a4,a5
    80202cd6:	4785                	li	a5,1
    80202cd8:	00f71b63          	bne	a4,a5,80202cee <elf_program_get_offset+0x30>
/home/caigoubencai/Desktop/os_c/kernel/elf/elf_program_get.c:25
    offset = (size_t)program->header->_32.p_offset;
    80202cdc:	fd043783          	ld	a5,-48(s0)
    80202ce0:	639c                	ld	a5,0(a5)
    80202ce2:	43dc                	lw	a5,4(a5)
    80202ce4:	1782                	slli	a5,a5,0x20
    80202ce6:	9381                	srli	a5,a5,0x20
    80202ce8:	fef43423          	sd	a5,-24(s0)
    80202cec:	a039                	j	80202cfa <elf_program_get_offset+0x3c>
/home/caigoubencai/Desktop/os_c/kernel/elf/elf_program_get.c:27
  else
    offset = (size_t)program->header->_64.p_offset;
    80202cee:	fd043783          	ld	a5,-48(s0)
    80202cf2:	639c                	ld	a5,0(a5)
    80202cf4:	679c                	ld	a5,8(a5)
    80202cf6:	fef43423          	sd	a5,-24(s0)
/home/caigoubencai/Desktop/os_c/kernel/elf/elf_program_get.c:28
  return (offset);
    80202cfa:	fe843783          	ld	a5,-24(s0)
/home/caigoubencai/Desktop/os_c/kernel/elf/elf_program_get.c:29
}
    80202cfe:	853e                	mv	a0,a5
    80202d00:	7422                	ld	s0,40(sp)
    80202d02:	6145                	addi	sp,sp,48
    80202d04:	8082                	ret

0000000080202d06 <elf_program_get_flags>:
elf_program_get_flags():
/home/caigoubencai/Desktop/os_c/kernel/elf/elf_program_get.c:34

/*
** Get the flags of the program
*/
uint64_t elf_program_get_flags(t_elf *elf, t_elf_program *program) {
    80202d06:	7179                	addi	sp,sp,-48
    80202d08:	f422                	sd	s0,40(sp)
    80202d0a:	1800                	addi	s0,sp,48
    80202d0c:	fca43c23          	sd	a0,-40(s0)
    80202d10:	fcb43823          	sd	a1,-48(s0)
/home/caigoubencai/Desktop/os_c/kernel/elf/elf_program_get.c:37
  uint64_t flags;

  if (ELF_IS_32(elf))
    80202d14:	fd843783          	ld	a5,-40(s0)
    80202d18:	0187c783          	lbu	a5,24(a5)
    80202d1c:	873e                	mv	a4,a5
    80202d1e:	4785                	li	a5,1
    80202d20:	00f71b63          	bne	a4,a5,80202d36 <elf_program_get_flags+0x30>
/home/caigoubencai/Desktop/os_c/kernel/elf/elf_program_get.c:38
    flags = (uint64_t)program->header->_32.p_flags;
    80202d24:	fd043783          	ld	a5,-48(s0)
    80202d28:	639c                	ld	a5,0(a5)
    80202d2a:	4f9c                	lw	a5,24(a5)
    80202d2c:	1782                	slli	a5,a5,0x20
    80202d2e:	9381                	srli	a5,a5,0x20
    80202d30:	fef43423          	sd	a5,-24(s0)
    80202d34:	a809                	j	80202d46 <elf_program_get_flags+0x40>
/home/caigoubencai/Desktop/os_c/kernel/elf/elf_program_get.c:40
  else
    flags = (uint64_t)program->header->_64.p_flags;
    80202d36:	fd043783          	ld	a5,-48(s0)
    80202d3a:	639c                	ld	a5,0(a5)
    80202d3c:	43dc                	lw	a5,4(a5)
    80202d3e:	1782                	slli	a5,a5,0x20
    80202d40:	9381                	srli	a5,a5,0x20
    80202d42:	fef43423          	sd	a5,-24(s0)
/home/caigoubencai/Desktop/os_c/kernel/elf/elf_program_get.c:41
  return (flags);
    80202d46:	fe843783          	ld	a5,-24(s0)
/home/caigoubencai/Desktop/os_c/kernel/elf/elf_program_get.c:42
}
    80202d4a:	853e                	mv	a0,a5
    80202d4c:	7422                	ld	s0,40(sp)
    80202d4e:	6145                	addi	sp,sp,48
    80202d50:	8082                	ret

0000000080202d52 <elf_program_get_vaddr>:
elf_program_get_vaddr():
/home/caigoubencai/Desktop/os_c/kernel/elf/elf_program_get.c:47

/*
** Get the virtual address of the program
*/
uint64_t elf_program_get_vaddr(t_elf *elf, t_elf_program *program) {
    80202d52:	7179                	addi	sp,sp,-48
    80202d54:	f422                	sd	s0,40(sp)
    80202d56:	1800                	addi	s0,sp,48
    80202d58:	fca43c23          	sd	a0,-40(s0)
    80202d5c:	fcb43823          	sd	a1,-48(s0)
/home/caigoubencai/Desktop/os_c/kernel/elf/elf_program_get.c:50
  uint64_t addr;

  if (ELF_IS_32(elf))
    80202d60:	fd843783          	ld	a5,-40(s0)
    80202d64:	0187c783          	lbu	a5,24(a5)
    80202d68:	873e                	mv	a4,a5
    80202d6a:	4785                	li	a5,1
    80202d6c:	00f71b63          	bne	a4,a5,80202d82 <elf_program_get_vaddr+0x30>
/home/caigoubencai/Desktop/os_c/kernel/elf/elf_program_get.c:51
    addr = (uint64_t)program->header->_32.p_vaddr;
    80202d70:	fd043783          	ld	a5,-48(s0)
    80202d74:	639c                	ld	a5,0(a5)
    80202d76:	479c                	lw	a5,8(a5)
    80202d78:	1782                	slli	a5,a5,0x20
    80202d7a:	9381                	srli	a5,a5,0x20
    80202d7c:	fef43423          	sd	a5,-24(s0)
    80202d80:	a039                	j	80202d8e <elf_program_get_vaddr+0x3c>
/home/caigoubencai/Desktop/os_c/kernel/elf/elf_program_get.c:53
  else
    addr = (uint64_t)program->header->_64.p_vaddr;
    80202d82:	fd043783          	ld	a5,-48(s0)
    80202d86:	639c                	ld	a5,0(a5)
    80202d88:	6b9c                	ld	a5,16(a5)
    80202d8a:	fef43423          	sd	a5,-24(s0)
/home/caigoubencai/Desktop/os_c/kernel/elf/elf_program_get.c:54
  return (addr);
    80202d8e:	fe843783          	ld	a5,-24(s0)
/home/caigoubencai/Desktop/os_c/kernel/elf/elf_program_get.c:55
}
    80202d92:	853e                	mv	a0,a5
    80202d94:	7422                	ld	s0,40(sp)
    80202d96:	6145                	addi	sp,sp,48
    80202d98:	8082                	ret

0000000080202d9a <elf_program_get_memsz>:
elf_program_get_memsz():
/home/caigoubencai/Desktop/os_c/kernel/elf/elf_program_get.c:60

/*
** Get the memory size of the program
*/
uint64_t elf_program_get_memsz(t_elf *elf, t_elf_program *program) {
    80202d9a:	7179                	addi	sp,sp,-48
    80202d9c:	f422                	sd	s0,40(sp)
    80202d9e:	1800                	addi	s0,sp,48
    80202da0:	fca43c23          	sd	a0,-40(s0)
    80202da4:	fcb43823          	sd	a1,-48(s0)
/home/caigoubencai/Desktop/os_c/kernel/elf/elf_program_get.c:63
  uint64_t addr;

  if (ELF_IS_32(elf))
    80202da8:	fd843783          	ld	a5,-40(s0)
    80202dac:	0187c783          	lbu	a5,24(a5)
    80202db0:	873e                	mv	a4,a5
    80202db2:	4785                	li	a5,1
    80202db4:	00f71b63          	bne	a4,a5,80202dca <elf_program_get_memsz+0x30>
/home/caigoubencai/Desktop/os_c/kernel/elf/elf_program_get.c:64
    addr = (uint64_t)program->header->_32.p_memsz;
    80202db8:	fd043783          	ld	a5,-48(s0)
    80202dbc:	639c                	ld	a5,0(a5)
    80202dbe:	4bdc                	lw	a5,20(a5)
    80202dc0:	1782                	slli	a5,a5,0x20
    80202dc2:	9381                	srli	a5,a5,0x20
    80202dc4:	fef43423          	sd	a5,-24(s0)
    80202dc8:	a039                	j	80202dd6 <elf_program_get_memsz+0x3c>
/home/caigoubencai/Desktop/os_c/kernel/elf/elf_program_get.c:66
  else
    addr = (uint64_t)program->header->_64.p_memsz;
    80202dca:	fd043783          	ld	a5,-48(s0)
    80202dce:	639c                	ld	a5,0(a5)
    80202dd0:	779c                	ld	a5,40(a5)
    80202dd2:	fef43423          	sd	a5,-24(s0)
/home/caigoubencai/Desktop/os_c/kernel/elf/elf_program_get.c:67
  return (addr);
    80202dd6:	fe843783          	ld	a5,-24(s0)
/home/caigoubencai/Desktop/os_c/kernel/elf/elf_program_get.c:68
}
    80202dda:	853e                	mv	a0,a5
    80202ddc:	7422                	ld	s0,40(sp)
    80202dde:	6145                	addi	sp,sp,48
    80202de0:	8082                	ret

0000000080202de2 <elf_program_get_filesz>:
elf_program_get_filesz():
/home/caigoubencai/Desktop/os_c/kernel/elf/elf_program_get.c:73

/*
** Get the file size of the program
*/
uint64_t elf_program_get_filesz(t_elf *elf, t_elf_program *program) {
    80202de2:	7179                	addi	sp,sp,-48
    80202de4:	f422                	sd	s0,40(sp)
    80202de6:	1800                	addi	s0,sp,48
    80202de8:	fca43c23          	sd	a0,-40(s0)
    80202dec:	fcb43823          	sd	a1,-48(s0)
/home/caigoubencai/Desktop/os_c/kernel/elf/elf_program_get.c:76
  uint64_t addr;

  if (ELF_IS_32(elf))
    80202df0:	fd843783          	ld	a5,-40(s0)
    80202df4:	0187c783          	lbu	a5,24(a5)
    80202df8:	873e                	mv	a4,a5
    80202dfa:	4785                	li	a5,1
    80202dfc:	00f71b63          	bne	a4,a5,80202e12 <elf_program_get_filesz+0x30>
/home/caigoubencai/Desktop/os_c/kernel/elf/elf_program_get.c:77
    addr = (uint64_t)program->header->_32.p_filesz;
    80202e00:	fd043783          	ld	a5,-48(s0)
    80202e04:	639c                	ld	a5,0(a5)
    80202e06:	4b9c                	lw	a5,16(a5)
    80202e08:	1782                	slli	a5,a5,0x20
    80202e0a:	9381                	srli	a5,a5,0x20
    80202e0c:	fef43423          	sd	a5,-24(s0)
    80202e10:	a039                	j	80202e1e <elf_program_get_filesz+0x3c>
/home/caigoubencai/Desktop/os_c/kernel/elf/elf_program_get.c:79
  else
    addr = (uint64_t)program->header->_64.p_filesz;
    80202e12:	fd043783          	ld	a5,-48(s0)
    80202e16:	639c                	ld	a5,0(a5)
    80202e18:	739c                	ld	a5,32(a5)
    80202e1a:	fef43423          	sd	a5,-24(s0)
/home/caigoubencai/Desktop/os_c/kernel/elf/elf_program_get.c:80
  return (addr);
    80202e1e:	fe843783          	ld	a5,-24(s0)
/home/caigoubencai/Desktop/os_c/kernel/elf/elf_program_get.c:81
}
    80202e22:	853e                	mv	a0,a5
    80202e24:	7422                	ld	s0,40(sp)
    80202e26:	6145                	addi	sp,sp,48
    80202e28:	8082                	ret

0000000080202e2a <elf_load_ident>:
elf_load_ident():
/home/caigoubencai/Desktop/os_c/kernel/elf/elf_load_header.c:18
#include "string.h"
/*
** Load the identity of the file.
*/
static int elf_load_ident(t_elf *elf) 
{
    80202e2a:	1101                	addi	sp,sp,-32
    80202e2c:	ec06                	sd	ra,24(sp)
    80202e2e:	e822                	sd	s0,16(sp)
    80202e30:	1000                	addi	s0,sp,32
    80202e32:	fea43423          	sd	a0,-24(s0)
/home/caigoubencai/Desktop/os_c/kernel/elf/elf_load_header.c:19
  if (elf->size < EI_NIDENT || memcmp(elf->raw_data, ELFMAG, 4)) {
    80202e36:	fe843783          	ld	a5,-24(s0)
    80202e3a:	6398                	ld	a4,0(a5)
    80202e3c:	47bd                	li	a5,15
    80202e3e:	00e7ff63          	bgeu	a5,a4,80202e5c <elf_load_ident+0x32>
/home/caigoubencai/Desktop/os_c/kernel/elf/elf_load_header.c:19 (discriminator 1)
    80202e42:	fe843783          	ld	a5,-24(s0)
    80202e46:	679c                	ld	a5,8(a5)
    80202e48:	4611                	li	a2,4
    80202e4a:	00006597          	auipc	a1,0x6
    80202e4e:	27e58593          	addi	a1,a1,638 # 802090c8 <MMIO+0x40>
    80202e52:	853e                	mv	a0,a5
    80202e54:	175000ef          	jal	ra,802037c8 <memcmp>
    80202e58:	87aa                	mv	a5,a0
    80202e5a:	c399                	beqz	a5,80202e60 <elf_load_ident+0x36>
/home/caigoubencai/Desktop/os_c/kernel/elf/elf_load_header.c:20
    return (-1);
    80202e5c:	57fd                	li	a5,-1
    80202e5e:	a801                	j	80202e6e <elf_load_ident+0x44>
/home/caigoubencai/Desktop/os_c/kernel/elf/elf_load_header.c:22
  }
  elf->ident = elf->raw_data;
    80202e60:	fe843783          	ld	a5,-24(s0)
    80202e64:	6798                	ld	a4,8(a5)
    80202e66:	fe843783          	ld	a5,-24(s0)
    80202e6a:	eb98                	sd	a4,16(a5)
/home/caigoubencai/Desktop/os_c/kernel/elf/elf_load_header.c:23
  return (0);
    80202e6c:	4781                	li	a5,0
/home/caigoubencai/Desktop/os_c/kernel/elf/elf_load_header.c:24
}
    80202e6e:	853e                	mv	a0,a5
    80202e70:	60e2                	ld	ra,24(sp)
    80202e72:	6442                	ld	s0,16(sp)
    80202e74:	6105                	addi	sp,sp,32
    80202e76:	8082                	ret

0000000080202e78 <elf_load_header>:
elf_load_header():
/home/caigoubencai/Desktop/os_c/kernel/elf/elf_load_header.c:31
/*
** Load the elf header in the elf structure.
** The identity is loaded first. Then, when the file class has been
** reconized, the entire header is loaded in the field 'elf->header'
*/
int elf_load_header(t_elf *elf) {
    80202e78:	1101                	addi	sp,sp,-32
    80202e7a:	ec06                	sd	ra,24(sp)
    80202e7c:	e822                	sd	s0,16(sp)
    80202e7e:	1000                	addi	s0,sp,32
    80202e80:	fea43423          	sd	a0,-24(s0)
/home/caigoubencai/Desktop/os_c/kernel/elf/elf_load_header.c:33
  //printk("eld load_header\n");
  if (elf_load_ident(elf) == -1)
    80202e84:	fe843503          	ld	a0,-24(s0)
    80202e88:	fa3ff0ef          	jal	ra,80202e2a <elf_load_ident>
    80202e8c:	87aa                	mv	a5,a0
    80202e8e:	873e                	mv	a4,a5
    80202e90:	57fd                	li	a5,-1
    80202e92:	00f71463          	bne	a4,a5,80202e9a <elf_load_header+0x22>
/home/caigoubencai/Desktop/os_c/kernel/elf/elf_load_header.c:34
    return (-1);
    80202e96:	57fd                	li	a5,-1
    80202e98:	a059                	j	80202f1e <elf_load_header+0xa6>
/home/caigoubencai/Desktop/os_c/kernel/elf/elf_load_header.c:35
  if ((elf->class = elf->ident[EI_CLASS]) != ELFCLASS32 &&
    80202e9a:	fe843783          	ld	a5,-24(s0)
    80202e9e:	6b9c                	ld	a5,16(a5)
    80202ea0:	0047c703          	lbu	a4,4(a5)
    80202ea4:	fe843783          	ld	a5,-24(s0)
    80202ea8:	00e78c23          	sb	a4,24(a5)
    80202eac:	fe843783          	ld	a5,-24(s0)
    80202eb0:	0187c783          	lbu	a5,24(a5)
    80202eb4:	873e                	mv	a4,a5
    80202eb6:	4785                	li	a5,1
    80202eb8:	00f70c63          	beq	a4,a5,80202ed0 <elf_load_header+0x58>
/home/caigoubencai/Desktop/os_c/kernel/elf/elf_load_header.c:36 (discriminator 1)
      elf->class != ELFCLASS64) {
    80202ebc:	fe843783          	ld	a5,-24(s0)
    80202ec0:	0187c783          	lbu	a5,24(a5)
/home/caigoubencai/Desktop/os_c/kernel/elf/elf_load_header.c:35 (discriminator 1)
  if ((elf->class = elf->ident[EI_CLASS]) != ELFCLASS32 &&
    80202ec4:	873e                	mv	a4,a5
    80202ec6:	4789                	li	a5,2
    80202ec8:	00f70463          	beq	a4,a5,80202ed0 <elf_load_header+0x58>
/home/caigoubencai/Desktop/os_c/kernel/elf/elf_load_header.c:37
    return (-1);
    80202ecc:	57fd                	li	a5,-1
    80202ece:	a881                	j	80202f1e <elf_load_header+0xa6>
/home/caigoubencai/Desktop/os_c/kernel/elf/elf_load_header.c:39
  }
  elf->header = (t_elf_header *)elf->raw_data;
    80202ed0:	fe843783          	ld	a5,-24(s0)
    80202ed4:	6798                	ld	a4,8(a5)
    80202ed6:	fe843783          	ld	a5,-24(s0)
    80202eda:	f398                	sd	a4,32(a5)
/home/caigoubencai/Desktop/os_c/kernel/elf/elf_load_header.c:40
  if ((elf->class == ELFCLASS32 && elf->size < sizeof(Elf32_Ehdr)) ||
    80202edc:	fe843783          	ld	a5,-24(s0)
    80202ee0:	0187c783          	lbu	a5,24(a5)
    80202ee4:	873e                	mv	a4,a5
    80202ee6:	4785                	li	a5,1
    80202ee8:	00f71963          	bne	a4,a5,80202efa <elf_load_header+0x82>
/home/caigoubencai/Desktop/os_c/kernel/elf/elf_load_header.c:40 (discriminator 1)
    80202eec:	fe843783          	ld	a5,-24(s0)
    80202ef0:	6398                	ld	a4,0(a5)
    80202ef2:	03300793          	li	a5,51
    80202ef6:	02e7f163          	bgeu	a5,a4,80202f18 <elf_load_header+0xa0>
/home/caigoubencai/Desktop/os_c/kernel/elf/elf_load_header.c:41 (discriminator 3)
      (elf->class == ELFCLASS64 && elf->size < sizeof(Elf64_Ehdr))) {
    80202efa:	fe843783          	ld	a5,-24(s0)
    80202efe:	0187c783          	lbu	a5,24(a5)
/home/caigoubencai/Desktop/os_c/kernel/elf/elf_load_header.c:40 (discriminator 3)
  if ((elf->class == ELFCLASS32 && elf->size < sizeof(Elf32_Ehdr)) ||
    80202f02:	873e                	mv	a4,a5
    80202f04:	4789                	li	a5,2
    80202f06:	00f71b63          	bne	a4,a5,80202f1c <elf_load_header+0xa4>
/home/caigoubencai/Desktop/os_c/kernel/elf/elf_load_header.c:41
      (elf->class == ELFCLASS64 && elf->size < sizeof(Elf64_Ehdr))) {
    80202f0a:	fe843783          	ld	a5,-24(s0)
    80202f0e:	6398                	ld	a4,0(a5)
    80202f10:	03f00793          	li	a5,63
    80202f14:	00e7e463          	bltu	a5,a4,80202f1c <elf_load_header+0xa4>
/home/caigoubencai/Desktop/os_c/kernel/elf/elf_load_header.c:42
    return (-1);
    80202f18:	57fd                	li	a5,-1
    80202f1a:	a011                	j	80202f1e <elf_load_header+0xa6>
/home/caigoubencai/Desktop/os_c/kernel/elf/elf_load_header.c:45
  }
  //printk("eld load end\n");
  return (0);
    80202f1c:	4781                	li	a5,0
/home/caigoubencai/Desktop/os_c/kernel/elf/elf_load_header.c:46
}
    80202f1e:	853e                	mv	a0,a5
    80202f20:	60e2                	ld	ra,24(sp)
    80202f22:	6442                	ld	s0,16(sp)
    80202f24:	6105                	addi	sp,sp,32
    80202f26:	8082                	ret

0000000080202f28 <elf_load>:
elf_load():
/home/caigoubencai/Desktop/os_c/kernel/elf/elf_load.c:10
/*
** Load the elf file present in the buffer.
** This function is used to parse elf file contained in a static library
** archive.
*/
int elf_load(uint8_t *elf_data, size_t elf_size, t_elf *elf) {
    80202f28:	7179                	addi	sp,sp,-48
    80202f2a:	f406                	sd	ra,40(sp)
    80202f2c:	f022                	sd	s0,32(sp)
    80202f2e:	1800                	addi	s0,sp,48
    80202f30:	fea43423          	sd	a0,-24(s0)
    80202f34:	feb43023          	sd	a1,-32(s0)
    80202f38:	fcc43c23          	sd	a2,-40(s0)
/home/caigoubencai/Desktop/os_c/kernel/elf/elf_load.c:12
  //printk("elf load\n");
  memset(elf, 0, sizeof(t_elf));
    80202f3c:	6785                	lui	a5,0x1
    80202f3e:	82878613          	addi	a2,a5,-2008 # 828 <n+0x808>
    80202f42:	4581                	li	a1,0
    80202f44:	fd843503          	ld	a0,-40(s0)
    80202f48:	049000ef          	jal	ra,80203790 <memset>
/home/caigoubencai/Desktop/os_c/kernel/elf/elf_load.c:13
  elf->size = elf_size;
    80202f4c:	fd843783          	ld	a5,-40(s0)
    80202f50:	fe043703          	ld	a4,-32(s0)
    80202f54:	e398                	sd	a4,0(a5)
/home/caigoubencai/Desktop/os_c/kernel/elf/elf_load.c:14
  elf->raw_data = elf_data;
    80202f56:	fd843783          	ld	a5,-40(s0)
    80202f5a:	fe843703          	ld	a4,-24(s0)
    80202f5e:	e798                	sd	a4,8(a5)
/home/caigoubencai/Desktop/os_c/kernel/elf/elf_load.c:16

  if (elf_load_header(elf) != 0) {
    80202f60:	fd843503          	ld	a0,-40(s0)
    80202f64:	f15ff0ef          	jal	ra,80202e78 <elf_load_header>
    80202f68:	87aa                	mv	a5,a0
    80202f6a:	c399                	beqz	a5,80202f70 <elf_load+0x48>
/home/caigoubencai/Desktop/os_c/kernel/elf/elf_load.c:17
    return -1;
    80202f6c:	57fd                	li	a5,-1
    80202f6e:	a015                	j	80202f92 <elf_load+0x6a>
/home/caigoubencai/Desktop/os_c/kernel/elf/elf_load.c:20
  }

  if (elf_load_sections(elf) != 0) {
    80202f70:	fd843503          	ld	a0,-40(s0)
    80202f74:	b5fff0ef          	jal	ra,80202ad2 <elf_load_sections>
    80202f78:	87aa                	mv	a5,a0
    80202f7a:	c399                	beqz	a5,80202f80 <elf_load+0x58>
/home/caigoubencai/Desktop/os_c/kernel/elf/elf_load.c:21
    return -1;
    80202f7c:	57fd                	li	a5,-1
    80202f7e:	a811                	j	80202f92 <elf_load+0x6a>
/home/caigoubencai/Desktop/os_c/kernel/elf/elf_load.c:24
  }

  if (elf_load_programs(elf) != 0) {
    80202f80:	fd843503          	ld	a0,-40(s0)
    80202f84:	29c000ef          	jal	ra,80203220 <elf_load_programs>
    80202f88:	87aa                	mv	a5,a0
    80202f8a:	c399                	beqz	a5,80202f90 <elf_load+0x68>
/home/caigoubencai/Desktop/os_c/kernel/elf/elf_load.c:25
    return -1;
    80202f8c:	57fd                	li	a5,-1
    80202f8e:	a011                	j	80202f92 <elf_load+0x6a>
/home/caigoubencai/Desktop/os_c/kernel/elf/elf_load.c:28
  }
  //printk("elf load end\n");
  return 0;
    80202f90:	4781                	li	a5,0
/home/caigoubencai/Desktop/os_c/kernel/elf/elf_load.c:29
}
    80202f92:	853e                	mv	a0,a5
    80202f94:	70a2                	ld	ra,40(sp)
    80202f96:	7402                	ld	s0,32(sp)
    80202f98:	6145                	addi	sp,sp,48
    80202f9a:	8082                	ret

0000000080202f9c <elf_section_get_type>:
elf_section_get_type():
/home/caigoubencai/Desktop/os_c/kernel/elf/elf_section_get.c:17
#include "elfparse.h"

/*
** Get the section type.
*/
uint32_t elf_section_get_type(t_elf *elf, t_elf_section *section) {
    80202f9c:	7179                	addi	sp,sp,-48
    80202f9e:	f422                	sd	s0,40(sp)
    80202fa0:	1800                	addi	s0,sp,48
    80202fa2:	fca43c23          	sd	a0,-40(s0)
    80202fa6:	fcb43823          	sd	a1,-48(s0)
/home/caigoubencai/Desktop/os_c/kernel/elf/elf_section_get.c:20
  uint32_t type;

  if (ELF_IS_32(elf))
    80202faa:	fd843783          	ld	a5,-40(s0)
    80202fae:	0187c783          	lbu	a5,24(a5)
    80202fb2:	873e                	mv	a4,a5
    80202fb4:	4785                	li	a5,1
    80202fb6:	00f71963          	bne	a4,a5,80202fc8 <elf_section_get_type+0x2c>
/home/caigoubencai/Desktop/os_c/kernel/elf/elf_section_get.c:21
    type = (uint32_t)section->header->_32.sh_type;
    80202fba:	fd043783          	ld	a5,-48(s0)
    80202fbe:	639c                	ld	a5,0(a5)
    80202fc0:	43dc                	lw	a5,4(a5)
    80202fc2:	fef42623          	sw	a5,-20(s0)
    80202fc6:	a039                	j	80202fd4 <elf_section_get_type+0x38>
/home/caigoubencai/Desktop/os_c/kernel/elf/elf_section_get.c:23
  else
    type = (uint32_t)section->header->_64.sh_type;
    80202fc8:	fd043783          	ld	a5,-48(s0)
    80202fcc:	639c                	ld	a5,0(a5)
    80202fce:	43dc                	lw	a5,4(a5)
    80202fd0:	fef42623          	sw	a5,-20(s0)
/home/caigoubencai/Desktop/os_c/kernel/elf/elf_section_get.c:24
  return (type);
    80202fd4:	fec42783          	lw	a5,-20(s0)
/home/caigoubencai/Desktop/os_c/kernel/elf/elf_section_get.c:25
}
    80202fd8:	853e                	mv	a0,a5
    80202fda:	7422                	ld	s0,40(sp)
    80202fdc:	6145                	addi	sp,sp,48
    80202fde:	8082                	ret

0000000080202fe0 <elf_section_get_offset>:
elf_section_get_offset():
/home/caigoubencai/Desktop/os_c/kernel/elf/elf_section_get.c:30

/*
** Get the section offset (from the begin of the file)
*/
size_t elf_section_get_offset(t_elf *elf, t_elf_section *section) {
    80202fe0:	7179                	addi	sp,sp,-48
    80202fe2:	f422                	sd	s0,40(sp)
    80202fe4:	1800                	addi	s0,sp,48
    80202fe6:	fca43c23          	sd	a0,-40(s0)
    80202fea:	fcb43823          	sd	a1,-48(s0)
/home/caigoubencai/Desktop/os_c/kernel/elf/elf_section_get.c:33
  size_t offset;

  if (ELF_IS_32(elf))
    80202fee:	fd843783          	ld	a5,-40(s0)
    80202ff2:	0187c783          	lbu	a5,24(a5)
    80202ff6:	873e                	mv	a4,a5
    80202ff8:	4785                	li	a5,1
    80202ffa:	00f71b63          	bne	a4,a5,80203010 <elf_section_get_offset+0x30>
/home/caigoubencai/Desktop/os_c/kernel/elf/elf_section_get.c:34
    offset = (size_t)section->header->_32.sh_offset;
    80202ffe:	fd043783          	ld	a5,-48(s0)
    80203002:	639c                	ld	a5,0(a5)
    80203004:	4b9c                	lw	a5,16(a5)
    80203006:	1782                	slli	a5,a5,0x20
    80203008:	9381                	srli	a5,a5,0x20
    8020300a:	fef43423          	sd	a5,-24(s0)
    8020300e:	a039                	j	8020301c <elf_section_get_offset+0x3c>
/home/caigoubencai/Desktop/os_c/kernel/elf/elf_section_get.c:36
  else
    offset = (size_t)section->header->_64.sh_offset;
    80203010:	fd043783          	ld	a5,-48(s0)
    80203014:	639c                	ld	a5,0(a5)
    80203016:	6f9c                	ld	a5,24(a5)
    80203018:	fef43423          	sd	a5,-24(s0)
/home/caigoubencai/Desktop/os_c/kernel/elf/elf_section_get.c:37
  return (offset);
    8020301c:	fe843783          	ld	a5,-24(s0)
/home/caigoubencai/Desktop/os_c/kernel/elf/elf_section_get.c:38
}
    80203020:	853e                	mv	a0,a5
    80203022:	7422                	ld	s0,40(sp)
    80203024:	6145                	addi	sp,sp,48
    80203026:	8082                	ret

0000000080203028 <elf_section_get_size>:
elf_section_get_size():
/home/caigoubencai/Desktop/os_c/kernel/elf/elf_section_get.c:43

/*
** Get the size of the section
*/
size_t elf_section_get_size(t_elf *elf, t_elf_section *section) {
    80203028:	7179                	addi	sp,sp,-48
    8020302a:	f422                	sd	s0,40(sp)
    8020302c:	1800                	addi	s0,sp,48
    8020302e:	fca43c23          	sd	a0,-40(s0)
    80203032:	fcb43823          	sd	a1,-48(s0)
/home/caigoubencai/Desktop/os_c/kernel/elf/elf_section_get.c:46
  size_t size;

  if (ELF_IS_32(elf))
    80203036:	fd843783          	ld	a5,-40(s0)
    8020303a:	0187c783          	lbu	a5,24(a5)
    8020303e:	873e                	mv	a4,a5
    80203040:	4785                	li	a5,1
    80203042:	00f71b63          	bne	a4,a5,80203058 <elf_section_get_size+0x30>
/home/caigoubencai/Desktop/os_c/kernel/elf/elf_section_get.c:47
    size = (size_t)section->header->_32.sh_size;
    80203046:	fd043783          	ld	a5,-48(s0)
    8020304a:	639c                	ld	a5,0(a5)
    8020304c:	4bdc                	lw	a5,20(a5)
    8020304e:	1782                	slli	a5,a5,0x20
    80203050:	9381                	srli	a5,a5,0x20
    80203052:	fef43423          	sd	a5,-24(s0)
    80203056:	a039                	j	80203064 <elf_section_get_size+0x3c>
/home/caigoubencai/Desktop/os_c/kernel/elf/elf_section_get.c:49
  else
    size = (size_t)section->header->_64.sh_size;
    80203058:	fd043783          	ld	a5,-48(s0)
    8020305c:	639c                	ld	a5,0(a5)
    8020305e:	739c                	ld	a5,32(a5)
    80203060:	fef43423          	sd	a5,-24(s0)
/home/caigoubencai/Desktop/os_c/kernel/elf/elf_section_get.c:50
  return (size);
    80203064:	fe843783          	ld	a5,-24(s0)
/home/caigoubencai/Desktop/os_c/kernel/elf/elf_section_get.c:51
}
    80203068:	853e                	mv	a0,a5
    8020306a:	7422                	ld	s0,40(sp)
    8020306c:	6145                	addi	sp,sp,48
    8020306e:	8082                	ret

0000000080203070 <elf_header_get_phoff>:
elf_header_get_phoff():
/home/caigoubencai/Desktop/os_c/kernel/elf/elf_header_get_ph.c:17
#include "elfparse.h"

/*
** Get the program header table offset
*/
size_t elf_header_get_phoff(t_elf *elf) {
    80203070:	7179                	addi	sp,sp,-48
    80203072:	f422                	sd	s0,40(sp)
    80203074:	1800                	addi	s0,sp,48
    80203076:	fca43c23          	sd	a0,-40(s0)
/home/caigoubencai/Desktop/os_c/kernel/elf/elf_header_get_ph.c:20
  size_t phoff;

  if (ELF_IS_32(elf))
    8020307a:	fd843783          	ld	a5,-40(s0)
    8020307e:	0187c783          	lbu	a5,24(a5)
    80203082:	873e                	mv	a4,a5
    80203084:	4785                	li	a5,1
    80203086:	00f71b63          	bne	a4,a5,8020309c <elf_header_get_phoff+0x2c>
/home/caigoubencai/Desktop/os_c/kernel/elf/elf_header_get_ph.c:21
    phoff = (size_t)elf->header->_32.e_phoff;
    8020308a:	fd843783          	ld	a5,-40(s0)
    8020308e:	739c                	ld	a5,32(a5)
    80203090:	4fdc                	lw	a5,28(a5)
    80203092:	1782                	slli	a5,a5,0x20
    80203094:	9381                	srli	a5,a5,0x20
    80203096:	fef43423          	sd	a5,-24(s0)
    8020309a:	a039                	j	802030a8 <elf_header_get_phoff+0x38>
/home/caigoubencai/Desktop/os_c/kernel/elf/elf_header_get_ph.c:23
  else
    phoff = (size_t)elf->header->_64.e_phoff;
    8020309c:	fd843783          	ld	a5,-40(s0)
    802030a0:	739c                	ld	a5,32(a5)
    802030a2:	739c                	ld	a5,32(a5)
    802030a4:	fef43423          	sd	a5,-24(s0)
/home/caigoubencai/Desktop/os_c/kernel/elf/elf_header_get_ph.c:24
  return (phoff);
    802030a8:	fe843783          	ld	a5,-24(s0)
/home/caigoubencai/Desktop/os_c/kernel/elf/elf_header_get_ph.c:25
}
    802030ac:	853e                	mv	a0,a5
    802030ae:	7422                	ld	s0,40(sp)
    802030b0:	6145                	addi	sp,sp,48
    802030b2:	8082                	ret

00000000802030b4 <elf_header_get_phentsize>:
elf_header_get_phentsize():
/home/caigoubencai/Desktop/os_c/kernel/elf/elf_header_get_ph.c:30

/*
** Get the size of one program header
*/
size_t elf_header_get_phentsize(t_elf *elf) {
    802030b4:	7179                	addi	sp,sp,-48
    802030b6:	f422                	sd	s0,40(sp)
    802030b8:	1800                	addi	s0,sp,48
    802030ba:	fca43c23          	sd	a0,-40(s0)
/home/caigoubencai/Desktop/os_c/kernel/elf/elf_header_get_ph.c:33
  size_t phentsize;

  if (ELF_IS_32(elf))
    802030be:	fd843783          	ld	a5,-40(s0)
    802030c2:	0187c783          	lbu	a5,24(a5)
    802030c6:	873e                	mv	a4,a5
    802030c8:	4785                	li	a5,1
    802030ca:	00f71a63          	bne	a4,a5,802030de <elf_header_get_phentsize+0x2a>
/home/caigoubencai/Desktop/os_c/kernel/elf/elf_header_get_ph.c:34
    phentsize = (size_t)elf->header->_32.e_phentsize;
    802030ce:	fd843783          	ld	a5,-40(s0)
    802030d2:	739c                	ld	a5,32(a5)
    802030d4:	02a7d783          	lhu	a5,42(a5)
    802030d8:	fef43423          	sd	a5,-24(s0)
    802030dc:	a801                	j	802030ec <elf_header_get_phentsize+0x38>
/home/caigoubencai/Desktop/os_c/kernel/elf/elf_header_get_ph.c:36
  else
    phentsize = (size_t)elf->header->_64.e_phentsize;
    802030de:	fd843783          	ld	a5,-40(s0)
    802030e2:	739c                	ld	a5,32(a5)
    802030e4:	0367d783          	lhu	a5,54(a5)
    802030e8:	fef43423          	sd	a5,-24(s0)
/home/caigoubencai/Desktop/os_c/kernel/elf/elf_header_get_ph.c:37
  return (phentsize);
    802030ec:	fe843783          	ld	a5,-24(s0)
/home/caigoubencai/Desktop/os_c/kernel/elf/elf_header_get_ph.c:38
}
    802030f0:	853e                	mv	a0,a5
    802030f2:	7422                	ld	s0,40(sp)
    802030f4:	6145                	addi	sp,sp,48
    802030f6:	8082                	ret

00000000802030f8 <elf_header_get_phnum>:
elf_header_get_phnum():
/home/caigoubencai/Desktop/os_c/kernel/elf/elf_header_get_ph.c:43

/*
** Get the number of entry in the program header table
*/
size_t elf_header_get_phnum(t_elf *elf) {
    802030f8:	7179                	addi	sp,sp,-48
    802030fa:	f422                	sd	s0,40(sp)
    802030fc:	1800                	addi	s0,sp,48
    802030fe:	fca43c23          	sd	a0,-40(s0)
/home/caigoubencai/Desktop/os_c/kernel/elf/elf_header_get_ph.c:46
  size_t phnum;

  if (ELF_IS_32(elf))
    80203102:	fd843783          	ld	a5,-40(s0)
    80203106:	0187c783          	lbu	a5,24(a5)
    8020310a:	873e                	mv	a4,a5
    8020310c:	4785                	li	a5,1
    8020310e:	00f71a63          	bne	a4,a5,80203122 <elf_header_get_phnum+0x2a>
/home/caigoubencai/Desktop/os_c/kernel/elf/elf_header_get_ph.c:47
    phnum = (size_t)elf->header->_32.e_phnum;
    80203112:	fd843783          	ld	a5,-40(s0)
    80203116:	739c                	ld	a5,32(a5)
    80203118:	02c7d783          	lhu	a5,44(a5)
    8020311c:	fef43423          	sd	a5,-24(s0)
    80203120:	a801                	j	80203130 <elf_header_get_phnum+0x38>
/home/caigoubencai/Desktop/os_c/kernel/elf/elf_header_get_ph.c:49
  else
    phnum = (size_t)elf->header->_64.e_phnum;
    80203122:	fd843783          	ld	a5,-40(s0)
    80203126:	739c                	ld	a5,32(a5)
    80203128:	0387d783          	lhu	a5,56(a5)
    8020312c:	fef43423          	sd	a5,-24(s0)
/home/caigoubencai/Desktop/os_c/kernel/elf/elf_header_get_ph.c:50
  return (phnum);
    80203130:	fe843783          	ld	a5,-24(s0)
/home/caigoubencai/Desktop/os_c/kernel/elf/elf_header_get_ph.c:51
}
    80203134:	853e                	mv	a0,a5
    80203136:	7422                	ld	s0,40(sp)
    80203138:	6145                	addi	sp,sp,48
    8020313a:	8082                	ret

000000008020313c <elf_load_programs_loop>:
elf_load_programs_loop():
/home/caigoubencai/Desktop/os_c/kernel/elf/elf_load_programs.c:9

/*
** traverse the program header table and load each segment
*/
static int elf_load_programs_loop(t_elf *elf, size_t phoff, size_t phnum,
                                  size_t phentsize) {
    8020313c:	715d                	addi	sp,sp,-80
    8020313e:	e486                	sd	ra,72(sp)
    80203140:	e0a2                	sd	s0,64(sp)
    80203142:	0880                	addi	s0,sp,80
    80203144:	fca43423          	sd	a0,-56(s0)
    80203148:	fcb43023          	sd	a1,-64(s0)
    8020314c:	fac43c23          	sd	a2,-72(s0)
    80203150:	fad43823          	sd	a3,-80(s0)
/home/caigoubencai/Desktop/os_c/kernel/elf/elf_load_programs.c:14
  size_t i;
  size_t content_offset;
  uint32_t type;

  i = 0;
    80203154:	fe043423          	sd	zero,-24(s0)
/home/caigoubencai/Desktop/os_c/kernel/elf/elf_load_programs.c:15
  while (i < phnum) {
    80203158:	a845                	j	80203208 <elf_load_programs_loop+0xcc>
/home/caigoubencai/Desktop/os_c/kernel/elf/elf_load_programs.c:16
    if (i >= MAX_PROGRAM_NUM) {
    8020315a:	fe843703          	ld	a4,-24(s0)
    8020315e:	03f00793          	li	a5,63
    80203162:	00e7f463          	bgeu	a5,a4,8020316a <elf_load_programs_loop+0x2e>
/home/caigoubencai/Desktop/os_c/kernel/elf/elf_load_programs.c:17
      return (-1);
    80203166:	57fd                	li	a5,-1
    80203168:	a07d                	j	80203216 <elf_load_programs_loop+0xda>
/home/caigoubencai/Desktop/os_c/kernel/elf/elf_load_programs.c:20
    }
    elf->programs[i].header =
        (union u_elf_ph *)(elf->raw_data + phoff + i * phentsize);
    8020316a:	fc843783          	ld	a5,-56(s0)
    8020316e:	6798                	ld	a4,8(a5)
    80203170:	fe843683          	ld	a3,-24(s0)
    80203174:	fb043783          	ld	a5,-80(s0)
    80203178:	02f686b3          	mul	a3,a3,a5
    8020317c:	fc043783          	ld	a5,-64(s0)
    80203180:	97b6                	add	a5,a5,a3
    80203182:	973e                	add	a4,a4,a5
/home/caigoubencai/Desktop/os_c/kernel/elf/elf_load_programs.c:19
    elf->programs[i].header =
    80203184:	fc843683          	ld	a3,-56(s0)
    80203188:	fe843783          	ld	a5,-24(s0)
    8020318c:	04278793          	addi	a5,a5,66
    80203190:	0792                	slli	a5,a5,0x4
    80203192:	97b6                	add	a5,a5,a3
    80203194:	e798                	sd	a4,8(a5)
/home/caigoubencai/Desktop/os_c/kernel/elf/elf_load_programs.c:21
    type = elf_program_get_type(elf, &elf->programs[i]);
    80203196:	fe843783          	ld	a5,-24(s0)
    8020319a:	04278793          	addi	a5,a5,66
    8020319e:	0792                	slli	a5,a5,0x4
    802031a0:	fc843703          	ld	a4,-56(s0)
    802031a4:	97ba                	add	a5,a5,a4
    802031a6:	07a1                	addi	a5,a5,8
    802031a8:	85be                	mv	a1,a5
    802031aa:	fc843503          	ld	a0,-56(s0)
    802031ae:	acdff0ef          	jal	ra,80202c7a <elf_program_get_type>
    802031b2:	87aa                	mv	a5,a0
    802031b4:	fef42223          	sw	a5,-28(s0)
/home/caigoubencai/Desktop/os_c/kernel/elf/elf_load_programs.c:22
    if (type != PT_NULL) {
    802031b8:	fe442783          	lw	a5,-28(s0)
    802031bc:	2781                	sext.w	a5,a5
    802031be:	c3a1                	beqz	a5,802031fe <elf_load_programs_loop+0xc2>
/home/caigoubencai/Desktop/os_c/kernel/elf/elf_load_programs.c:23
      content_offset = elf_program_get_offset(elf, &elf->programs[i]);
    802031c0:	fe843783          	ld	a5,-24(s0)
    802031c4:	04278793          	addi	a5,a5,66
    802031c8:	0792                	slli	a5,a5,0x4
    802031ca:	fc843703          	ld	a4,-56(s0)
    802031ce:	97ba                	add	a5,a5,a4
    802031d0:	07a1                	addi	a5,a5,8
    802031d2:	85be                	mv	a1,a5
    802031d4:	fc843503          	ld	a0,-56(s0)
    802031d8:	ae7ff0ef          	jal	ra,80202cbe <elf_program_get_offset>
    802031dc:	fca43c23          	sd	a0,-40(s0)
/home/caigoubencai/Desktop/os_c/kernel/elf/elf_load_programs.c:24
      elf->programs[i].content = elf->raw_data + content_offset;
    802031e0:	fc843783          	ld	a5,-56(s0)
    802031e4:	6798                	ld	a4,8(a5)
    802031e6:	fd843783          	ld	a5,-40(s0)
    802031ea:	973e                	add	a4,a4,a5
    802031ec:	fc843683          	ld	a3,-56(s0)
    802031f0:	fe843783          	ld	a5,-24(s0)
    802031f4:	04278793          	addi	a5,a5,66
    802031f8:	0792                	slli	a5,a5,0x4
    802031fa:	97b6                	add	a5,a5,a3
    802031fc:	eb98                	sd	a4,16(a5)
/home/caigoubencai/Desktop/os_c/kernel/elf/elf_load_programs.c:26
    }
    i++;
    802031fe:	fe843783          	ld	a5,-24(s0)
    80203202:	0785                	addi	a5,a5,1
    80203204:	fef43423          	sd	a5,-24(s0)
/home/caigoubencai/Desktop/os_c/kernel/elf/elf_load_programs.c:15
  while (i < phnum) {
    80203208:	fe843703          	ld	a4,-24(s0)
    8020320c:	fb843783          	ld	a5,-72(s0)
    80203210:	f4f765e3          	bltu	a4,a5,8020315a <elf_load_programs_loop+0x1e>
/home/caigoubencai/Desktop/os_c/kernel/elf/elf_load_programs.c:28
  }
  return (0);
    80203214:	4781                	li	a5,0
/home/caigoubencai/Desktop/os_c/kernel/elf/elf_load_programs.c:29
}
    80203216:	853e                	mv	a0,a5
    80203218:	60a6                	ld	ra,72(sp)
    8020321a:	6406                	ld	s0,64(sp)
    8020321c:	6161                	addi	sp,sp,80
    8020321e:	8082                	ret

0000000080203220 <elf_load_programs>:
elf_load_programs():
/home/caigoubencai/Desktop/os_c/kernel/elf/elf_load_programs.c:35

/*
** Load programs. Create a table of t_elf_program in elf->programs.
** This table is null if there is no program header table.
*/
int elf_load_programs(t_elf *elf) {
    80203220:	7139                	addi	sp,sp,-64
    80203222:	fc06                	sd	ra,56(sp)
    80203224:	f822                	sd	s0,48(sp)
    80203226:	0080                	addi	s0,sp,64
    80203228:	fca43423          	sd	a0,-56(s0)
/home/caigoubencai/Desktop/os_c/kernel/elf/elf_load_programs.c:40
  size_t phoff;
  size_t phnum;
  size_t phentsize;

  if ((phoff = elf_header_get_phoff(elf)) > 0) {
    8020322c:	fc843503          	ld	a0,-56(s0)
    80203230:	e41ff0ef          	jal	ra,80203070 <elf_header_get_phoff>
    80203234:	fea43423          	sd	a0,-24(s0)
    80203238:	fe843783          	ld	a5,-24(s0)
    8020323c:	cfb1                	beqz	a5,80203298 <elf_load_programs+0x78>
/home/caigoubencai/Desktop/os_c/kernel/elf/elf_load_programs.c:41
    phnum = elf_header_get_phnum(elf);
    8020323e:	fc843503          	ld	a0,-56(s0)
    80203242:	eb7ff0ef          	jal	ra,802030f8 <elf_header_get_phnum>
    80203246:	fea43023          	sd	a0,-32(s0)
/home/caigoubencai/Desktop/os_c/kernel/elf/elf_load_programs.c:42
    phentsize = elf_header_get_phentsize(elf);
    8020324a:	fc843503          	ld	a0,-56(s0)
    8020324e:	e67ff0ef          	jal	ra,802030b4 <elf_header_get_phentsize>
    80203252:	fca43c23          	sd	a0,-40(s0)
/home/caigoubencai/Desktop/os_c/kernel/elf/elf_load_programs.c:43
    if (phoff + phnum * phentsize > elf->size) {
    80203256:	fe043703          	ld	a4,-32(s0)
    8020325a:	fd843783          	ld	a5,-40(s0)
    8020325e:	02f70733          	mul	a4,a4,a5
    80203262:	fe843783          	ld	a5,-24(s0)
    80203266:	973e                	add	a4,a4,a5
    80203268:	fc843783          	ld	a5,-56(s0)
    8020326c:	639c                	ld	a5,0(a5)
    8020326e:	00e7f463          	bgeu	a5,a4,80203276 <elf_load_programs+0x56>
/home/caigoubencai/Desktop/os_c/kernel/elf/elf_load_programs.c:44
      return (-1);
    80203272:	57fd                	li	a5,-1
    80203274:	a82d                	j	802032ae <elf_load_programs+0x8e>
/home/caigoubencai/Desktop/os_c/kernel/elf/elf_load_programs.c:46
    }
    if (elf_load_programs_loop(elf, phoff, phnum, phentsize) == -1) {
    80203276:	fd843683          	ld	a3,-40(s0)
    8020327a:	fe043603          	ld	a2,-32(s0)
    8020327e:	fe843583          	ld	a1,-24(s0)
    80203282:	fc843503          	ld	a0,-56(s0)
    80203286:	eb7ff0ef          	jal	ra,8020313c <elf_load_programs_loop>
    8020328a:	87aa                	mv	a5,a0
    8020328c:	873e                	mv	a4,a5
    8020328e:	57fd                	li	a5,-1
    80203290:	00f71e63          	bne	a4,a5,802032ac <elf_load_programs+0x8c>
/home/caigoubencai/Desktop/os_c/kernel/elf/elf_load_programs.c:47
      return (-1);
    80203294:	57fd                	li	a5,-1
    80203296:	a821                	j	802032ae <elf_load_programs+0x8e>
/home/caigoubencai/Desktop/os_c/kernel/elf/elf_load_programs.c:50
    }
  } else
    memset(elf->programs, 0, MAX_PROGRAM_NUM * sizeof(t_elf_program));
    80203298:	fc843783          	ld	a5,-56(s0)
    8020329c:	42878793          	addi	a5,a5,1064
    802032a0:	40000613          	li	a2,1024
    802032a4:	4581                	li	a1,0
    802032a6:	853e                	mv	a0,a5
    802032a8:	4e8000ef          	jal	ra,80203790 <memset>
/home/caigoubencai/Desktop/os_c/kernel/elf/elf_load_programs.c:51
  return (0);
    802032ac:	4781                	li	a5,0
/home/caigoubencai/Desktop/os_c/kernel/elf/elf_load_programs.c:52
}
    802032ae:	853e                	mv	a0,a5
    802032b0:	70e2                	ld	ra,56(sp)
    802032b2:	7442                	ld	s0,48(sp)
    802032b4:	6121                	addi	sp,sp,64
    802032b6:	8082                	ret

00000000802032b8 <sbi_call>:
sbi_call():
/home/caigoubencai/Desktop/os_c/kernel/sbi/sbi.c:16
#define SBI_REMOTE_SFENCE_VMA 6
#define SBI_REMOTE_SFENCE_VMA_ASID 7
#define SBI_SHUTDOWN 8


static inline uint64_t sbi_call(long which, long arg0, long arg1, long arg2) {
    802032b8:	7179                	addi	sp,sp,-48
    802032ba:	f422                	sd	s0,40(sp)
    802032bc:	1800                	addi	s0,sp,48
    802032be:	fea43423          	sd	a0,-24(s0)
    802032c2:	feb43023          	sd	a1,-32(s0)
    802032c6:	fcc43c23          	sd	a2,-40(s0)
    802032ca:	fcd43823          	sd	a3,-48(s0)
/home/caigoubencai/Desktop/os_c/kernel/sbi/sbi.c:17
    register long a0 asm("a0") = arg0;
    802032ce:	fe043503          	ld	a0,-32(s0)
/home/caigoubencai/Desktop/os_c/kernel/sbi/sbi.c:18
    register long a1 asm("a1") = arg1;
    802032d2:	fd843583          	ld	a1,-40(s0)
/home/caigoubencai/Desktop/os_c/kernel/sbi/sbi.c:19
    register long a2 asm("a2") = arg2;
    802032d6:	fd043603          	ld	a2,-48(s0)
/home/caigoubencai/Desktop/os_c/kernel/sbi/sbi.c:20
    register long a7 asm("a7") = which;
    802032da:	fe843883          	ld	a7,-24(s0)
/home/caigoubencai/Desktop/os_c/kernel/sbi/sbi.c:22

    asm volatile("ecall"
    802032de:	00000073          	ecall
/home/caigoubencai/Desktop/os_c/kernel/sbi/sbi.c:27
                 : "+r"(a0)
                 : "r"(a1), "r"(a2), "r"(a7)
                 : "memory");

    return a0;
    802032e2:	87aa                	mv	a5,a0
/home/caigoubencai/Desktop/os_c/kernel/sbi/sbi.c:28
}
    802032e4:	853e                	mv	a0,a5
    802032e6:	7422                	ld	s0,40(sp)
    802032e8:	6145                	addi	sp,sp,48
    802032ea:	8082                	ret

00000000802032ec <console_putchar>:
console_putchar():
/home/caigoubencai/Desktop/os_c/kernel/sbi/sbi.c:30

void console_putchar(uint64_t ch) {
    802032ec:	1101                	addi	sp,sp,-32
    802032ee:	ec06                	sd	ra,24(sp)
    802032f0:	e822                	sd	s0,16(sp)
    802032f2:	1000                	addi	s0,sp,32
    802032f4:	fea43423          	sd	a0,-24(s0)
/home/caigoubencai/Desktop/os_c/kernel/sbi/sbi.c:31
    sbi_call(0x01, ch, 0, 0);
    802032f8:	fe843783          	ld	a5,-24(s0)
    802032fc:	4681                	li	a3,0
    802032fe:	4601                	li	a2,0
    80203300:	85be                	mv	a1,a5
    80203302:	4505                	li	a0,1
    80203304:	fb5ff0ef          	jal	ra,802032b8 <sbi_call>
/home/caigoubencai/Desktop/os_c/kernel/sbi/sbi.c:32
}
    80203308:	0001                	nop
    8020330a:	60e2                	ld	ra,24(sp)
    8020330c:	6442                	ld	s0,16(sp)
    8020330e:	6105                	addi	sp,sp,32
    80203310:	8082                	ret

0000000080203312 <console_getchar>:
console_getchar():
/home/caigoubencai/Desktop/os_c/kernel/sbi/sbi.c:34

uint64_t console_getchar(void) {
    80203312:	1141                	addi	sp,sp,-16
    80203314:	e406                	sd	ra,8(sp)
    80203316:	e022                	sd	s0,0(sp)
    80203318:	0800                	addi	s0,sp,16
/home/caigoubencai/Desktop/os_c/kernel/sbi/sbi.c:35
    return sbi_call(0x02, 0, 0, 0);
    8020331a:	4681                	li	a3,0
    8020331c:	4601                	li	a2,0
    8020331e:	4581                	li	a1,0
    80203320:	4509                	li	a0,2
    80203322:	f97ff0ef          	jal	ra,802032b8 <sbi_call>
    80203326:	87aa                	mv	a5,a0
/home/caigoubencai/Desktop/os_c/kernel/sbi/sbi.c:36
}
    80203328:	853e                	mv	a0,a5
    8020332a:	60a2                	ld	ra,8(sp)
    8020332c:	6402                	ld	s0,0(sp)
    8020332e:	0141                	addi	sp,sp,16
    80203330:	8082                	ret

0000000080203332 <sbi_shutdown>:
sbi_shutdown():
/home/caigoubencai/Desktop/os_c/kernel/sbi/sbi.c:38

uint64_t sbi_shutdown(void) {
    80203332:	1141                	addi	sp,sp,-16
    80203334:	e406                	sd	ra,8(sp)
    80203336:	e022                	sd	s0,0(sp)
    80203338:	0800                	addi	s0,sp,16
/home/caigoubencai/Desktop/os_c/kernel/sbi/sbi.c:39
    return sbi_call(0x08, 0, 0, 0);
    8020333a:	4681                	li	a3,0
    8020333c:	4601                	li	a2,0
    8020333e:	4581                	li	a1,0
    80203340:	4521                	li	a0,8
    80203342:	f77ff0ef          	jal	ra,802032b8 <sbi_call>
    80203346:	87aa                	mv	a5,a0
/home/caigoubencai/Desktop/os_c/kernel/sbi/sbi.c:40
}
    80203348:	853e                	mv	a0,a5
    8020334a:	60a2                	ld	ra,8(sp)
    8020334c:	6402                	ld	s0,0(sp)
    8020334e:	0141                	addi	sp,sp,16
    80203350:	8082                	ret

0000000080203352 <sbi_set_timer>:
sbi_set_timer():
/home/caigoubencai/Desktop/os_c/kernel/sbi/sbi.c:43

uint64_t sbi_set_timer(uint64_t stime_value)
{
    80203352:	1101                	addi	sp,sp,-32
    80203354:	ec06                	sd	ra,24(sp)
    80203356:	e822                	sd	s0,16(sp)
    80203358:	1000                	addi	s0,sp,32
    8020335a:	fea43423          	sd	a0,-24(s0)
/home/caigoubencai/Desktop/os_c/kernel/sbi/sbi.c:44
    return sbi_call(0x00,stime_value,0,0);
    8020335e:	fe843783          	ld	a5,-24(s0)
    80203362:	4681                	li	a3,0
    80203364:	4601                	li	a2,0
    80203366:	85be                	mv	a1,a5
    80203368:	4501                	li	a0,0
    8020336a:	f4fff0ef          	jal	ra,802032b8 <sbi_call>
    8020336e:	87aa                	mv	a5,a0
/home/caigoubencai/Desktop/os_c/kernel/sbi/sbi.c:45
    80203370:	853e                	mv	a0,a5
    80203372:	60e2                	ld	ra,24(sp)
    80203374:	6442                	ld	s0,16(sp)
    80203376:	6105                	addi	sp,sp,32
    80203378:	8082                	ret

000000008020337a <strlen_t>:
strlen_t():
/home/caigoubencai/Desktop/os_c/kernel/string/string.c:6

#include "string.h"


int strlen_t(const char *src)
{
    8020337a:	7179                	addi	sp,sp,-48
    8020337c:	f422                	sd	s0,40(sp)
    8020337e:	1800                	addi	s0,sp,48
    80203380:	fca43c23          	sd	a0,-40(s0)
/home/caigoubencai/Desktop/os_c/kernel/string/string.c:8
    int i;
    for (i = 0; src[i] != '\0'; i++) {
    80203384:	fe042623          	sw	zero,-20(s0)
    80203388:	a031                	j	80203394 <strlen_t+0x1a>
/home/caigoubencai/Desktop/os_c/kernel/string/string.c:8 (discriminator 3)
    8020338a:	fec42783          	lw	a5,-20(s0)
    8020338e:	2785                	addiw	a5,a5,1
    80203390:	fef42623          	sw	a5,-20(s0)
/home/caigoubencai/Desktop/os_c/kernel/string/string.c:8 (discriminator 1)
    80203394:	fec42783          	lw	a5,-20(s0)
    80203398:	fd843703          	ld	a4,-40(s0)
    8020339c:	97ba                	add	a5,a5,a4
    8020339e:	0007c783          	lbu	a5,0(a5)
    802033a2:	f7e5                	bnez	a5,8020338a <strlen_t+0x10>
/home/caigoubencai/Desktop/os_c/kernel/string/string.c:10
    }
    return i;
    802033a4:	fec42783          	lw	a5,-20(s0)
/home/caigoubencai/Desktop/os_c/kernel/string/string.c:11
}
    802033a8:	853e                	mv	a0,a5
    802033aa:	7422                	ld	s0,40(sp)
    802033ac:	6145                	addi	sp,sp,48
    802033ae:	8082                	ret

00000000802033b0 <memcpy_t>:
memcpy_t():
/home/caigoubencai/Desktop/os_c/kernel/string/string.c:14

void memcpy_t(u8 *dest, const u8 *src, u32 len)
{
    802033b0:	7179                	addi	sp,sp,-48
    802033b2:	f422                	sd	s0,40(sp)
    802033b4:	1800                	addi	s0,sp,48
    802033b6:	fea43423          	sd	a0,-24(s0)
    802033ba:	feb43023          	sd	a1,-32(s0)
    802033be:	87b2                	mv	a5,a2
    802033c0:	fcf42e23          	sw	a5,-36(s0)
/home/caigoubencai/Desktop/os_c/kernel/string/string.c:15
    for (; len != 0; len--) {
    802033c4:	a035                	j	802033f0 <memcpy_t+0x40>
/home/caigoubencai/Desktop/os_c/kernel/string/string.c:16 (discriminator 2)
        *dest++ = *src++;
    802033c6:	fe043703          	ld	a4,-32(s0)
    802033ca:	00170793          	addi	a5,a4,1
    802033ce:	fef43023          	sd	a5,-32(s0)
    802033d2:	fe843783          	ld	a5,-24(s0)
    802033d6:	00178693          	addi	a3,a5,1
    802033da:	fed43423          	sd	a3,-24(s0)
    802033de:	00074703          	lbu	a4,0(a4)
    802033e2:	00e78023          	sb	a4,0(a5)
/home/caigoubencai/Desktop/os_c/kernel/string/string.c:15 (discriminator 2)
    for (; len != 0; len--) {
    802033e6:	fdc42783          	lw	a5,-36(s0)
    802033ea:	37fd                	addiw	a5,a5,-1
    802033ec:	fcf42e23          	sw	a5,-36(s0)
/home/caigoubencai/Desktop/os_c/kernel/string/string.c:15 (discriminator 1)
    802033f0:	fdc42783          	lw	a5,-36(s0)
    802033f4:	2781                	sext.w	a5,a5
    802033f6:	fbe1                	bnez	a5,802033c6 <memcpy_t+0x16>
/home/caigoubencai/Desktop/os_c/kernel/string/string.c:18
    }
}
    802033f8:	0001                	nop
    802033fa:	0001                	nop
    802033fc:	7422                	ld	s0,40(sp)
    802033fe:	6145                	addi	sp,sp,48
    80203400:	8082                	ret

0000000080203402 <memcmp_t>:
memcmp_t():
/home/caigoubencai/Desktop/os_c/kernel/string/string.c:21

int memcmp_t(const void *ptr1, const void *ptr2, u32 num)
{
    80203402:	7139                	addi	sp,sp,-64
    80203404:	fc22                	sd	s0,56(sp)
    80203406:	0080                	addi	s0,sp,64
    80203408:	fca43c23          	sd	a0,-40(s0)
    8020340c:	fcb43823          	sd	a1,-48(s0)
    80203410:	87b2                	mv	a5,a2
    80203412:	fcf42623          	sw	a5,-52(s0)
/home/caigoubencai/Desktop/os_c/kernel/string/string.c:22
    for (int i = 0; i < num; ++i) {
    80203416:	fe042623          	sw	zero,-20(s0)
    8020341a:	a8a1                	j	80203472 <memcmp_t+0x70>
/home/caigoubencai/Desktop/os_c/kernel/string/string.c:23
        if (((char*)ptr1)[i] != ((char*)ptr2)[i]) {
    8020341c:	fec42783          	lw	a5,-20(s0)
    80203420:	fd843703          	ld	a4,-40(s0)
    80203424:	97ba                	add	a5,a5,a4
    80203426:	0007c683          	lbu	a3,0(a5)
    8020342a:	fec42783          	lw	a5,-20(s0)
    8020342e:	fd043703          	ld	a4,-48(s0)
    80203432:	97ba                	add	a5,a5,a4
    80203434:	0007c783          	lbu	a5,0(a5)
    80203438:	8736                	mv	a4,a3
    8020343a:	02f70763          	beq	a4,a5,80203468 <memcmp_t+0x66>
/home/caigoubencai/Desktop/os_c/kernel/string/string.c:24
            return ((char*)ptr1)[i] - ((char*)ptr2)[i];
    8020343e:	fec42783          	lw	a5,-20(s0)
    80203442:	fd843703          	ld	a4,-40(s0)
    80203446:	97ba                	add	a5,a5,a4
    80203448:	0007c783          	lbu	a5,0(a5)
    8020344c:	0007871b          	sext.w	a4,a5
    80203450:	fec42783          	lw	a5,-20(s0)
    80203454:	fd043683          	ld	a3,-48(s0)
    80203458:	97b6                	add	a5,a5,a3
    8020345a:	0007c783          	lbu	a5,0(a5)
    8020345e:	2781                	sext.w	a5,a5
    80203460:	40f707bb          	subw	a5,a4,a5
    80203464:	2781                	sext.w	a5,a5
    80203466:	a831                	j	80203482 <memcmp_t+0x80>
/home/caigoubencai/Desktop/os_c/kernel/string/string.c:22 (discriminator 2)
    for (int i = 0; i < num; ++i) {
    80203468:	fec42783          	lw	a5,-20(s0)
    8020346c:	2785                	addiw	a5,a5,1
    8020346e:	fef42623          	sw	a5,-20(s0)
/home/caigoubencai/Desktop/os_c/kernel/string/string.c:22 (discriminator 1)
    80203472:	fec42703          	lw	a4,-20(s0)
    80203476:	fcc42783          	lw	a5,-52(s0)
    8020347a:	2781                	sext.w	a5,a5
    8020347c:	faf760e3          	bltu	a4,a5,8020341c <memcmp_t+0x1a>
/home/caigoubencai/Desktop/os_c/kernel/string/string.c:27
        }
    }
    return 0;
    80203480:	4781                	li	a5,0
/home/caigoubencai/Desktop/os_c/kernel/string/string.c:28
}
    80203482:	853e                	mv	a0,a5
    80203484:	7462                	ld	s0,56(sp)
    80203486:	6121                	addi	sp,sp,64
    80203488:	8082                	ret

000000008020348a <memmove_t>:
memmove_t():
/home/caigoubencai/Desktop/os_c/kernel/string/string.c:31

void memmove_t(u8 *dest, const u8 *src, u32 len)
{
    8020348a:	715d                	addi	sp,sp,-80
    8020348c:	e4a2                	sd	s0,72(sp)
    8020348e:	0880                	addi	s0,sp,80
    80203490:	fca43423          	sd	a0,-56(s0)
    80203494:	fcb43023          	sd	a1,-64(s0)
    80203498:	86b2                	mv	a3,a2
    8020349a:	fad42e23          	sw	a3,-68(s0)
    8020349e:	868a                	mv	a3,sp
    802034a0:	85b6                	mv	a1,a3
/home/caigoubencai/Desktop/os_c/kernel/string/string.c:32
    u8 temp[len];
    802034a2:	fbc42683          	lw	a3,-68(s0)
    802034a6:	02069613          	slli	a2,a3,0x20
    802034aa:	9201                	srli	a2,a2,0x20
    802034ac:	167d                	addi	a2,a2,-1
    802034ae:	fec43423          	sd	a2,-24(s0)
    802034b2:	02069613          	slli	a2,a3,0x20
    802034b6:	9201                	srli	a2,a2,0x20
    802034b8:	8e32                	mv	t3,a2
    802034ba:	4e81                	li	t4,0
    802034bc:	03de5613          	srli	a2,t3,0x3d
    802034c0:	003e9893          	slli	a7,t4,0x3
    802034c4:	011668b3          	or	a7,a2,a7
    802034c8:	003e1813          	slli	a6,t3,0x3
    802034cc:	02069613          	slli	a2,a3,0x20
    802034d0:	9201                	srli	a2,a2,0x20
    802034d2:	8332                	mv	t1,a2
    802034d4:	4381                	li	t2,0
    802034d6:	03d35613          	srli	a2,t1,0x3d
    802034da:	00339793          	slli	a5,t2,0x3
    802034de:	8fd1                	or	a5,a5,a2
    802034e0:	00331713          	slli	a4,t1,0x3
    802034e4:	02069793          	slli	a5,a3,0x20
    802034e8:	9381                	srli	a5,a5,0x20
    802034ea:	07bd                	addi	a5,a5,15
    802034ec:	8391                	srli	a5,a5,0x4
    802034ee:	0792                	slli	a5,a5,0x4
    802034f0:	40f10133          	sub	sp,sp,a5
    802034f4:	878a                	mv	a5,sp
    802034f6:	00078793          	mv	a5,a5
    802034fa:	fef43023          	sd	a5,-32(s0)
/home/caigoubencai/Desktop/os_c/kernel/string/string.c:34
    i32 i;
    for (i = 0; len != 0; len--) {
    802034fe:	fc042e23          	sw	zero,-36(s0)
    80203502:	a02d                	j	8020352c <memmove_t+0xa2>
/home/caigoubencai/Desktop/os_c/kernel/string/string.c:35 (discriminator 3)
        temp[i] = *src++;
    80203504:	fc043783          	ld	a5,-64(s0)
    80203508:	00178713          	addi	a4,a5,1
    8020350c:	fce43023          	sd	a4,-64(s0)
    80203510:	0007c703          	lbu	a4,0(a5)
    80203514:	fe043683          	ld	a3,-32(s0)
    80203518:	fdc42783          	lw	a5,-36(s0)
    8020351c:	97b6                	add	a5,a5,a3
    8020351e:	00e78023          	sb	a4,0(a5)
/home/caigoubencai/Desktop/os_c/kernel/string/string.c:34 (discriminator 3)
    for (i = 0; len != 0; len--) {
    80203522:	fbc42783          	lw	a5,-68(s0)
    80203526:	37fd                	addiw	a5,a5,-1
    80203528:	faf42e23          	sw	a5,-68(s0)
/home/caigoubencai/Desktop/os_c/kernel/string/string.c:34 (discriminator 1)
    8020352c:	fbc42783          	lw	a5,-68(s0)
    80203530:	2781                	sext.w	a5,a5
    80203532:	fbe9                	bnez	a5,80203504 <memmove_t+0x7a>
/home/caigoubencai/Desktop/os_c/kernel/string/string.c:37
    }
    for (; len != 0; len--) {
    80203534:	a02d                	j	8020355e <memmove_t+0xd4>
/home/caigoubencai/Desktop/os_c/kernel/string/string.c:38 (discriminator 2)
        *dest++ = temp[i];
    80203536:	fc843783          	ld	a5,-56(s0)
    8020353a:	00178713          	addi	a4,a5,1
    8020353e:	fce43423          	sd	a4,-56(s0)
    80203542:	fe043683          	ld	a3,-32(s0)
    80203546:	fdc42703          	lw	a4,-36(s0)
    8020354a:	9736                	add	a4,a4,a3
    8020354c:	00074703          	lbu	a4,0(a4)
    80203550:	00e78023          	sb	a4,0(a5)
/home/caigoubencai/Desktop/os_c/kernel/string/string.c:37 (discriminator 2)
    for (; len != 0; len--) {
    80203554:	fbc42783          	lw	a5,-68(s0)
    80203558:	37fd                	addiw	a5,a5,-1
    8020355a:	faf42e23          	sw	a5,-68(s0)
/home/caigoubencai/Desktop/os_c/kernel/string/string.c:37 (discriminator 1)
    8020355e:	fbc42783          	lw	a5,-68(s0)
    80203562:	2781                	sext.w	a5,a5
    80203564:	fbe9                	bnez	a5,80203536 <memmove_t+0xac>
    80203566:	812e                	mv	sp,a1
/home/caigoubencai/Desktop/os_c/kernel/string/string.c:40
    }
}
    80203568:	0001                	nop
    8020356a:	fb040113          	addi	sp,s0,-80
    8020356e:	6426                	ld	s0,72(sp)
    80203570:	6161                	addi	sp,sp,80
    80203572:	8082                	ret

0000000080203574 <memset_t>:
memset_t():
/home/caigoubencai/Desktop/os_c/kernel/string/string.c:43

void memset_t(void *dest, u8 val, u32 len)
{
    80203574:	7179                	addi	sp,sp,-48
    80203576:	f422                	sd	s0,40(sp)
    80203578:	1800                	addi	s0,sp,48
    8020357a:	fca43c23          	sd	a0,-40(s0)
    8020357e:	87ae                	mv	a5,a1
    80203580:	8732                	mv	a4,a2
    80203582:	fcf40ba3          	sb	a5,-41(s0)
    80203586:	87ba                	mv	a5,a4
    80203588:	fcf42823          	sw	a5,-48(s0)
/home/caigoubencai/Desktop/os_c/kernel/string/string.c:44
    u8 *dst = (u8 *)dest;
    8020358c:	fd843783          	ld	a5,-40(s0)
    80203590:	fef43423          	sd	a5,-24(s0)
/home/caigoubencai/Desktop/os_c/kernel/string/string.c:46

    for (; len != 0; len--) 
    80203594:	a005                	j	802035b4 <memset_t+0x40>
/home/caigoubencai/Desktop/os_c/kernel/string/string.c:48 (discriminator 2)
    {
        *dst++ = val;
    80203596:	fe843783          	ld	a5,-24(s0)
    8020359a:	00178713          	addi	a4,a5,1
    8020359e:	fee43423          	sd	a4,-24(s0)
    802035a2:	fd744703          	lbu	a4,-41(s0)
    802035a6:	00e78023          	sb	a4,0(a5)
/home/caigoubencai/Desktop/os_c/kernel/string/string.c:46 (discriminator 2)
    for (; len != 0; len--) 
    802035aa:	fd042783          	lw	a5,-48(s0)
    802035ae:	37fd                	addiw	a5,a5,-1
    802035b0:	fcf42823          	sw	a5,-48(s0)
/home/caigoubencai/Desktop/os_c/kernel/string/string.c:46 (discriminator 1)
    802035b4:	fd042783          	lw	a5,-48(s0)
    802035b8:	2781                	sext.w	a5,a5
    802035ba:	fff1                	bnez	a5,80203596 <memset_t+0x22>
/home/caigoubencai/Desktop/os_c/kernel/string/string.c:50
    }
}
    802035bc:	0001                	nop
    802035be:	0001                	nop
    802035c0:	7422                	ld	s0,40(sp)
    802035c2:	6145                	addi	sp,sp,48
    802035c4:	8082                	ret

00000000802035c6 <bzero_t>:
bzero_t():
/home/caigoubencai/Desktop/os_c/kernel/string/string.c:52

void bzero_t(void *dest, u32 len) { memset_t(dest, 0, len); }
    802035c6:	1101                	addi	sp,sp,-32
    802035c8:	ec06                	sd	ra,24(sp)
    802035ca:	e822                	sd	s0,16(sp)
    802035cc:	1000                	addi	s0,sp,32
    802035ce:	fea43423          	sd	a0,-24(s0)
    802035d2:	87ae                	mv	a5,a1
    802035d4:	fef42223          	sw	a5,-28(s0)
    802035d8:	fe442783          	lw	a5,-28(s0)
    802035dc:	863e                	mv	a2,a5
    802035de:	4581                	li	a1,0
    802035e0:	fe843503          	ld	a0,-24(s0)
    802035e4:	f91ff0ef          	jal	ra,80203574 <memset_t>
    802035e8:	0001                	nop
    802035ea:	60e2                	ld	ra,24(sp)
    802035ec:	6442                	ld	s0,16(sp)
    802035ee:	6105                	addi	sp,sp,32
    802035f0:	8082                	ret

00000000802035f2 <strcmp_t>:
strcmp_t():
/home/caigoubencai/Desktop/os_c/kernel/string/string.c:55

int strcmp_t(const char *str1, const char *str2)
{
    802035f2:	1101                	addi	sp,sp,-32
    802035f4:	ec22                	sd	s0,24(sp)
    802035f6:	1000                	addi	s0,sp,32
    802035f8:	fea43423          	sd	a0,-24(s0)
    802035fc:	feb43023          	sd	a1,-32(s0)
/home/caigoubencai/Desktop/os_c/kernel/string/string.c:56
    while (*str1 && *str2) {
    80203600:	a0a1                	j	80203648 <strcmp_t+0x56>
/home/caigoubencai/Desktop/os_c/kernel/string/string.c:57
        if (*str1 != *str2) {
    80203602:	fe843783          	ld	a5,-24(s0)
    80203606:	0007c703          	lbu	a4,0(a5)
    8020360a:	fe043783          	ld	a5,-32(s0)
    8020360e:	0007c783          	lbu	a5,0(a5)
    80203612:	02f70163          	beq	a4,a5,80203634 <strcmp_t+0x42>
/home/caigoubencai/Desktop/os_c/kernel/string/string.c:58
            return (*str1) - (*str2);
    80203616:	fe843783          	ld	a5,-24(s0)
    8020361a:	0007c783          	lbu	a5,0(a5)
    8020361e:	0007871b          	sext.w	a4,a5
    80203622:	fe043783          	ld	a5,-32(s0)
    80203626:	0007c783          	lbu	a5,0(a5)
    8020362a:	2781                	sext.w	a5,a5
    8020362c:	40f707bb          	subw	a5,a4,a5
    80203630:	2781                	sext.w	a5,a5
    80203632:	a099                	j	80203678 <strcmp_t+0x86>
/home/caigoubencai/Desktop/os_c/kernel/string/string.c:60
        }
        ++str1;
    80203634:	fe843783          	ld	a5,-24(s0)
    80203638:	0785                	addi	a5,a5,1
    8020363a:	fef43423          	sd	a5,-24(s0)
/home/caigoubencai/Desktop/os_c/kernel/string/string.c:61
        ++str2;
    8020363e:	fe043783          	ld	a5,-32(s0)
    80203642:	0785                	addi	a5,a5,1
    80203644:	fef43023          	sd	a5,-32(s0)
/home/caigoubencai/Desktop/os_c/kernel/string/string.c:56
    while (*str1 && *str2) {
    80203648:	fe843783          	ld	a5,-24(s0)
    8020364c:	0007c783          	lbu	a5,0(a5)
    80203650:	c791                	beqz	a5,8020365c <strcmp_t+0x6a>
/home/caigoubencai/Desktop/os_c/kernel/string/string.c:56 (discriminator 1)
    80203652:	fe043783          	ld	a5,-32(s0)
    80203656:	0007c783          	lbu	a5,0(a5)
    8020365a:	f7c5                	bnez	a5,80203602 <strcmp_t+0x10>
/home/caigoubencai/Desktop/os_c/kernel/string/string.c:63
    }
    return (*str1) - (*str2);
    8020365c:	fe843783          	ld	a5,-24(s0)
    80203660:	0007c783          	lbu	a5,0(a5)
    80203664:	0007871b          	sext.w	a4,a5
    80203668:	fe043783          	ld	a5,-32(s0)
    8020366c:	0007c783          	lbu	a5,0(a5)
    80203670:	2781                	sext.w	a5,a5
    80203672:	40f707bb          	subw	a5,a4,a5
    80203676:	2781                	sext.w	a5,a5
/home/caigoubencai/Desktop/os_c/kernel/string/string.c:64
}
    80203678:	853e                	mv	a0,a5
    8020367a:	6462                	ld	s0,24(sp)
    8020367c:	6105                	addi	sp,sp,32
    8020367e:	8082                	ret

0000000080203680 <strcpy_t>:
strcpy_t():
/home/caigoubencai/Desktop/os_c/kernel/string/string.c:67

char *strcpy_t(char *dest, const char *src)
{
    80203680:	7179                	addi	sp,sp,-48
    80203682:	f422                	sd	s0,40(sp)
    80203684:	1800                	addi	s0,sp,48
    80203686:	fca43c23          	sd	a0,-40(s0)
    8020368a:	fcb43823          	sd	a1,-48(s0)
/home/caigoubencai/Desktop/os_c/kernel/string/string.c:68
    char *tmp = dest;
    8020368e:	fd843783          	ld	a5,-40(s0)
    80203692:	fef43423          	sd	a5,-24(s0)
/home/caigoubencai/Desktop/os_c/kernel/string/string.c:70

    while (*src) {
    80203696:	a00d                	j	802036b8 <strcpy_t+0x38>
/home/caigoubencai/Desktop/os_c/kernel/string/string.c:71
        *dest++ = *src++;
    80203698:	fd043703          	ld	a4,-48(s0)
    8020369c:	00170793          	addi	a5,a4,1
    802036a0:	fcf43823          	sd	a5,-48(s0)
    802036a4:	fd843783          	ld	a5,-40(s0)
    802036a8:	00178693          	addi	a3,a5,1
    802036ac:	fcd43c23          	sd	a3,-40(s0)
    802036b0:	00074703          	lbu	a4,0(a4)
    802036b4:	00e78023          	sb	a4,0(a5)
/home/caigoubencai/Desktop/os_c/kernel/string/string.c:70
    while (*src) {
    802036b8:	fd043783          	ld	a5,-48(s0)
    802036bc:	0007c783          	lbu	a5,0(a5)
    802036c0:	ffe1                	bnez	a5,80203698 <strcpy_t+0x18>
/home/caigoubencai/Desktop/os_c/kernel/string/string.c:74
    }

    *dest = '\0';
    802036c2:	fd843783          	ld	a5,-40(s0)
    802036c6:	00078023          	sb	zero,0(a5)
/home/caigoubencai/Desktop/os_c/kernel/string/string.c:76

    return tmp;
    802036ca:	fe843783          	ld	a5,-24(s0)
/home/caigoubencai/Desktop/os_c/kernel/string/string.c:77
}
    802036ce:	853e                	mv	a0,a5
    802036d0:	7422                	ld	s0,40(sp)
    802036d2:	6145                	addi	sp,sp,48
    802036d4:	8082                	ret

00000000802036d6 <strcat_t>:
strcat_t():
/home/caigoubencai/Desktop/os_c/kernel/string/string.c:80

char *strcat_t(char *dest, const char *src)
{
    802036d6:	7179                	addi	sp,sp,-48
    802036d8:	f422                	sd	s0,40(sp)
    802036da:	1800                	addi	s0,sp,48
    802036dc:	fca43c23          	sd	a0,-40(s0)
    802036e0:	fcb43823          	sd	a1,-48(s0)
/home/caigoubencai/Desktop/os_c/kernel/string/string.c:81
    char *tmp = dest;
    802036e4:	fd843783          	ld	a5,-40(s0)
    802036e8:	fef43423          	sd	a5,-24(s0)
/home/caigoubencai/Desktop/os_c/kernel/string/string.c:83

    while (*dest != '\0') { dest++; }
    802036ec:	a031                	j	802036f8 <strcat_t+0x22>
/home/caigoubencai/Desktop/os_c/kernel/string/string.c:83 (discriminator 2)
    802036ee:	fd843783          	ld	a5,-40(s0)
    802036f2:	0785                	addi	a5,a5,1
    802036f4:	fcf43c23          	sd	a5,-40(s0)
/home/caigoubencai/Desktop/os_c/kernel/string/string.c:83 (discriminator 1)
    802036f8:	fd843783          	ld	a5,-40(s0)
    802036fc:	0007c783          	lbu	a5,0(a5)
    80203700:	f7fd                	bnez	a5,802036ee <strcat_t+0x18>
/home/caigoubencai/Desktop/os_c/kernel/string/string.c:84
    while (*src) {
    80203702:	a00d                	j	80203724 <strcat_t+0x4e>
/home/caigoubencai/Desktop/os_c/kernel/string/string.c:85
        *dest++ = *src++;
    80203704:	fd043703          	ld	a4,-48(s0)
    80203708:	00170793          	addi	a5,a4,1
    8020370c:	fcf43823          	sd	a5,-48(s0)
    80203710:	fd843783          	ld	a5,-40(s0)
    80203714:	00178693          	addi	a3,a5,1
    80203718:	fcd43c23          	sd	a3,-40(s0)
    8020371c:	00074703          	lbu	a4,0(a4)
    80203720:	00e78023          	sb	a4,0(a5)
/home/caigoubencai/Desktop/os_c/kernel/string/string.c:84
    while (*src) {
    80203724:	fd043783          	ld	a5,-48(s0)
    80203728:	0007c783          	lbu	a5,0(a5)
    8020372c:	ffe1                	bnez	a5,80203704 <strcat_t+0x2e>
/home/caigoubencai/Desktop/os_c/kernel/string/string.c:88
    }

    *dest = '\0';
    8020372e:	fd843783          	ld	a5,-40(s0)
    80203732:	00078023          	sb	zero,0(a5)
/home/caigoubencai/Desktop/os_c/kernel/string/string.c:90

    return tmp;
    80203736:	fe843783          	ld	a5,-24(s0)
/home/caigoubencai/Desktop/os_c/kernel/string/string.c:91
}
    8020373a:	853e                	mv	a0,a5
    8020373c:	7422                	ld	s0,40(sp)
    8020373e:	6145                	addi	sp,sp,48
    80203740:	8082                	ret

0000000080203742 <memcpy>:
memcpy():
/home/caigoubencai/Desktop/os_c/kernel/string/string.c:94

void memcpy(u8 *dest, const u8 *src, u32 len)
{
    80203742:	7179                	addi	sp,sp,-48
    80203744:	f422                	sd	s0,40(sp)
    80203746:	1800                	addi	s0,sp,48
    80203748:	fea43423          	sd	a0,-24(s0)
    8020374c:	feb43023          	sd	a1,-32(s0)
    80203750:	87b2                	mv	a5,a2
    80203752:	fcf42e23          	sw	a5,-36(s0)
/home/caigoubencai/Desktop/os_c/kernel/string/string.c:95
    while (len--) {
    80203756:	a00d                	j	80203778 <memcpy+0x36>
/home/caigoubencai/Desktop/os_c/kernel/string/string.c:96
        *dest++ = *src++;
    80203758:	fe043703          	ld	a4,-32(s0)
    8020375c:	00170793          	addi	a5,a4,1
    80203760:	fef43023          	sd	a5,-32(s0)
    80203764:	fe843783          	ld	a5,-24(s0)
    80203768:	00178693          	addi	a3,a5,1
    8020376c:	fed43423          	sd	a3,-24(s0)
    80203770:	00074703          	lbu	a4,0(a4)
    80203774:	00e78023          	sb	a4,0(a5)
/home/caigoubencai/Desktop/os_c/kernel/string/string.c:95
    while (len--) {
    80203778:	fdc42783          	lw	a5,-36(s0)
    8020377c:	fff7871b          	addiw	a4,a5,-1
    80203780:	fce42e23          	sw	a4,-36(s0)
    80203784:	fbf1                	bnez	a5,80203758 <memcpy+0x16>
/home/caigoubencai/Desktop/os_c/kernel/string/string.c:98
    }
}
    80203786:	0001                	nop
    80203788:	0001                	nop
    8020378a:	7422                	ld	s0,40(sp)
    8020378c:	6145                	addi	sp,sp,48
    8020378e:	8082                	ret

0000000080203790 <memset>:
memset():
/home/caigoubencai/Desktop/os_c/kernel/string/string.c:101

void memset(void *dest, u8 val, u32 len)
{
    80203790:	1101                	addi	sp,sp,-32
    80203792:	ec06                	sd	ra,24(sp)
    80203794:	e822                	sd	s0,16(sp)
    80203796:	1000                	addi	s0,sp,32
    80203798:	fea43423          	sd	a0,-24(s0)
    8020379c:	87ae                	mv	a5,a1
    8020379e:	8732                	mv	a4,a2
    802037a0:	fef403a3          	sb	a5,-25(s0)
    802037a4:	87ba                	mv	a5,a4
    802037a6:	fef42023          	sw	a5,-32(s0)
/home/caigoubencai/Desktop/os_c/kernel/string/string.c:102
    memset_t(dest,val,len);
    802037aa:	fe042703          	lw	a4,-32(s0)
    802037ae:	fe744783          	lbu	a5,-25(s0)
    802037b2:	863a                	mv	a2,a4
    802037b4:	85be                	mv	a1,a5
    802037b6:	fe843503          	ld	a0,-24(s0)
    802037ba:	dbbff0ef          	jal	ra,80203574 <memset_t>
/home/caigoubencai/Desktop/os_c/kernel/string/string.c:103
}
    802037be:	0001                	nop
    802037c0:	60e2                	ld	ra,24(sp)
    802037c2:	6442                	ld	s0,16(sp)
    802037c4:	6105                	addi	sp,sp,32
    802037c6:	8082                	ret

00000000802037c8 <memcmp>:
memcmp():
/home/caigoubencai/Desktop/os_c/kernel/string/string.c:105
int memcmp(const void *ptr1, const void *ptr2, size_t num) 
{
    802037c8:	715d                	addi	sp,sp,-80
    802037ca:	e4a2                	sd	s0,72(sp)
    802037cc:	0880                	addi	s0,sp,80
    802037ce:	fca43423          	sd	a0,-56(s0)
    802037d2:	fcb43023          	sd	a1,-64(s0)
    802037d6:	fac43c23          	sd	a2,-72(s0)
/home/caigoubencai/Desktop/os_c/kernel/string/string.c:106
    const unsigned char *p1 = ptr1, *p2 = ptr2;
    802037da:	fc843783          	ld	a5,-56(s0)
    802037de:	fef43023          	sd	a5,-32(s0)
    802037e2:	fc043783          	ld	a5,-64(s0)
    802037e6:	fcf43c23          	sd	a5,-40(s0)
/home/caigoubencai/Desktop/os_c/kernel/string/string.c:107
    for (size_t i = 0; i < num; i++) 
    802037ea:	fe043423          	sd	zero,-24(s0)
    802037ee:	a8a1                	j	80203846 <memcmp+0x7e>
/home/caigoubencai/Desktop/os_c/kernel/string/string.c:109
    {
        if (p1[i] != p2[i]) 
    802037f0:	fe043703          	ld	a4,-32(s0)
    802037f4:	fe843783          	ld	a5,-24(s0)
    802037f8:	97ba                	add	a5,a5,a4
    802037fa:	0007c683          	lbu	a3,0(a5)
    802037fe:	fd843703          	ld	a4,-40(s0)
    80203802:	fe843783          	ld	a5,-24(s0)
    80203806:	97ba                	add	a5,a5,a4
    80203808:	0007c783          	lbu	a5,0(a5)
    8020380c:	8736                	mv	a4,a3
    8020380e:	02f70763          	beq	a4,a5,8020383c <memcmp+0x74>
/home/caigoubencai/Desktop/os_c/kernel/string/string.c:111
        {
            return (int)p1[i] - (int)p2[i];
    80203812:	fe043703          	ld	a4,-32(s0)
    80203816:	fe843783          	ld	a5,-24(s0)
    8020381a:	97ba                	add	a5,a5,a4
    8020381c:	0007c783          	lbu	a5,0(a5)
    80203820:	0007871b          	sext.w	a4,a5
    80203824:	fd843683          	ld	a3,-40(s0)
    80203828:	fe843783          	ld	a5,-24(s0)
    8020382c:	97b6                	add	a5,a5,a3
    8020382e:	0007c783          	lbu	a5,0(a5)
    80203832:	2781                	sext.w	a5,a5
    80203834:	40f707bb          	subw	a5,a4,a5
    80203838:	2781                	sext.w	a5,a5
    8020383a:	a829                	j	80203854 <memcmp+0x8c>
/home/caigoubencai/Desktop/os_c/kernel/string/string.c:107 (discriminator 2)
    for (size_t i = 0; i < num; i++) 
    8020383c:	fe843783          	ld	a5,-24(s0)
    80203840:	0785                	addi	a5,a5,1
    80203842:	fef43423          	sd	a5,-24(s0)
/home/caigoubencai/Desktop/os_c/kernel/string/string.c:107 (discriminator 1)
    80203846:	fe843703          	ld	a4,-24(s0)
    8020384a:	fb843783          	ld	a5,-72(s0)
    8020384e:	faf761e3          	bltu	a4,a5,802037f0 <memcmp+0x28>
/home/caigoubencai/Desktop/os_c/kernel/string/string.c:114
        }
    }
    return 0;
    80203852:	4781                	li	a5,0
/home/caigoubencai/Desktop/os_c/kernel/string/string.c:115
}
    80203854:	853e                	mv	a0,a5
    80203856:	6426                	ld	s0,72(sp)
    80203858:	6161                	addi	sp,sp,80
    8020385a:	8082                	ret

000000008020385c <memmove>:
memmove():
/home/caigoubencai/Desktop/os_c/kernel/string/string.c:118


void *memmove(void *dest, const void *src, size_t n) {
    8020385c:	715d                	addi	sp,sp,-80
    8020385e:	e4a2                	sd	s0,72(sp)
    80203860:	0880                	addi	s0,sp,80
    80203862:	fca43423          	sd	a0,-56(s0)
    80203866:	fcb43023          	sd	a1,-64(s0)
    8020386a:	fac43c23          	sd	a2,-72(s0)
/home/caigoubencai/Desktop/os_c/kernel/string/string.c:119
    u8 *d = (u8 *)dest;
    8020386e:	fc843783          	ld	a5,-56(s0)
    80203872:	fcf43c23          	sd	a5,-40(s0)
/home/caigoubencai/Desktop/os_c/kernel/string/string.c:120
    const u8 *s = (const u8 *)src;
    80203876:	fc043783          	ld	a5,-64(s0)
    8020387a:	fcf43823          	sd	a5,-48(s0)
/home/caigoubencai/Desktop/os_c/kernel/string/string.c:123

    // 如果源和目标相同，就没有复制的必要
    if (d == s) {
    8020387e:	fd843703          	ld	a4,-40(s0)
    80203882:	fd043783          	ld	a5,-48(s0)
    80203886:	00f71563          	bne	a4,a5,80203890 <memmove+0x34>
/home/caigoubencai/Desktop/os_c/kernel/string/string.c:124
        return dest;
    8020388a:	fc843783          	ld	a5,-56(s0)
    8020388e:	a861                	j	80203926 <memmove+0xca>
/home/caigoubencai/Desktop/os_c/kernel/string/string.c:128
    }

    // 如果源地址小于目标地址，并且两者重叠，则从后向前复制
    if (s < d && d < s + n) {
    80203890:	fd043703          	ld	a4,-48(s0)
    80203894:	fd843783          	ld	a5,-40(s0)
    80203898:	04f77963          	bgeu	a4,a5,802038ea <memmove+0x8e>
/home/caigoubencai/Desktop/os_c/kernel/string/string.c:128 (discriminator 1)
    8020389c:	fd043703          	ld	a4,-48(s0)
    802038a0:	fb843783          	ld	a5,-72(s0)
    802038a4:	97ba                	add	a5,a5,a4
    802038a6:	fd843703          	ld	a4,-40(s0)
    802038aa:	04f77063          	bgeu	a4,a5,802038ea <memmove+0x8e>
/home/caigoubencai/Desktop/os_c/kernel/string/string.c:129
        for (size_t i = n; i != 0; i--) {
    802038ae:	fb843783          	ld	a5,-72(s0)
    802038b2:	fef43423          	sd	a5,-24(s0)
    802038b6:	a035                	j	802038e2 <memmove+0x86>
/home/caigoubencai/Desktop/os_c/kernel/string/string.c:130 (discriminator 3)
            d[i - 1] = s[i - 1];
    802038b8:	fe843783          	ld	a5,-24(s0)
    802038bc:	17fd                	addi	a5,a5,-1
    802038be:	fd043703          	ld	a4,-48(s0)
    802038c2:	973e                	add	a4,a4,a5
    802038c4:	fe843783          	ld	a5,-24(s0)
    802038c8:	17fd                	addi	a5,a5,-1
    802038ca:	fd843683          	ld	a3,-40(s0)
    802038ce:	97b6                	add	a5,a5,a3
    802038d0:	00074703          	lbu	a4,0(a4)
    802038d4:	00e78023          	sb	a4,0(a5)
/home/caigoubencai/Desktop/os_c/kernel/string/string.c:129 (discriminator 3)
        for (size_t i = n; i != 0; i--) {
    802038d8:	fe843783          	ld	a5,-24(s0)
    802038dc:	17fd                	addi	a5,a5,-1
    802038de:	fef43423          	sd	a5,-24(s0)
/home/caigoubencai/Desktop/os_c/kernel/string/string.c:129 (discriminator 1)
    802038e2:	fe843783          	ld	a5,-24(s0)
    802038e6:	fbe9                	bnez	a5,802038b8 <memmove+0x5c>
/home/caigoubencai/Desktop/os_c/kernel/string/string.c:129
    802038e8:	a82d                	j	80203922 <memmove+0xc6>
/home/caigoubencai/Desktop/os_c/kernel/string/string.c:134
        }
    } else {
        // 否则，从前向后复制
        for (size_t i = 0; i < n; i++) {
    802038ea:	fe043023          	sd	zero,-32(s0)
    802038ee:	a025                	j	80203916 <memmove+0xba>
/home/caigoubencai/Desktop/os_c/kernel/string/string.c:135 (discriminator 3)
            d[i] = s[i];
    802038f0:	fd043703          	ld	a4,-48(s0)
    802038f4:	fe043783          	ld	a5,-32(s0)
    802038f8:	973e                	add	a4,a4,a5
    802038fa:	fd843683          	ld	a3,-40(s0)
    802038fe:	fe043783          	ld	a5,-32(s0)
    80203902:	97b6                	add	a5,a5,a3
    80203904:	00074703          	lbu	a4,0(a4)
    80203908:	00e78023          	sb	a4,0(a5)
/home/caigoubencai/Desktop/os_c/kernel/string/string.c:134 (discriminator 3)
        for (size_t i = 0; i < n; i++) {
    8020390c:	fe043783          	ld	a5,-32(s0)
    80203910:	0785                	addi	a5,a5,1
    80203912:	fef43023          	sd	a5,-32(s0)
/home/caigoubencai/Desktop/os_c/kernel/string/string.c:134 (discriminator 1)
    80203916:	fe043703          	ld	a4,-32(s0)
    8020391a:	fb843783          	ld	a5,-72(s0)
    8020391e:	fcf769e3          	bltu	a4,a5,802038f0 <memmove+0x94>
/home/caigoubencai/Desktop/os_c/kernel/string/string.c:139
        }
    }

    return dest;
    80203922:	fc843783          	ld	a5,-56(s0)
/home/caigoubencai/Desktop/os_c/kernel/string/string.c:140
    80203926:	853e                	mv	a0,a5
    80203928:	6426                	ld	s0,72(sp)
    8020392a:	6161                	addi	sp,sp,80
    8020392c:	8082                	ret

000000008020392e <init_heap>:
init_heap():
/home/caigoubencai/Desktop/os_c/kernel/memory/kernel_address/kernel_heap.c:16

static char heap[HEAP_SIZE];  // 堆空间

// 初始化堆
void init_heap() 
{
    8020392e:	1101                	addi	sp,sp,-32
    80203930:	ec22                	sd	s0,24(sp)
    80203932:	1000                	addi	s0,sp,32
/home/caigoubencai/Desktop/os_c/kernel/memory/kernel_address/kernel_heap.c:18
    // 初始化堆的第一个块
    BlockHeader* header = (BlockHeader*)heap;
    80203934:	0001e797          	auipc	a5,0x1e
    80203938:	6d478793          	addi	a5,a5,1748 # 80222008 <heap>
    8020393c:	fef43423          	sd	a5,-24(s0)
/home/caigoubencai/Desktop/os_c/kernel/memory/kernel_address/kernel_heap.c:19
    header->size = HEAP_SIZE - sizeof(BlockHeader); // 设置第一个块的大小
    80203940:	fe843783          	ld	a5,-24(s0)
    80203944:	00800737          	lui	a4,0x800
    80203948:	1741                	addi	a4,a4,-16
    8020394a:	e398                	sd	a4,0(a5)
/home/caigoubencai/Desktop/os_c/kernel/memory/kernel_address/kernel_heap.c:20
    header->free = 1; // 设置第一个块为空闲
    8020394c:	fe843783          	ld	a5,-24(s0)
    80203950:	4705                	li	a4,1
    80203952:	c798                	sw	a4,8(a5)
/home/caigoubencai/Desktop/os_c/kernel/memory/kernel_address/kernel_heap.c:21
}
    80203954:	0001                	nop
    80203956:	6462                	ld	s0,24(sp)
    80203958:	6105                	addi	sp,sp,32
    8020395a:	8082                	ret

000000008020395c <malloc>:
malloc():
/home/caigoubencai/Desktop/os_c/kernel/memory/kernel_address/kernel_heap.c:24

// 分配内存
void* malloc(uint64_t size) {
    8020395c:	7179                	addi	sp,sp,-48
    8020395e:	f422                	sd	s0,40(sp)
    80203960:	1800                	addi	s0,sp,48
    80203962:	fca43c23          	sd	a0,-40(s0)
/home/caigoubencai/Desktop/os_c/kernel/memory/kernel_address/kernel_heap.c:26
    // 从堆的开始处搜索合适的内存块
    BlockHeader* header = (BlockHeader*)heap;
    80203966:	0001e797          	auipc	a5,0x1e
    8020396a:	6a278793          	addi	a5,a5,1698 # 80222008 <heap>
    8020396e:	fef43423          	sd	a5,-24(s0)
/home/caigoubencai/Desktop/os_c/kernel/memory/kernel_address/kernel_heap.c:29

    // 搜索未分配且大小合适的内存块
    while (header->size < size || !header->free) {
    80203972:	a025                	j	8020399a <malloc+0x3e>
/home/caigoubencai/Desktop/os_c/kernel/memory/kernel_address/kernel_heap.c:30
        header = (BlockHeader*)((char*)header + header->size + sizeof(BlockHeader));
    80203974:	fe843783          	ld	a5,-24(s0)
    80203978:	639c                	ld	a5,0(a5)
    8020397a:	07c1                	addi	a5,a5,16
    8020397c:	fe843703          	ld	a4,-24(s0)
    80203980:	97ba                	add	a5,a5,a4
    80203982:	fef43423          	sd	a5,-24(s0)
/home/caigoubencai/Desktop/os_c/kernel/memory/kernel_address/kernel_heap.c:31
        if ((char*)header >= (char*)heap + HEAP_SIZE) {
    80203986:	0081e797          	auipc	a5,0x81e
    8020398a:	68278793          	addi	a5,a5,1666 # 80a22008 <KERNEL_SPACE>
    8020398e:	fe843703          	ld	a4,-24(s0)
    80203992:	00f76463          	bltu	a4,a5,8020399a <malloc+0x3e>
/home/caigoubencai/Desktop/os_c/kernel/memory/kernel_address/kernel_heap.c:33
            // 搜索到堆的末尾还未找到合适的内存块
            return NULL;
    80203996:	4781                	li	a5,0
    80203998:	a885                	j	80203a08 <malloc+0xac>
/home/caigoubencai/Desktop/os_c/kernel/memory/kernel_address/kernel_heap.c:29
    while (header->size < size || !header->free) {
    8020399a:	fe843783          	ld	a5,-24(s0)
    8020399e:	639c                	ld	a5,0(a5)
    802039a0:	fd843703          	ld	a4,-40(s0)
    802039a4:	fce7e8e3          	bltu	a5,a4,80203974 <malloc+0x18>
/home/caigoubencai/Desktop/os_c/kernel/memory/kernel_address/kernel_heap.c:29 (discriminator 1)
    802039a8:	fe843783          	ld	a5,-24(s0)
    802039ac:	479c                	lw	a5,8(a5)
    802039ae:	d3f9                	beqz	a5,80203974 <malloc+0x18>
/home/caigoubencai/Desktop/os_c/kernel/memory/kernel_address/kernel_heap.c:38
        }
    }

    // 找到合适的内存块
    if (header->size >= size + sizeof(BlockHeader) + 4) {
    802039b0:	fe843783          	ld	a5,-24(s0)
    802039b4:	6398                	ld	a4,0(a5)
    802039b6:	fd843783          	ld	a5,-40(s0)
    802039ba:	07d1                	addi	a5,a5,20
    802039bc:	02f76f63          	bltu	a4,a5,802039fa <malloc+0x9e>
/home/caigoubencai/Desktop/os_c/kernel/memory/kernel_address/kernel_heap.c:40
        // 分割内存块以减少浪费
        BlockHeader* new_header = (BlockHeader*)((char*)header + size + sizeof(BlockHeader));
    802039c0:	fd843783          	ld	a5,-40(s0)
    802039c4:	07c1                	addi	a5,a5,16
    802039c6:	fe843703          	ld	a4,-24(s0)
    802039ca:	97ba                	add	a5,a5,a4
    802039cc:	fef43023          	sd	a5,-32(s0)
/home/caigoubencai/Desktop/os_c/kernel/memory/kernel_address/kernel_heap.c:41
        new_header->size = header->size - size - sizeof(BlockHeader); // 计算新内存块的大小
    802039d0:	fe843783          	ld	a5,-24(s0)
    802039d4:	6398                	ld	a4,0(a5)
    802039d6:	fd843783          	ld	a5,-40(s0)
    802039da:	40f707b3          	sub	a5,a4,a5
    802039de:	ff078713          	addi	a4,a5,-16
    802039e2:	fe043783          	ld	a5,-32(s0)
    802039e6:	e398                	sd	a4,0(a5)
/home/caigoubencai/Desktop/os_c/kernel/memory/kernel_address/kernel_heap.c:42
        new_header->free = 1; // 设置新内存块为空闲
    802039e8:	fe043783          	ld	a5,-32(s0)
    802039ec:	4705                	li	a4,1
    802039ee:	c798                	sw	a4,8(a5)
/home/caigoubencai/Desktop/os_c/kernel/memory/kernel_address/kernel_heap.c:43
        header->size = size; // 更新当前内存块的大小
    802039f0:	fe843783          	ld	a5,-24(s0)
    802039f4:	fd843703          	ld	a4,-40(s0)
    802039f8:	e398                	sd	a4,0(a5)
/home/caigoubencai/Desktop/os_c/kernel/memory/kernel_address/kernel_heap.c:46
    }

    header->free = 0; // 标记当前内存块为已分配
    802039fa:	fe843783          	ld	a5,-24(s0)
    802039fe:	0007a423          	sw	zero,8(a5)
/home/caigoubencai/Desktop/os_c/kernel/memory/kernel_address/kernel_heap.c:47
    return (void*)(header + 1); // 返回内存块数据区的地址
    80203a02:	fe843783          	ld	a5,-24(s0)
    80203a06:	07c1                	addi	a5,a5,16
/home/caigoubencai/Desktop/os_c/kernel/memory/kernel_address/kernel_heap.c:48
}
    80203a08:	853e                	mv	a0,a5
    80203a0a:	7422                	ld	s0,40(sp)
    80203a0c:	6145                	addi	sp,sp,48
    80203a0e:	8082                	ret

0000000080203a10 <free>:
free():
/home/caigoubencai/Desktop/os_c/kernel/memory/kernel_address/kernel_heap.c:51

// 释放内存
void free(void* ptr) {
    80203a10:	7179                	addi	sp,sp,-48
    80203a12:	f422                	sd	s0,40(sp)
    80203a14:	1800                	addi	s0,sp,48
    80203a16:	fca43c23          	sd	a0,-40(s0)
/home/caigoubencai/Desktop/os_c/kernel/memory/kernel_address/kernel_heap.c:53
    // 如果指针为空，则不进行操作
    if (ptr == NULL) {
    80203a1a:	fd843783          	ld	a5,-40(s0)
    80203a1e:	cb99                	beqz	a5,80203a34 <free+0x24>
/home/caigoubencai/Desktop/os_c/kernel/memory/kernel_address/kernel_heap.c:58
        return;
    }

    // 获取内存块头部
    BlockHeader* header = (BlockHeader*)ptr - 1;
    80203a20:	fd843783          	ld	a5,-40(s0)
    80203a24:	17c1                	addi	a5,a5,-16
    80203a26:	fef43423          	sd	a5,-24(s0)
/home/caigoubencai/Desktop/os_c/kernel/memory/kernel_address/kernel_heap.c:59
    header->free = 1; // 标记内存块为空闲
    80203a2a:	fe843783          	ld	a5,-24(s0)
    80203a2e:	4705                	li	a4,1
    80203a30:	c798                	sw	a4,8(a5)
    80203a32:	a011                	j	80203a36 <free+0x26>
/home/caigoubencai/Desktop/os_c/kernel/memory/kernel_address/kernel_heap.c:54
        return;
    80203a34:	0001                	nop
/home/caigoubencai/Desktop/os_c/kernel/memory/kernel_address/kernel_heap.c:60
}
    80203a36:	7422                	ld	s0,40(sp)
    80203a38:	6145                	addi	sp,sp,48
    80203a3a:	8082                	ret

0000000080203a3c <print_heap>:
print_heap():
/home/caigoubencai/Desktop/os_c/kernel/memory/kernel_address/kernel_heap.c:63

// 打印堆的状态
void print_heap() {
    80203a3c:	1101                	addi	sp,sp,-32
    80203a3e:	ec06                	sd	ra,24(sp)
    80203a40:	e822                	sd	s0,16(sp)
    80203a42:	1000                	addi	s0,sp,32
/home/caigoubencai/Desktop/os_c/kernel/memory/kernel_address/kernel_heap.c:64
    BlockHeader* header = (BlockHeader*)heap;
    80203a44:	0001e797          	auipc	a5,0x1e
    80203a48:	5c478793          	addi	a5,a5,1476 # 80222008 <heap>
    80203a4c:	fef43423          	sd	a5,-24(s0)
/home/caigoubencai/Desktop/os_c/kernel/memory/kernel_address/kernel_heap.c:67

    // 遍历堆中的所有内存块
    while ((char*)header < (char*)heap + HEAP_SIZE) {
    80203a50:	a095                	j	80203ab4 <print_heap+0x78>
/home/caigoubencai/Desktop/os_c/kernel/memory/kernel_address/kernel_heap.c:68
        print_str("Block size: ");
    80203a52:	00005517          	auipc	a0,0x5
    80203a56:	67e50513          	addi	a0,a0,1662 # 802090d0 <MMIO+0x48>
    80203a5a:	17b020ef          	jal	ra,802063d4 <print_str>
/home/caigoubencai/Desktop/os_c/kernel/memory/kernel_address/kernel_heap.c:69
        print_uint64(header->size); // 打印内存块大小
    80203a5e:	fe843783          	ld	a5,-24(s0)
    80203a62:	639c                	ld	a5,0(a5)
    80203a64:	853e                	mv	a0,a5
    80203a66:	2ed020ef          	jal	ra,80206552 <print_uint64>
/home/caigoubencai/Desktop/os_c/kernel/memory/kernel_address/kernel_heap.c:70
        print_str(", Free: ");
    80203a6a:	00005517          	auipc	a0,0x5
    80203a6e:	67650513          	addi	a0,a0,1654 # 802090e0 <MMIO+0x58>
    80203a72:	163020ef          	jal	ra,802063d4 <print_str>
/home/caigoubencai/Desktop/os_c/kernel/memory/kernel_address/kernel_heap.c:71
        print_str(header->free ? "Yes" : "No"); // 打印内存块是否空闲
    80203a76:	fe843783          	ld	a5,-24(s0)
    80203a7a:	479c                	lw	a5,8(a5)
    80203a7c:	c791                	beqz	a5,80203a88 <print_heap+0x4c>
/home/caigoubencai/Desktop/os_c/kernel/memory/kernel_address/kernel_heap.c:71 (discriminator 1)
    80203a7e:	00005797          	auipc	a5,0x5
    80203a82:	67278793          	addi	a5,a5,1650 # 802090f0 <MMIO+0x68>
    80203a86:	a029                	j	80203a90 <print_heap+0x54>
/home/caigoubencai/Desktop/os_c/kernel/memory/kernel_address/kernel_heap.c:71 (discriminator 2)
    80203a88:	00005797          	auipc	a5,0x5
    80203a8c:	67078793          	addi	a5,a5,1648 # 802090f8 <MMIO+0x70>
/home/caigoubencai/Desktop/os_c/kernel/memory/kernel_address/kernel_heap.c:71 (discriminator 4)
    80203a90:	853e                	mv	a0,a5
    80203a92:	143020ef          	jal	ra,802063d4 <print_str>
/home/caigoubencai/Desktop/os_c/kernel/memory/kernel_address/kernel_heap.c:72 (discriminator 4)
        print_str("\n");
    80203a96:	00005517          	auipc	a0,0x5
    80203a9a:	66a50513          	addi	a0,a0,1642 # 80209100 <MMIO+0x78>
    80203a9e:	137020ef          	jal	ra,802063d4 <print_str>
/home/caigoubencai/Desktop/os_c/kernel/memory/kernel_address/kernel_heap.c:75 (discriminator 4)

        // 移动到下一个内存块
        header = (BlockHeader*)((char*)header + header->size + sizeof(BlockHeader));
    80203aa2:	fe843783          	ld	a5,-24(s0)
    80203aa6:	639c                	ld	a5,0(a5)
    80203aa8:	07c1                	addi	a5,a5,16
    80203aaa:	fe843703          	ld	a4,-24(s0)
    80203aae:	97ba                	add	a5,a5,a4
    80203ab0:	fef43423          	sd	a5,-24(s0)
/home/caigoubencai/Desktop/os_c/kernel/memory/kernel_address/kernel_heap.c:67
    while ((char*)header < (char*)heap + HEAP_SIZE) {
    80203ab4:	0081e797          	auipc	a5,0x81e
    80203ab8:	55478793          	addi	a5,a5,1364 # 80a22008 <KERNEL_SPACE>
    80203abc:	fe843703          	ld	a4,-24(s0)
    80203ac0:	f8f769e3          	bltu	a4,a5,80203a52 <print_heap+0x16>
/home/caigoubencai/Desktop/os_c/kernel/memory/kernel_address/kernel_heap.c:77
    }
}
    80203ac4:	0001                	nop
    80203ac6:	0001                	nop
    80203ac8:	60e2                	ld	ra,24(sp)
    80203aca:	6442                	ld	s0,16(sp)
    80203acc:	6105                	addi	sp,sp,32
    80203ace:	8082                	ret

0000000080203ad0 <realloc>:
realloc():
/home/caigoubencai/Desktop/os_c/kernel/memory/kernel_address/kernel_heap.c:81

// 重新分配内存
void* realloc(void* ptr, uint64_t new_size) 
{
    80203ad0:	7139                	addi	sp,sp,-64
    80203ad2:	fc06                	sd	ra,56(sp)
    80203ad4:	f822                	sd	s0,48(sp)
    80203ad6:	0080                	addi	s0,sp,64
    80203ad8:	fca43423          	sd	a0,-56(s0)
    80203adc:	fcb43023          	sd	a1,-64(s0)
/home/caigoubencai/Desktop/os_c/kernel/memory/kernel_address/kernel_heap.c:82
    if (new_size == 0) {
    80203ae0:	fc043783          	ld	a5,-64(s0)
    80203ae4:	e799                	bnez	a5,80203af2 <realloc+0x22>
/home/caigoubencai/Desktop/os_c/kernel/memory/kernel_address/kernel_heap.c:84
        // 如果新大小为0，则释放原有内存并返回NULL
        free(ptr);
    80203ae6:	fc843503          	ld	a0,-56(s0)
    80203aea:	f27ff0ef          	jal	ra,80203a10 <free>
/home/caigoubencai/Desktop/os_c/kernel/memory/kernel_address/kernel_heap.c:85
        return NULL;
    80203aee:	4781                	li	a5,0
    80203af0:	a045                	j	80203b90 <realloc+0xc0>
/home/caigoubencai/Desktop/os_c/kernel/memory/kernel_address/kernel_heap.c:88
    }

    if (ptr == NULL) {
    80203af2:	fc843783          	ld	a5,-56(s0)
    80203af6:	e799                	bnez	a5,80203b04 <realloc+0x34>
/home/caigoubencai/Desktop/os_c/kernel/memory/kernel_address/kernel_heap.c:90
        // 如果原始指针为NULL，则行为等同于malloc
        return malloc(new_size);
    80203af8:	fc043503          	ld	a0,-64(s0)
    80203afc:	e61ff0ef          	jal	ra,8020395c <malloc>
    80203b00:	87aa                	mv	a5,a0
    80203b02:	a079                	j	80203b90 <realloc+0xc0>
/home/caigoubencai/Desktop/os_c/kernel/memory/kernel_address/kernel_heap.c:93
    }

    BlockHeader* header = (BlockHeader*)ptr - 1;
    80203b04:	fc843783          	ld	a5,-56(s0)
    80203b08:	17c1                	addi	a5,a5,-16
    80203b0a:	fef43023          	sd	a5,-32(s0)
/home/caigoubencai/Desktop/os_c/kernel/memory/kernel_address/kernel_heap.c:94
    if (header->size >= new_size) {
    80203b0e:	fe043783          	ld	a5,-32(s0)
    80203b12:	639c                	ld	a5,0(a5)
    80203b14:	fc043703          	ld	a4,-64(s0)
    80203b18:	00e7e563          	bltu	a5,a4,80203b22 <realloc+0x52>
/home/caigoubencai/Desktop/os_c/kernel/memory/kernel_address/kernel_heap.c:96
        // 如果原始内存块大小已满足需求，则直接返回原始指针
        return ptr;
    80203b1c:	fc843783          	ld	a5,-56(s0)
    80203b20:	a885                	j	80203b90 <realloc+0xc0>
/home/caigoubencai/Desktop/os_c/kernel/memory/kernel_address/kernel_heap.c:99
    } else {
        // 如果新大小超出原始大小，则分配一个新的内存块并复制原始数据
        void* new_ptr = malloc(new_size);
    80203b22:	fc043503          	ld	a0,-64(s0)
    80203b26:	e37ff0ef          	jal	ra,8020395c <malloc>
    80203b2a:	fca43c23          	sd	a0,-40(s0)
/home/caigoubencai/Desktop/os_c/kernel/memory/kernel_address/kernel_heap.c:100
        if (new_ptr == NULL) {
    80203b2e:	fd843783          	ld	a5,-40(s0)
    80203b32:	e399                	bnez	a5,80203b38 <realloc+0x68>
/home/caigoubencai/Desktop/os_c/kernel/memory/kernel_address/kernel_heap.c:102
            // 分配失败
            return NULL;
    80203b34:	4781                	li	a5,0
    80203b36:	a8a9                	j	80203b90 <realloc+0xc0>
/home/caigoubencai/Desktop/os_c/kernel/memory/kernel_address/kernel_heap.c:106
        }

        // 复制原始内存数据到新的内存块
        uint64_t copy_size = header->size < new_size ? header->size : new_size;
    80203b38:	fe043783          	ld	a5,-32(s0)
    80203b3c:	6398                	ld	a4,0(a5)
    80203b3e:	fc043783          	ld	a5,-64(s0)
    80203b42:	00f77363          	bgeu	a4,a5,80203b48 <realloc+0x78>
    80203b46:	87ba                	mv	a5,a4
    80203b48:	fcf43823          	sd	a5,-48(s0)
/home/caigoubencai/Desktop/os_c/kernel/memory/kernel_address/kernel_heap.c:107
        for (uint64_t i = 0; i < copy_size; ++i) {
    80203b4c:	fe043423          	sd	zero,-24(s0)
    80203b50:	a025                	j	80203b78 <realloc+0xa8>
/home/caigoubencai/Desktop/os_c/kernel/memory/kernel_address/kernel_heap.c:108 (discriminator 3)
            *((char*)new_ptr + i) = *((char*)ptr + i);
    80203b52:	fc843703          	ld	a4,-56(s0)
    80203b56:	fe843783          	ld	a5,-24(s0)
    80203b5a:	973e                	add	a4,a4,a5
    80203b5c:	fd843683          	ld	a3,-40(s0)
    80203b60:	fe843783          	ld	a5,-24(s0)
    80203b64:	97b6                	add	a5,a5,a3
    80203b66:	00074703          	lbu	a4,0(a4) # 800000 <n+0x7fffe0>
    80203b6a:	00e78023          	sb	a4,0(a5)
/home/caigoubencai/Desktop/os_c/kernel/memory/kernel_address/kernel_heap.c:107 (discriminator 3)
        for (uint64_t i = 0; i < copy_size; ++i) {
    80203b6e:	fe843783          	ld	a5,-24(s0)
    80203b72:	0785                	addi	a5,a5,1
    80203b74:	fef43423          	sd	a5,-24(s0)
/home/caigoubencai/Desktop/os_c/kernel/memory/kernel_address/kernel_heap.c:107 (discriminator 1)
    80203b78:	fe843703          	ld	a4,-24(s0)
    80203b7c:	fd043783          	ld	a5,-48(s0)
    80203b80:	fcf769e3          	bltu	a4,a5,80203b52 <realloc+0x82>
/home/caigoubencai/Desktop/os_c/kernel/memory/kernel_address/kernel_heap.c:112
        }

        // 释放原始内存块
        free(ptr);
    80203b84:	fc843503          	ld	a0,-56(s0)
    80203b88:	e89ff0ef          	jal	ra,80203a10 <free>
/home/caigoubencai/Desktop/os_c/kernel/memory/kernel_address/kernel_heap.c:113
        return new_ptr;
    80203b8c:	fd843783          	ld	a5,-40(s0)
/home/caigoubencai/Desktop/os_c/kernel/memory/kernel_address/kernel_heap.c:115
    }
}
    80203b90:	853e                	mv	a0,a5
    80203b92:	70e2                	ld	ra,56(sp)
    80203b94:	7442                	ld	s0,48(sp)
    80203b96:	6121                	addi	sp,sp,64
    80203b98:	8082                	ret

0000000080203b9a <w_satp>:
w_satp():
/home/caigoubencai/Desktop/os_c/kernel/globle/riscv.h:154

#define MAKE_SATP(pagetable) (SATP_SV39 | (((uint64_t)pagetable) >> 12))

// supervisor address translation and protection;
// holds the address of the page table.
static inline void w_satp(uint64_t x) {
    80203b9a:	1101                	addi	sp,sp,-32
    80203b9c:	ec22                	sd	s0,24(sp)
    80203b9e:	1000                	addi	s0,sp,32
    80203ba0:	fea43423          	sd	a0,-24(s0)
/home/caigoubencai/Desktop/os_c/kernel/globle/riscv.h:155
  asm volatile("csrw satp, %0" : : "r"(x));
    80203ba4:	fe843783          	ld	a5,-24(s0)
    80203ba8:	18079073          	csrw	satp,a5
/home/caigoubencai/Desktop/os_c/kernel/globle/riscv.h:156
}
    80203bac:	0001                	nop
    80203bae:	6462                	ld	s0,24(sp)
    80203bb0:	6105                	addi	sp,sp,32
    80203bb2:	8082                	ret

0000000080203bb4 <sfence_vma>:
sfence_vma():
/home/caigoubencai/Desktop/os_c/kernel/globle/riscv.h:240
  asm volatile("mv %0, ra" : "=r"(x));
  return x;
}

// flush the TLB.
static inline void sfence_vma() {
    80203bb4:	1141                	addi	sp,sp,-16
    80203bb6:	e422                	sd	s0,8(sp)
    80203bb8:	0800                	addi	s0,sp,16
/home/caigoubencai/Desktop/os_c/kernel/globle/riscv.h:242
  // the zero, zero means flush all TLB entries.
  asm volatile("sfence.vma zero, zero");
    80203bba:	12000073          	sfence.vma
/home/caigoubencai/Desktop/os_c/kernel/globle/riscv.h:243
}
    80203bbe:	0001                	nop
    80203bc0:	6422                	ld	s0,8(sp)
    80203bc2:	0141                	addi	sp,sp,16
    80203bc4:	8082                	ret

0000000080203bc6 <map_area_from_another>:
map_area_from_another():
/home/caigoubencai/Desktop/os_c/kernel/memory/mem/memory_set.c:6
#include "elfparse.h"
#include "mem.h"
#include "riscv.h"
#include "string.h"
#include "debug.h"
static void map_area_from_another(MapArea *map_area, MapArea *another) {
    80203bc6:	1101                	addi	sp,sp,-32
    80203bc8:	ec22                	sd	s0,24(sp)
    80203bca:	1000                	addi	s0,sp,32
    80203bcc:	fea43423          	sd	a0,-24(s0)
    80203bd0:	feb43023          	sd	a1,-32(s0)
/home/caigoubencai/Desktop/os_c/kernel/memory/mem/memory_set.c:7
  map_area->vpn_range.l = another->vpn_range.l;
    80203bd4:	fe043783          	ld	a5,-32(s0)
    80203bd8:	6398                	ld	a4,0(a5)
    80203bda:	fe843783          	ld	a5,-24(s0)
    80203bde:	e398                	sd	a4,0(a5)
/home/caigoubencai/Desktop/os_c/kernel/memory/mem/memory_set.c:8
  map_area->vpn_range.r = another->vpn_range.r;
    80203be0:	fe043783          	ld	a5,-32(s0)
    80203be4:	6798                	ld	a4,8(a5)
    80203be6:	fe843783          	ld	a5,-24(s0)
    80203bea:	e798                	sd	a4,8(a5)
/home/caigoubencai/Desktop/os_c/kernel/memory/mem/memory_set.c:9
  map_area->map_type = another->map_type;
    80203bec:	fe043783          	ld	a5,-32(s0)
    80203bf0:	0107c703          	lbu	a4,16(a5)
    80203bf4:	fe843783          	ld	a5,-24(s0)
    80203bf8:	00e78823          	sb	a4,16(a5)
/home/caigoubencai/Desktop/os_c/kernel/memory/mem/memory_set.c:10
  map_area->map_perm = another->map_perm;
    80203bfc:	fe043783          	ld	a5,-32(s0)
    80203c00:	0117c703          	lbu	a4,17(a5)
    80203c04:	fe843783          	ld	a5,-24(s0)
    80203c08:	00e788a3          	sb	a4,17(a5)
/home/caigoubencai/Desktop/os_c/kernel/memory/mem/memory_set.c:11
}
    80203c0c:	0001                	nop
    80203c0e:	6462                	ld	s0,24(sp)
    80203c10:	6105                	addi	sp,sp,32
    80203c12:	8082                	ret

0000000080203c14 <map_area_map_one>:
map_area_map_one():
/home/caigoubencai/Desktop/os_c/kernel/memory/mem/memory_set.c:14

static void map_area_map_one(MapArea *map_area, PageTable *pt,
                             VirtPageNum vpn) {
    80203c14:	7139                	addi	sp,sp,-64
    80203c16:	fc06                	sd	ra,56(sp)
    80203c18:	f822                	sd	s0,48(sp)
    80203c1a:	0080                	addi	s0,sp,64
    80203c1c:	fca43c23          	sd	a0,-40(s0)
    80203c20:	fcb43823          	sd	a1,-48(s0)
    80203c24:	fcc43423          	sd	a2,-56(s0)
/home/caigoubencai/Desktop/os_c/kernel/memory/mem/memory_set.c:16
  PhysPageNum ppn;
  if (map_area->map_type == MAP_IDENTICAL) {
    80203c28:	fd843783          	ld	a5,-40(s0)
    80203c2c:	0107c783          	lbu	a5,16(a5)
    80203c30:	e791                	bnez	a5,80203c3c <map_area_map_one+0x28>
/home/caigoubencai/Desktop/os_c/kernel/memory/mem/memory_set.c:17
    ppn = (PhysPageNum)vpn;
    80203c32:	fc843783          	ld	a5,-56(s0)
    80203c36:	fef43023          	sd	a5,-32(s0)
    80203c3a:	a031                	j	80203c46 <map_area_map_one+0x32>
/home/caigoubencai/Desktop/os_c/kernel/memory/mem/memory_set.c:19
  } else {
    ppn = frame_alloc();
    80203c3c:	032010ef          	jal	ra,80204c6e <frame_alloc>
    80203c40:	87aa                	mv	a5,a0
    80203c42:	fef43023          	sd	a5,-32(s0)
/home/caigoubencai/Desktop/os_c/kernel/memory/mem/memory_set.c:21
  }
  PTEFlags pte_flags = (PTEFlags)(map_area->map_perm);
    80203c46:	fd843783          	ld	a5,-40(s0)
    80203c4a:	0117c783          	lbu	a5,17(a5)
    80203c4e:	fef407a3          	sb	a5,-17(s0)
/home/caigoubencai/Desktop/os_c/kernel/memory/mem/memory_set.c:22
  page_table_map(pt, vpn, ppn, pte_flags);
    80203c52:	fe043783          	ld	a5,-32(s0)
    80203c56:	fef44703          	lbu	a4,-17(s0)
    80203c5a:	86ba                	mv	a3,a4
    80203c5c:	863e                	mv	a2,a5
    80203c5e:	fc843583          	ld	a1,-56(s0)
    80203c62:	fd043503          	ld	a0,-48(s0)
    80203c66:	492010ef          	jal	ra,802050f8 <page_table_map>
/home/caigoubencai/Desktop/os_c/kernel/memory/mem/memory_set.c:23
  vector_push(&pt->frames, &ppn);
    80203c6a:	fd043783          	ld	a5,-48(s0)
    80203c6e:	07a1                	addi	a5,a5,8
    80203c70:	fe040713          	addi	a4,s0,-32
    80203c74:	85ba                	mv	a1,a4
    80203c76:	853e                	mv	a0,a5
    80203c78:	3f4040ef          	jal	ra,8020806c <vector_push>
/home/caigoubencai/Desktop/os_c/kernel/memory/mem/memory_set.c:24
}
    80203c7c:	0001                	nop
    80203c7e:	70e2                	ld	ra,56(sp)
    80203c80:	7442                	ld	s0,48(sp)
    80203c82:	6121                	addi	sp,sp,64
    80203c84:	8082                	ret

0000000080203c86 <map_area_unmap_one>:
map_area_unmap_one():
/home/caigoubencai/Desktop/os_c/kernel/memory/mem/memory_set.c:27

static void map_area_unmap_one(MapArea *map_area, PageTable *pt,
                               VirtPageNum vpn, bool dealloc) {
    80203c86:	7139                	addi	sp,sp,-64
    80203c88:	fc06                	sd	ra,56(sp)
    80203c8a:	f822                	sd	s0,48(sp)
    80203c8c:	0080                	addi	s0,sp,64
    80203c8e:	fca43c23          	sd	a0,-40(s0)
    80203c92:	fcb43823          	sd	a1,-48(s0)
    80203c96:	fcc43423          	sd	a2,-56(s0)
    80203c9a:	87b6                	mv	a5,a3
    80203c9c:	fcf42223          	sw	a5,-60(s0)
/home/caigoubencai/Desktop/os_c/kernel/memory/mem/memory_set.c:28
  PhysPageNum ppn = pte_ppn(*page_table_translate(pt, vpn));
    80203ca0:	fc843583          	ld	a1,-56(s0)
    80203ca4:	fd043503          	ld	a0,-48(s0)
    80203ca8:	512010ef          	jal	ra,802051ba <page_table_translate>
    80203cac:	87aa                	mv	a5,a0
    80203cae:	639c                	ld	a5,0(a5)
    80203cb0:	00a7d713          	srli	a4,a5,0xa
    80203cb4:	57fd                	li	a5,-1
    80203cb6:	83d1                	srli	a5,a5,0x14
    80203cb8:	8ff9                	and	a5,a5,a4
    80203cba:	fef43423          	sd	a5,-24(s0)
/home/caigoubencai/Desktop/os_c/kernel/memory/mem/memory_set.c:29
  page_table_unmap(pt, vpn);
    80203cbe:	fc843583          	ld	a1,-56(s0)
    80203cc2:	fd043503          	ld	a0,-48(s0)
    80203cc6:	4a0010ef          	jal	ra,80205166 <page_table_unmap>
/home/caigoubencai/Desktop/os_c/kernel/memory/mem/memory_set.c:30
  if (dealloc) {
    80203cca:	fc442783          	lw	a5,-60(s0)
    80203cce:	2781                	sext.w	a5,a5
    80203cd0:	c789                	beqz	a5,80203cda <map_area_unmap_one+0x54>
/home/caigoubencai/Desktop/os_c/kernel/memory/mem/memory_set.c:31
    frame_dealloc(ppn);
    80203cd2:	fe843503          	ld	a0,-24(s0)
    80203cd6:	04c010ef          	jal	ra,80204d22 <frame_dealloc>
/home/caigoubencai/Desktop/os_c/kernel/memory/mem/memory_set.c:33
  }
}
    80203cda:	0001                	nop
    80203cdc:	70e2                	ld	ra,56(sp)
    80203cde:	7442                	ld	s0,48(sp)
    80203ce0:	6121                	addi	sp,sp,64
    80203ce2:	8082                	ret

0000000080203ce4 <map_area_map>:
map_area_map():
/home/caigoubencai/Desktop/os_c/kernel/memory/mem/memory_set.c:35

static void map_area_map(MapArea *map_area, PageTable *pt) {
    80203ce4:	7179                	addi	sp,sp,-48
    80203ce6:	f406                	sd	ra,40(sp)
    80203ce8:	f022                	sd	s0,32(sp)
    80203cea:	1800                	addi	s0,sp,48
    80203cec:	fca43c23          	sd	a0,-40(s0)
    80203cf0:	fcb43823          	sd	a1,-48(s0)
/home/caigoubencai/Desktop/os_c/kernel/memory/mem/memory_set.c:36
  for (VirtPageNum vpn = map_area->vpn_range.l; vpn < map_area->vpn_range.r;
    80203cf4:	fd843783          	ld	a5,-40(s0)
    80203cf8:	639c                	ld	a5,0(a5)
    80203cfa:	fef43423          	sd	a5,-24(s0)
    80203cfe:	a831                	j	80203d1a <map_area_map+0x36>
/home/caigoubencai/Desktop/os_c/kernel/memory/mem/memory_set.c:38
       vpn++) {
    map_area_map_one(map_area, pt, vpn);
    80203d00:	fe843603          	ld	a2,-24(s0)
    80203d04:	fd043583          	ld	a1,-48(s0)
    80203d08:	fd843503          	ld	a0,-40(s0)
    80203d0c:	f09ff0ef          	jal	ra,80203c14 <map_area_map_one>
/home/caigoubencai/Desktop/os_c/kernel/memory/mem/memory_set.c:37
       vpn++) {
    80203d10:	fe843783          	ld	a5,-24(s0)
    80203d14:	0785                	addi	a5,a5,1
    80203d16:	fef43423          	sd	a5,-24(s0)
/home/caigoubencai/Desktop/os_c/kernel/memory/mem/memory_set.c:36 (discriminator 1)
  for (VirtPageNum vpn = map_area->vpn_range.l; vpn < map_area->vpn_range.r;
    80203d1a:	fd843783          	ld	a5,-40(s0)
    80203d1e:	679c                	ld	a5,8(a5)
    80203d20:	fe843703          	ld	a4,-24(s0)
    80203d24:	fcf76ee3          	bltu	a4,a5,80203d00 <map_area_map+0x1c>
/home/caigoubencai/Desktop/os_c/kernel/memory/mem/memory_set.c:40
  }
}
    80203d28:	0001                	nop
    80203d2a:	0001                	nop
    80203d2c:	70a2                	ld	ra,40(sp)
    80203d2e:	7402                	ld	s0,32(sp)
    80203d30:	6145                	addi	sp,sp,48
    80203d32:	8082                	ret

0000000080203d34 <map_area_unmap>:
map_area_unmap():
/home/caigoubencai/Desktop/os_c/kernel/memory/mem/memory_set.c:42

static void map_area_unmap(MapArea *map_area, PageTable *pt, bool dealloc) {
    80203d34:	7139                	addi	sp,sp,-64
    80203d36:	fc06                	sd	ra,56(sp)
    80203d38:	f822                	sd	s0,48(sp)
    80203d3a:	0080                	addi	s0,sp,64
    80203d3c:	fca43c23          	sd	a0,-40(s0)
    80203d40:	fcb43823          	sd	a1,-48(s0)
    80203d44:	87b2                	mv	a5,a2
    80203d46:	fcf42623          	sw	a5,-52(s0)
/home/caigoubencai/Desktop/os_c/kernel/memory/mem/memory_set.c:43
  for (VirtPageNum vpn = map_area->vpn_range.l; vpn < map_area->vpn_range.r;
    80203d4a:	fd843783          	ld	a5,-40(s0)
    80203d4e:	639c                	ld	a5,0(a5)
    80203d50:	fef43423          	sd	a5,-24(s0)
    80203d54:	a00d                	j	80203d76 <map_area_unmap+0x42>
/home/caigoubencai/Desktop/os_c/kernel/memory/mem/memory_set.c:45
       vpn++) {
    map_area_unmap_one(map_area, pt, vpn, dealloc);
    80203d56:	fcc42783          	lw	a5,-52(s0)
    80203d5a:	86be                	mv	a3,a5
    80203d5c:	fe843603          	ld	a2,-24(s0)
    80203d60:	fd043583          	ld	a1,-48(s0)
    80203d64:	fd843503          	ld	a0,-40(s0)
    80203d68:	f1fff0ef          	jal	ra,80203c86 <map_area_unmap_one>
/home/caigoubencai/Desktop/os_c/kernel/memory/mem/memory_set.c:44
       vpn++) {
    80203d6c:	fe843783          	ld	a5,-24(s0)
    80203d70:	0785                	addi	a5,a5,1
    80203d72:	fef43423          	sd	a5,-24(s0)
/home/caigoubencai/Desktop/os_c/kernel/memory/mem/memory_set.c:43 (discriminator 1)
  for (VirtPageNum vpn = map_area->vpn_range.l; vpn < map_area->vpn_range.r;
    80203d76:	fd843783          	ld	a5,-40(s0)
    80203d7a:	679c                	ld	a5,8(a5)
    80203d7c:	fe843703          	ld	a4,-24(s0)
    80203d80:	fcf76be3          	bltu	a4,a5,80203d56 <map_area_unmap+0x22>
/home/caigoubencai/Desktop/os_c/kernel/memory/mem/memory_set.c:47
  }
}
    80203d84:	0001                	nop
    80203d86:	0001                	nop
    80203d88:	70e2                	ld	ra,56(sp)
    80203d8a:	7442                	ld	s0,48(sp)
    80203d8c:	6121                	addi	sp,sp,64
    80203d8e:	8082                	ret

0000000080203d90 <map_area_copy_data>:
map_area_copy_data():
/home/caigoubencai/Desktop/os_c/kernel/memory/mem/memory_set.c:50

static void map_area_copy_data(MapArea *map_area, PageTable *pt, uint8_t *data,
                               uint64_t len) {
    80203d90:	711d                	addi	sp,sp,-96
    80203d92:	ec86                	sd	ra,88(sp)
    80203d94:	e8a2                	sd	s0,80(sp)
    80203d96:	1080                	addi	s0,sp,96
    80203d98:	faa43c23          	sd	a0,-72(s0)
    80203d9c:	fab43823          	sd	a1,-80(s0)
    80203da0:	fac43423          	sd	a2,-88(s0)
    80203da4:	fad43023          	sd	a3,-96(s0)
/home/caigoubencai/Desktop/os_c/kernel/memory/mem/memory_set.c:51
  uint64_t start = 0;
    80203da8:	fe043423          	sd	zero,-24(s0)
/home/caigoubencai/Desktop/os_c/kernel/memory/mem/memory_set.c:52
  VirtPageNum current_vpn = map_area->vpn_range.l;
    80203dac:	fb843783          	ld	a5,-72(s0)
    80203db0:	639c                	ld	a5,0(a5)
    80203db2:	fef43023          	sd	a5,-32(s0)
/home/caigoubencai/Desktop/os_c/kernel/memory/mem/memory_set.c:54
  for (;;) {
    uint8_t *src = &data[start];
    80203db6:	fa843703          	ld	a4,-88(s0)
    80203dba:	fe843783          	ld	a5,-24(s0)
    80203dbe:	97ba                	add	a5,a5,a4
    80203dc0:	fcf43c23          	sd	a5,-40(s0)
/home/caigoubencai/Desktop/os_c/kernel/memory/mem/memory_set.c:56
    uint8_t *dst =
        ppn_get_bytes_array(pte_ppn(*page_table_translate(pt, current_vpn)));
    80203dc4:	fe043583          	ld	a1,-32(s0)
    80203dc8:	fb043503          	ld	a0,-80(s0)
    80203dcc:	3ee010ef          	jal	ra,802051ba <page_table_translate>
    80203dd0:	87aa                	mv	a5,a0
    80203dd2:	639c                	ld	a5,0(a5)
    80203dd4:	00a7d713          	srli	a4,a5,0xa
    80203dd8:	57fd                	li	a5,-1
    80203dda:	83d1                	srli	a5,a5,0x14
    80203ddc:	8ff9                	and	a5,a5,a4
    80203dde:	853e                	mv	a0,a5
    80203de0:	607000ef          	jal	ra,80204be6 <ppn_get_bytes_array>
    80203de4:	fca43823          	sd	a0,-48(s0)
/home/caigoubencai/Desktop/os_c/kernel/memory/mem/memory_set.c:57
    uint64_t cpy_len = (len - start >= PAGE_SIZE) ? PAGE_SIZE : (len - start);
    80203de8:	fa043703          	ld	a4,-96(s0)
    80203dec:	fe843783          	ld	a5,-24(s0)
    80203df0:	40f707b3          	sub	a5,a4,a5
    80203df4:	6705                	lui	a4,0x1
    80203df6:	00f77363          	bgeu	a4,a5,80203dfc <map_area_copy_data+0x6c>
    80203dfa:	6785                	lui	a5,0x1
    80203dfc:	fcf43423          	sd	a5,-56(s0)
/home/caigoubencai/Desktop/os_c/kernel/memory/mem/memory_set.c:58
    memcpy(dst, src, cpy_len);
    80203e00:	fc843783          	ld	a5,-56(s0)
    80203e04:	2781                	sext.w	a5,a5
    80203e06:	863e                	mv	a2,a5
    80203e08:	fd843583          	ld	a1,-40(s0)
    80203e0c:	fd043503          	ld	a0,-48(s0)
    80203e10:	933ff0ef          	jal	ra,80203742 <memcpy>
/home/caigoubencai/Desktop/os_c/kernel/memory/mem/memory_set.c:59
    start += PAGE_SIZE;
    80203e14:	fe843703          	ld	a4,-24(s0)
    80203e18:	6785                	lui	a5,0x1
    80203e1a:	97ba                	add	a5,a5,a4
    80203e1c:	fef43423          	sd	a5,-24(s0)
/home/caigoubencai/Desktop/os_c/kernel/memory/mem/memory_set.c:60
    if (start >= len) {
    80203e20:	fe843703          	ld	a4,-24(s0)
    80203e24:	fa043783          	ld	a5,-96(s0)
    80203e28:	00f77863          	bgeu	a4,a5,80203e38 <map_area_copy_data+0xa8>
/home/caigoubencai/Desktop/os_c/kernel/memory/mem/memory_set.c:63
      break;
    }
    current_vpn += 1;
    80203e2c:	fe043783          	ld	a5,-32(s0)
    80203e30:	0785                	addi	a5,a5,1
    80203e32:	fef43023          	sd	a5,-32(s0)
/home/caigoubencai/Desktop/os_c/kernel/memory/mem/memory_set.c:53
  for (;;) {
    80203e36:	b741                	j	80203db6 <map_area_copy_data+0x26>
/home/caigoubencai/Desktop/os_c/kernel/memory/mem/memory_set.c:61
      break;
    80203e38:	0001                	nop
/home/caigoubencai/Desktop/os_c/kernel/memory/mem/memory_set.c:65
  }
}
    80203e3a:	0001                	nop
    80203e3c:	60e6                	ld	ra,88(sp)
    80203e3e:	6446                	ld	s0,80(sp)
    80203e40:	6125                	addi	sp,sp,96
    80203e42:	8082                	ret

0000000080203e44 <memory_set_new_bare>:
memory_set_new_bare():
/home/caigoubencai/Desktop/os_c/kernel/memory/mem/memory_set.c:67

static void memory_set_new_bare(MemorySet *memory_set) {
    80203e44:	1101                	addi	sp,sp,-32
    80203e46:	ec06                	sd	ra,24(sp)
    80203e48:	e822                	sd	s0,16(sp)
    80203e4a:	1000                	addi	s0,sp,32
    80203e4c:	fea43423          	sd	a0,-24(s0)
/home/caigoubencai/Desktop/os_c/kernel/memory/mem/memory_set.c:68
  page_table_new(&memory_set->page_table);
    80203e50:	fe843783          	ld	a5,-24(s0)
    80203e54:	853e                	mv	a0,a5
    80203e56:	03c010ef          	jal	ra,80204e92 <page_table_new>
/home/caigoubencai/Desktop/os_c/kernel/memory/mem/memory_set.c:69
  vector_new(&memory_set->areas, sizeof(MapArea));
    80203e5a:	fe843783          	ld	a5,-24(s0)
    80203e5e:	02878793          	addi	a5,a5,40 # 1028 <n+0x1008>
    80203e62:	45e1                	li	a1,24
    80203e64:	853e                	mv	a0,a5
    80203e66:	1b4040ef          	jal	ra,8020801a <vector_new>
/home/caigoubencai/Desktop/os_c/kernel/memory/mem/memory_set.c:70
}
    80203e6a:	0001                	nop
    80203e6c:	60e2                	ld	ra,24(sp)
    80203e6e:	6442                	ld	s0,16(sp)
    80203e70:	6105                	addi	sp,sp,32
    80203e72:	8082                	ret

0000000080203e74 <memory_set_token>:
memory_set_token():
/home/caigoubencai/Desktop/os_c/kernel/memory/mem/memory_set.c:72

uint64_t memory_set_token(MemorySet *memory_set) {
    80203e74:	1101                	addi	sp,sp,-32
    80203e76:	ec06                	sd	ra,24(sp)
    80203e78:	e822                	sd	s0,16(sp)
    80203e7a:	1000                	addi	s0,sp,32
    80203e7c:	fea43423          	sd	a0,-24(s0)
/home/caigoubencai/Desktop/os_c/kernel/memory/mem/memory_set.c:73
  return page_table_token(&memory_set->page_table);
    80203e80:	fe843783          	ld	a5,-24(s0)
    80203e84:	853e                	mv	a0,a5
    80203e86:	380010ef          	jal	ra,80205206 <page_table_token>
    80203e8a:	87aa                	mv	a5,a0
/home/caigoubencai/Desktop/os_c/kernel/memory/mem/memory_set.c:74
}
    80203e8c:	853e                	mv	a0,a5
    80203e8e:	60e2                	ld	ra,24(sp)
    80203e90:	6442                	ld	s0,16(sp)
    80203e92:	6105                	addi	sp,sp,32
    80203e94:	8082                	ret

0000000080203e96 <memory_set_push>:
memory_set_push():
/home/caigoubencai/Desktop/os_c/kernel/memory/mem/memory_set.c:77

static void memory_set_push(MemorySet *memory_set, MapArea *map_area,
                            uint8_t *data, uint64_t len) {
    80203e96:	7179                	addi	sp,sp,-48
    80203e98:	f406                	sd	ra,40(sp)
    80203e9a:	f022                	sd	s0,32(sp)
    80203e9c:	1800                	addi	s0,sp,48
    80203e9e:	fea43423          	sd	a0,-24(s0)
    80203ea2:	feb43023          	sd	a1,-32(s0)
    80203ea6:	fcc43c23          	sd	a2,-40(s0)
    80203eaa:	fcd43823          	sd	a3,-48(s0)
/home/caigoubencai/Desktop/os_c/kernel/memory/mem/memory_set.c:78
  map_area_map(map_area, &memory_set->page_table);
    80203eae:	fe843783          	ld	a5,-24(s0)
    80203eb2:	85be                	mv	a1,a5
    80203eb4:	fe043503          	ld	a0,-32(s0)
    80203eb8:	e2dff0ef          	jal	ra,80203ce4 <map_area_map>
/home/caigoubencai/Desktop/os_c/kernel/memory/mem/memory_set.c:79
  if (data && len >= 0) {
    80203ebc:	fd843783          	ld	a5,-40(s0)
    80203ec0:	cf81                	beqz	a5,80203ed8 <memory_set_push+0x42>
/home/caigoubencai/Desktop/os_c/kernel/memory/mem/memory_set.c:80
    map_area_copy_data(map_area, &memory_set->page_table, data, len);
    80203ec2:	fe843783          	ld	a5,-24(s0)
    80203ec6:	fd043683          	ld	a3,-48(s0)
    80203eca:	fd843603          	ld	a2,-40(s0)
    80203ece:	85be                	mv	a1,a5
    80203ed0:	fe043503          	ld	a0,-32(s0)
    80203ed4:	ebdff0ef          	jal	ra,80203d90 <map_area_copy_data>
/home/caigoubencai/Desktop/os_c/kernel/memory/mem/memory_set.c:82
  }
  vector_push(&memory_set->areas, map_area);
    80203ed8:	fe843783          	ld	a5,-24(s0)
    80203edc:	02878793          	addi	a5,a5,40
    80203ee0:	fe043583          	ld	a1,-32(s0)
    80203ee4:	853e                	mv	a0,a5
    80203ee6:	186040ef          	jal	ra,8020806c <vector_push>
/home/caigoubencai/Desktop/os_c/kernel/memory/mem/memory_set.c:83
}
    80203eea:	0001                	nop
    80203eec:	70a2                	ld	ra,40(sp)
    80203eee:	7402                	ld	s0,32(sp)
    80203ef0:	6145                	addi	sp,sp,48
    80203ef2:	8082                	ret

0000000080203ef4 <memory_set_insert_framed_area>:
memory_set_insert_framed_area():
/home/caigoubencai/Desktop/os_c/kernel/memory/mem/memory_set.c:88

// Assume that no conflicts.
static void memory_set_insert_framed_area(MemorySet *memory_set,
                                          VirtAddr start_va, VirtAddr end_va,
                                          MapPermission permission) {
    80203ef4:	715d                	addi	sp,sp,-80
    80203ef6:	e486                	sd	ra,72(sp)
    80203ef8:	e0a2                	sd	s0,64(sp)
    80203efa:	0880                	addi	s0,sp,80
    80203efc:	fca43423          	sd	a0,-56(s0)
    80203f00:	fcb43023          	sd	a1,-64(s0)
    80203f04:	fac43c23          	sd	a2,-72(s0)
    80203f08:	87b6                	mv	a5,a3
    80203f0a:	faf40ba3          	sb	a5,-73(s0)
/home/caigoubencai/Desktop/os_c/kernel/memory/mem/memory_set.c:90
  MapArea map_area;
  map_area.vpn_range.l = page_floor(start_va);
    80203f0e:	fc043783          	ld	a5,-64(s0)
    80203f12:	83b1                	srli	a5,a5,0xc
    80203f14:	fcf43c23          	sd	a5,-40(s0)
/home/caigoubencai/Desktop/os_c/kernel/memory/mem/memory_set.c:91
  map_area.vpn_range.r = page_ceil(end_va);
    80203f18:	fb843703          	ld	a4,-72(s0)
    80203f1c:	6785                	lui	a5,0x1
    80203f1e:	17fd                	addi	a5,a5,-1
    80203f20:	97ba                	add	a5,a5,a4
    80203f22:	83b1                	srli	a5,a5,0xc
    80203f24:	fef43023          	sd	a5,-32(s0)
/home/caigoubencai/Desktop/os_c/kernel/memory/mem/memory_set.c:92
  map_area.map_type = MAP_FRAMED;
    80203f28:	4785                	li	a5,1
    80203f2a:	fef40423          	sb	a5,-24(s0)
/home/caigoubencai/Desktop/os_c/kernel/memory/mem/memory_set.c:93
  map_area.map_perm = permission;
    80203f2e:	fb744783          	lbu	a5,-73(s0)
    80203f32:	fef404a3          	sb	a5,-23(s0)
/home/caigoubencai/Desktop/os_c/kernel/memory/mem/memory_set.c:94
  memory_set_push(memory_set, &map_area, NULL, 0);
    80203f36:	fd840793          	addi	a5,s0,-40
    80203f3a:	4681                	li	a3,0
    80203f3c:	4601                	li	a2,0
    80203f3e:	85be                	mv	a1,a5
    80203f40:	fc843503          	ld	a0,-56(s0)
    80203f44:	f53ff0ef          	jal	ra,80203e96 <memory_set_push>
/home/caigoubencai/Desktop/os_c/kernel/memory/mem/memory_set.c:95
}
    80203f48:	0001                	nop
    80203f4a:	60a6                	ld	ra,72(sp)
    80203f4c:	6406                	ld	s0,64(sp)
    80203f4e:	6161                	addi	sp,sp,80
    80203f50:	8082                	ret

0000000080203f52 <memory_set_remove_area_with_start_vpn>:
memory_set_remove_area_with_start_vpn():
/home/caigoubencai/Desktop/os_c/kernel/memory/mem/memory_set.c:98

static void memory_set_remove_area_with_start_vpn(MemorySet *memory_set,
                                                  VirtPageNum start_vpn) {
    80203f52:	7179                	addi	sp,sp,-48
    80203f54:	f406                	sd	ra,40(sp)
    80203f56:	f022                	sd	s0,32(sp)
    80203f58:	1800                	addi	s0,sp,48
    80203f5a:	fca43c23          	sd	a0,-40(s0)
    80203f5e:	fcb43823          	sd	a1,-48(s0)
/home/caigoubencai/Desktop/os_c/kernel/memory/mem/memory_set.c:99
  MapArea *x = (MapArea *)(memory_set->areas.buffer);
    80203f62:	fd843783          	ld	a5,-40(s0)
    80203f66:	63bc                	ld	a5,64(a5)
    80203f68:	fef43023          	sd	a5,-32(s0)
/home/caigoubencai/Desktop/os_c/kernel/memory/mem/memory_set.c:100
  uint64_t i = 0;
    80203f6c:	fe043423          	sd	zero,-24(s0)
/home/caigoubencai/Desktop/os_c/kernel/memory/mem/memory_set.c:101
  while (i < memory_set->areas.size) {
    80203f70:	a085                	j	80203fd0 <memory_set_remove_area_with_start_vpn+0x7e>
/home/caigoubencai/Desktop/os_c/kernel/memory/mem/memory_set.c:102
    if (x[i].vpn_range.l == start_vpn) {
    80203f72:	fe843703          	ld	a4,-24(s0)
    80203f76:	87ba                	mv	a5,a4
    80203f78:	0786                	slli	a5,a5,0x1
    80203f7a:	97ba                	add	a5,a5,a4
    80203f7c:	078e                	slli	a5,a5,0x3
    80203f7e:	873e                	mv	a4,a5
    80203f80:	fe043783          	ld	a5,-32(s0)
    80203f84:	97ba                	add	a5,a5,a4
    80203f86:	639c                	ld	a5,0(a5)
    80203f88:	fd043703          	ld	a4,-48(s0)
    80203f8c:	02f71d63          	bne	a4,a5,80203fc6 <memory_set_remove_area_with_start_vpn+0x74>
/home/caigoubencai/Desktop/os_c/kernel/memory/mem/memory_set.c:103
      map_area_unmap(&x[i], &memory_set->page_table, true);
    80203f90:	fe843703          	ld	a4,-24(s0)
    80203f94:	87ba                	mv	a5,a4
    80203f96:	0786                	slli	a5,a5,0x1
    80203f98:	97ba                	add	a5,a5,a4
    80203f9a:	078e                	slli	a5,a5,0x3
    80203f9c:	873e                	mv	a4,a5
    80203f9e:	fe043783          	ld	a5,-32(s0)
    80203fa2:	97ba                	add	a5,a5,a4
    80203fa4:	fd843703          	ld	a4,-40(s0)
    80203fa8:	4605                	li	a2,1
    80203faa:	85ba                	mv	a1,a4
    80203fac:	853e                	mv	a0,a5
    80203fae:	d87ff0ef          	jal	ra,80203d34 <map_area_unmap>
/home/caigoubencai/Desktop/os_c/kernel/memory/mem/memory_set.c:104
      vector_remove(&memory_set->areas, i);
    80203fb2:	fd843783          	ld	a5,-40(s0)
    80203fb6:	02878793          	addi	a5,a5,40 # 1028 <n+0x1008>
    80203fba:	fe843583          	ld	a1,-24(s0)
    80203fbe:	853e                	mv	a0,a5
    80203fc0:	250040ef          	jal	ra,80208210 <vector_remove>
    80203fc4:	a031                	j	80203fd0 <memory_set_remove_area_with_start_vpn+0x7e>
/home/caigoubencai/Desktop/os_c/kernel/memory/mem/memory_set.c:106
    } else {
      i++;
    80203fc6:	fe843783          	ld	a5,-24(s0)
    80203fca:	0785                	addi	a5,a5,1
    80203fcc:	fef43423          	sd	a5,-24(s0)
/home/caigoubencai/Desktop/os_c/kernel/memory/mem/memory_set.c:101
  while (i < memory_set->areas.size) {
    80203fd0:	fd843783          	ld	a5,-40(s0)
    80203fd4:	779c                	ld	a5,40(a5)
    80203fd6:	fe843703          	ld	a4,-24(s0)
    80203fda:	f8f76ce3          	bltu	a4,a5,80203f72 <memory_set_remove_area_with_start_vpn+0x20>
/home/caigoubencai/Desktop/os_c/kernel/memory/mem/memory_set.c:109
    }
  }
}
    80203fde:	0001                	nop
    80203fe0:	0001                	nop
    80203fe2:	70a2                	ld	ra,40(sp)
    80203fe4:	7402                	ld	s0,32(sp)
    80203fe6:	6145                	addi	sp,sp,48
    80203fe8:	8082                	ret

0000000080203fea <memory_set_free>:
memory_set_free():
/home/caigoubencai/Desktop/os_c/kernel/memory/mem/memory_set.c:111

void memory_set_free(MemorySet *memory_set) {
    80203fea:	7179                	addi	sp,sp,-48
    80203fec:	f406                	sd	ra,40(sp)
    80203fee:	f022                	sd	s0,32(sp)
    80203ff0:	1800                	addi	s0,sp,48
    80203ff2:	fca43c23          	sd	a0,-40(s0)
/home/caigoubencai/Desktop/os_c/kernel/memory/mem/memory_set.c:112
  MapArea *x = (MapArea *)(memory_set->areas.buffer);
    80203ff6:	fd843783          	ld	a5,-40(s0)
    80203ffa:	63bc                	ld	a5,64(a5)
    80203ffc:	fef43023          	sd	a5,-32(s0)
/home/caigoubencai/Desktop/os_c/kernel/memory/mem/memory_set.c:113
  for (uint64_t i = 0; i < memory_set->areas.size; i++) {
    80204000:	fe043423          	sd	zero,-24(s0)
    80204004:	a03d                	j	80204032 <memory_set_free+0x48>
/home/caigoubencai/Desktop/os_c/kernel/memory/mem/memory_set.c:114 (discriminator 3)
    map_area_unmap(&x[i], &memory_set->page_table, false);
    80204006:	fe843703          	ld	a4,-24(s0)
    8020400a:	87ba                	mv	a5,a4
    8020400c:	0786                	slli	a5,a5,0x1
    8020400e:	97ba                	add	a5,a5,a4
    80204010:	078e                	slli	a5,a5,0x3
    80204012:	873e                	mv	a4,a5
    80204014:	fe043783          	ld	a5,-32(s0)
    80204018:	97ba                	add	a5,a5,a4
    8020401a:	fd843703          	ld	a4,-40(s0)
    8020401e:	4601                	li	a2,0
    80204020:	85ba                	mv	a1,a4
    80204022:	853e                	mv	a0,a5
    80204024:	d11ff0ef          	jal	ra,80203d34 <map_area_unmap>
/home/caigoubencai/Desktop/os_c/kernel/memory/mem/memory_set.c:113 (discriminator 3)
  for (uint64_t i = 0; i < memory_set->areas.size; i++) {
    80204028:	fe843783          	ld	a5,-24(s0)
    8020402c:	0785                	addi	a5,a5,1
    8020402e:	fef43423          	sd	a5,-24(s0)
/home/caigoubencai/Desktop/os_c/kernel/memory/mem/memory_set.c:113 (discriminator 1)
    80204032:	fd843783          	ld	a5,-40(s0)
    80204036:	779c                	ld	a5,40(a5)
    80204038:	fe843703          	ld	a4,-24(s0)
    8020403c:	fcf765e3          	bltu	a4,a5,80204006 <memory_set_free+0x1c>
/home/caigoubencai/Desktop/os_c/kernel/memory/mem/memory_set.c:116
  }
  vector_free(&memory_set->areas);
    80204040:	fd843783          	ld	a5,-40(s0)
    80204044:	02878793          	addi	a5,a5,40
    80204048:	853e                	mv	a0,a5
    8020404a:	1a4040ef          	jal	ra,802081ee <vector_free>
/home/caigoubencai/Desktop/os_c/kernel/memory/mem/memory_set.c:117
  page_table_free(&memory_set->page_table);
    8020404e:	fd843783          	ld	a5,-40(s0)
    80204052:	853e                	mv	a0,a5
    80204054:	689000ef          	jal	ra,80204edc <page_table_free>
/home/caigoubencai/Desktop/os_c/kernel/memory/mem/memory_set.c:118
}
    80204058:	0001                	nop
    8020405a:	70a2                	ld	ra,40(sp)
    8020405c:	7402                	ld	s0,32(sp)
    8020405e:	6145                	addi	sp,sp,48
    80204060:	8082                	ret

0000000080204062 <memory_set_map_trampoline>:
memory_set_map_trampoline():
/home/caigoubencai/Desktop/os_c/kernel/memory/mem/memory_set.c:132
extern uint8_t ebss;
extern uint8_t ekernel;
extern uint8_t strampoline;

// Mention that trampoline is not collected by areas.
static inline void memory_set_map_trampoline(MemorySet *memory_set) {
    80204062:	1101                	addi	sp,sp,-32
    80204064:	ec06                	sd	ra,24(sp)
    80204066:	e822                	sd	s0,16(sp)
    80204068:	1000                	addi	s0,sp,32
    8020406a:	fea43423          	sd	a0,-24(s0)
/home/caigoubencai/Desktop/os_c/kernel/memory/mem/memory_set.c:133
  page_table_map(&memory_set->page_table, addr2pn(TRAMPOLINE),
    8020406e:	fe843703          	ld	a4,-24(s0)
/home/caigoubencai/Desktop/os_c/kernel/memory/mem/memory_set.c:134
                 addr2pn((PhysAddr)&strampoline), PTE_R | PTE_X);
    80204072:	ffffd797          	auipc	a5,0xffffd
    80204076:	f8e78793          	addi	a5,a5,-114 # 80201000 <__alltraps>
/home/caigoubencai/Desktop/os_c/kernel/memory/mem/memory_set.c:133
  page_table_map(&memory_set->page_table, addr2pn(TRAMPOLINE),
    8020407a:	83b1                	srli	a5,a5,0xc
    8020407c:	46a9                	li	a3,10
    8020407e:	863e                	mv	a2,a5
    80204080:	57fd                	li	a5,-1
    80204082:	00c7d593          	srli	a1,a5,0xc
    80204086:	853a                	mv	a0,a4
    80204088:	070010ef          	jal	ra,802050f8 <page_table_map>
/home/caigoubencai/Desktop/os_c/kernel/memory/mem/memory_set.c:135
}
    8020408c:	0001                	nop
    8020408e:	60e2                	ld	ra,24(sp)
    80204090:	6442                	ld	s0,16(sp)
    80204092:	6105                	addi	sp,sp,32
    80204094:	8082                	ret

0000000080204096 <memory_set_new_kernel>:
memory_set_new_kernel():
/home/caigoubencai/Desktop/os_c/kernel/memory/mem/memory_set.c:138

static MemorySet KERNEL_SPACE;
static void memory_set_new_kernel() {
    80204096:	7179                	addi	sp,sp,-48
    80204098:	f406                	sd	ra,40(sp)
    8020409a:	f022                	sd	s0,32(sp)
    8020409c:	1800                	addi	s0,sp,48
/home/caigoubencai/Desktop/os_c/kernel/memory/mem/memory_set.c:139
  MemorySet *memory_set = &KERNEL_SPACE;
    8020409e:	0081e797          	auipc	a5,0x81e
    802040a2:	f6a78793          	addi	a5,a5,-150 # 80a22008 <KERNEL_SPACE>
    802040a6:	fef43423          	sd	a5,-24(s0)
/home/caigoubencai/Desktop/os_c/kernel/memory/mem/memory_set.c:140
  memory_set_new_bare(memory_set);
    802040aa:	fe843503          	ld	a0,-24(s0)
    802040ae:	d97ff0ef          	jal	ra,80203e44 <memory_set_new_bare>
/home/caigoubencai/Desktop/os_c/kernel/memory/mem/memory_set.c:143

  // map trampoline
  memory_set_map_trampoline(memory_set);
    802040b2:	fe843503          	ld	a0,-24(s0)
    802040b6:	fadff0ef          	jal	ra,80204062 <memory_set_map_trampoline>
/home/caigoubencai/Desktop/os_c/kernel/memory/mem/memory_set.c:154
  // info("boot_stack [0x%llx, 0x%llx)\n", &sbss_with_stack, &ebss);

  MapArea map_area;

  // info("mapping .text section\n");
  map_area.vpn_range.l = page_floor((PhysAddr)&stext);
    802040ba:	ffffc797          	auipc	a5,0xffffc
    802040be:	f4678793          	addi	a5,a5,-186 # 80200000 <_start>
    802040c2:	83b1                	srli	a5,a5,0xc
    802040c4:	fcf43823          	sd	a5,-48(s0)
/home/caigoubencai/Desktop/os_c/kernel/memory/mem/memory_set.c:155
  map_area.vpn_range.r = page_ceil((PhysAddr)&etext);
    802040c8:	00005717          	auipc	a4,0x5
    802040cc:	f3870713          	addi	a4,a4,-200 # 80209000 <etext>
    802040d0:	6785                	lui	a5,0x1
    802040d2:	17fd                	addi	a5,a5,-1
    802040d4:	97ba                	add	a5,a5,a4
    802040d6:	83b1                	srli	a5,a5,0xc
    802040d8:	fcf43c23          	sd	a5,-40(s0)
/home/caigoubencai/Desktop/os_c/kernel/memory/mem/memory_set.c:156
  map_area.map_type = MAP_IDENTICAL;
    802040dc:	fe040023          	sb	zero,-32(s0)
/home/caigoubencai/Desktop/os_c/kernel/memory/mem/memory_set.c:157
  map_area.map_perm = MAP_PERM_R | MAP_PERM_X;
    802040e0:	47a9                	li	a5,10
    802040e2:	fef400a3          	sb	a5,-31(s0)
/home/caigoubencai/Desktop/os_c/kernel/memory/mem/memory_set.c:158
  memory_set_push(memory_set, &map_area, NULL, 0);
    802040e6:	fd040793          	addi	a5,s0,-48
    802040ea:	4681                	li	a3,0
    802040ec:	4601                	li	a2,0
    802040ee:	85be                	mv	a1,a5
    802040f0:	fe843503          	ld	a0,-24(s0)
    802040f4:	da3ff0ef          	jal	ra,80203e96 <memory_set_push>
/home/caigoubencai/Desktop/os_c/kernel/memory/mem/memory_set.c:161

  // info("mapping .rodata section\n");
  map_area.vpn_range.l = page_floor((PhysAddr)&srodata);
    802040f8:	00005797          	auipc	a5,0x5
    802040fc:	f0878793          	addi	a5,a5,-248 # 80209000 <etext>
    80204100:	83b1                	srli	a5,a5,0xc
    80204102:	fcf43823          	sd	a5,-48(s0)
/home/caigoubencai/Desktop/os_c/kernel/memory/mem/memory_set.c:162
  map_area.vpn_range.r = page_ceil((PhysAddr)&erodata);
    80204106:	00006717          	auipc	a4,0x6
    8020410a:	efa70713          	addi	a4,a4,-262 # 8020a000 <app_starts.1>
    8020410e:	6785                	lui	a5,0x1
    80204110:	17fd                	addi	a5,a5,-1
    80204112:	97ba                	add	a5,a5,a4
    80204114:	83b1                	srli	a5,a5,0xc
    80204116:	fcf43c23          	sd	a5,-40(s0)
/home/caigoubencai/Desktop/os_c/kernel/memory/mem/memory_set.c:163
  map_area.map_type = MAP_IDENTICAL;
    8020411a:	fe040023          	sb	zero,-32(s0)
/home/caigoubencai/Desktop/os_c/kernel/memory/mem/memory_set.c:164
  map_area.map_perm = MAP_PERM_R;
    8020411e:	4789                	li	a5,2
    80204120:	fef400a3          	sb	a5,-31(s0)
/home/caigoubencai/Desktop/os_c/kernel/memory/mem/memory_set.c:165
  memory_set_push(memory_set, &map_area, NULL, 0);
    80204124:	fd040793          	addi	a5,s0,-48
    80204128:	4681                	li	a3,0
    8020412a:	4601                	li	a2,0
    8020412c:	85be                	mv	a1,a5
    8020412e:	fe843503          	ld	a0,-24(s0)
    80204132:	d65ff0ef          	jal	ra,80203e96 <memory_set_push>
/home/caigoubencai/Desktop/os_c/kernel/memory/mem/memory_set.c:168

  // info("mapping .data section\n");
  map_area.vpn_range.l = page_floor((PhysAddr)&sdata);
    80204136:	00006797          	auipc	a5,0x6
    8020413a:	eca78793          	addi	a5,a5,-310 # 8020a000 <app_starts.1>
    8020413e:	83b1                	srli	a5,a5,0xc
    80204140:	fcf43823          	sd	a5,-48(s0)
/home/caigoubencai/Desktop/os_c/kernel/memory/mem/memory_set.c:169
  map_area.vpn_range.r = page_ceil((PhysAddr)&edata);
    80204144:	0000e717          	auipc	a4,0xe
    80204148:	ebc70713          	addi	a4,a4,-324 # 80212000 <boot_stack_lower_bound>
    8020414c:	6785                	lui	a5,0x1
    8020414e:	17fd                	addi	a5,a5,-1
    80204150:	97ba                	add	a5,a5,a4
    80204152:	83b1                	srli	a5,a5,0xc
    80204154:	fcf43c23          	sd	a5,-40(s0)
/home/caigoubencai/Desktop/os_c/kernel/memory/mem/memory_set.c:170
  map_area.map_type = MAP_IDENTICAL;
    80204158:	fe040023          	sb	zero,-32(s0)
/home/caigoubencai/Desktop/os_c/kernel/memory/mem/memory_set.c:171
  map_area.map_perm = MAP_PERM_R | MAP_PERM_W;
    8020415c:	4799                	li	a5,6
    8020415e:	fef400a3          	sb	a5,-31(s0)
/home/caigoubencai/Desktop/os_c/kernel/memory/mem/memory_set.c:172
  memory_set_push(memory_set, &map_area, NULL, 0);
    80204162:	fd040793          	addi	a5,s0,-48
    80204166:	4681                	li	a3,0
    80204168:	4601                	li	a2,0
    8020416a:	85be                	mv	a1,a5
    8020416c:	fe843503          	ld	a0,-24(s0)
    80204170:	d27ff0ef          	jal	ra,80203e96 <memory_set_push>
/home/caigoubencai/Desktop/os_c/kernel/memory/mem/memory_set.c:175

  // info("mapping .bss section\n");
  map_area.vpn_range.l = page_floor((PhysAddr)&sbss_with_stack);
    80204174:	0000e797          	auipc	a5,0xe
    80204178:	e8c78793          	addi	a5,a5,-372 # 80212000 <boot_stack_lower_bound>
    8020417c:	83b1                	srli	a5,a5,0xc
    8020417e:	fcf43823          	sd	a5,-48(s0)
/home/caigoubencai/Desktop/os_c/kernel/memory/mem/memory_set.c:176
  map_area.vpn_range.r = page_ceil((PhysAddr)&ebss);
    80204182:	00b22717          	auipc	a4,0xb22
    80204186:	e7e70713          	addi	a4,a4,-386 # 80d26000 <ebss>
    8020418a:	6785                	lui	a5,0x1
    8020418c:	17fd                	addi	a5,a5,-1
    8020418e:	97ba                	add	a5,a5,a4
    80204190:	83b1                	srli	a5,a5,0xc
    80204192:	fcf43c23          	sd	a5,-40(s0)
/home/caigoubencai/Desktop/os_c/kernel/memory/mem/memory_set.c:177
  map_area.map_type = MAP_IDENTICAL;
    80204196:	fe040023          	sb	zero,-32(s0)
/home/caigoubencai/Desktop/os_c/kernel/memory/mem/memory_set.c:178
  map_area.map_perm = MAP_PERM_R | MAP_PERM_W;
    8020419a:	4799                	li	a5,6
    8020419c:	fef400a3          	sb	a5,-31(s0)
/home/caigoubencai/Desktop/os_c/kernel/memory/mem/memory_set.c:179
  memory_set_push(memory_set, &map_area, NULL, 0);
    802041a0:	fd040793          	addi	a5,s0,-48
    802041a4:	4681                	li	a3,0
    802041a6:	4601                	li	a2,0
    802041a8:	85be                	mv	a1,a5
    802041aa:	fe843503          	ld	a0,-24(s0)
    802041ae:	ce9ff0ef          	jal	ra,80203e96 <memory_set_push>
/home/caigoubencai/Desktop/os_c/kernel/memory/mem/memory_set.c:182

  // info("mapping physical memory\n");
  map_area.vpn_range.l = page_floor((PhysAddr)&ekernel);
    802041b2:	00b22797          	auipc	a5,0xb22
    802041b6:	e4e78793          	addi	a5,a5,-434 # 80d26000 <ebss>
    802041ba:	83b1                	srli	a5,a5,0xc
    802041bc:	fcf43823          	sd	a5,-48(s0)
/home/caigoubencai/Desktop/os_c/kernel/memory/mem/memory_set.c:183
  map_area.vpn_range.r = page_ceil((PhysAddr)MEMORY_END);
    802041c0:	000817b7          	lui	a5,0x81
    802041c4:	fcf43c23          	sd	a5,-40(s0)
/home/caigoubencai/Desktop/os_c/kernel/memory/mem/memory_set.c:184
  map_area.map_type = MAP_IDENTICAL;
    802041c8:	fe040023          	sb	zero,-32(s0)
/home/caigoubencai/Desktop/os_c/kernel/memory/mem/memory_set.c:185
  map_area.map_perm = MAP_PERM_R | MAP_PERM_W;
    802041cc:	4799                	li	a5,6
    802041ce:	fef400a3          	sb	a5,-31(s0)
/home/caigoubencai/Desktop/os_c/kernel/memory/mem/memory_set.c:186
  memory_set_push(memory_set, &map_area, NULL, 0);
    802041d2:	fd040793          	addi	a5,s0,-48
    802041d6:	4681                	li	a3,0
    802041d8:	4601                	li	a2,0
    802041da:	85be                	mv	a1,a5
    802041dc:	fe843503          	ld	a0,-24(s0)
    802041e0:	cb7ff0ef          	jal	ra,80203e96 <memory_set_push>
/home/caigoubencai/Desktop/os_c/kernel/memory/mem/memory_set.c:187
}
    802041e4:	0001                	nop
    802041e6:	70a2                	ld	ra,40(sp)
    802041e8:	7402                	ld	s0,32(sp)
    802041ea:	6145                	addi	sp,sp,48
    802041ec:	8082                	ret

00000000802041ee <memory_set_from_elf>:
memory_set_from_elf():
/home/caigoubencai/Desktop/os_c/kernel/memory/mem/memory_set.c:192

void memory_set_from_elf(MemorySet *memory_set, uint8_t *elf_data,
                         size_t elf_size, uint64_t *user_sp,
                         uint64_t *entry_point) 
{
    802041ee:	7111                	addi	sp,sp,-256
    802041f0:	fd86                	sd	ra,248(sp)
    802041f2:	f9a2                	sd	s0,240(sp)
    802041f4:	f5a6                	sd	s1,232(sp)
    802041f6:	0200                	addi	s0,sp,256
    802041f8:	81010113          	addi	sp,sp,-2032 # 80221810 <boot_stack_lower_bound+0xf810>
    802041fc:	77fd                	lui	a5,0xfffff
    802041fe:	fe040493          	addi	s1,s0,-32
    80204202:	97a6                	add	a5,a5,s1
    80204204:	74a7bc23          	sd	a0,1880(a5) # fffffffffffff758 <ebss+0xffffffff7f2d9758>
    80204208:	77fd                	lui	a5,0xfffff
    8020420a:	fe040513          	addi	a0,s0,-32
    8020420e:	97aa                	add	a5,a5,a0
    80204210:	74b7b823          	sd	a1,1872(a5) # fffffffffffff750 <ebss+0xffffffff7f2d9750>
    80204214:	77fd                	lui	a5,0xfffff
    80204216:	fe040593          	addi	a1,s0,-32
    8020421a:	97ae                	add	a5,a5,a1
    8020421c:	74c7b423          	sd	a2,1864(a5) # fffffffffffff748 <ebss+0xffffffff7f2d9748>
    80204220:	77fd                	lui	a5,0xfffff
    80204222:	fe040613          	addi	a2,s0,-32
    80204226:	97b2                	add	a5,a5,a2
    80204228:	74d7b023          	sd	a3,1856(a5) # fffffffffffff740 <ebss+0xffffffff7f2d9740>
    8020422c:	77fd                	lui	a5,0xfffff
    8020422e:	fe040693          	addi	a3,s0,-32
    80204232:	97b6                	add	a5,a5,a3
    80204234:	72e7bc23          	sd	a4,1848(a5) # fffffffffffff738 <ebss+0xffffffff7f2d9738>
/home/caigoubencai/Desktop/os_c/kernel/memory/mem/memory_set.c:193
  memory_set_new_bare(memory_set);
    80204238:	77fd                	lui	a5,0xfffff
    8020423a:	fe040713          	addi	a4,s0,-32
    8020423e:	97ba                	add	a5,a5,a4
    80204240:	7587b503          	ld	a0,1880(a5) # fffffffffffff758 <ebss+0xffffffff7f2d9758>
    80204244:	c01ff0ef          	jal	ra,80203e44 <memory_set_new_bare>
/home/caigoubencai/Desktop/os_c/kernel/memory/mem/memory_set.c:196

  // map trampoline
  memory_set_map_trampoline(memory_set);
    80204248:	77fd                	lui	a5,0xfffff
    8020424a:	fe040713          	addi	a4,s0,-32
    8020424e:	97ba                	add	a5,a5,a4
    80204250:	7587b503          	ld	a0,1880(a5) # fffffffffffff758 <ebss+0xffffffff7f2d9758>
    80204254:	e0fff0ef          	jal	ra,80204062 <memory_set_map_trampoline>
/home/caigoubencai/Desktop/os_c/kernel/memory/mem/memory_set.c:200

  // map progam headers of elf, with U flag
  t_elf elf;
  int elf_load_ret = elf_load(elf_data, elf_size, &elf);
    80204258:	77fd                	lui	a5,0xfffff
    8020425a:	77878793          	addi	a5,a5,1912 # fffffffffffff778 <ebss+0xffffffff7f2d9778>
    8020425e:	fe040713          	addi	a4,s0,-32
    80204262:	00f706b3          	add	a3,a4,a5
    80204266:	77fd                	lui	a5,0xfffff
    80204268:	fe040713          	addi	a4,s0,-32
    8020426c:	973e                	add	a4,a4,a5
    8020426e:	77fd                	lui	a5,0xfffff
    80204270:	fe040613          	addi	a2,s0,-32
    80204274:	97b2                	add	a5,a5,a2
    80204276:	8636                	mv	a2,a3
    80204278:	74873583          	ld	a1,1864(a4)
    8020427c:	7507b503          	ld	a0,1872(a5) # fffffffffffff750 <ebss+0xffffffff7f2d9750>
    80204280:	ca9fe0ef          	jal	ra,80202f28 <elf_load>
    80204284:	87aa                	mv	a5,a0
    80204286:	fcf42623          	sw	a5,-52(s0)
/home/caigoubencai/Desktop/os_c/kernel/memory/mem/memory_set.c:201
  if (elf_load_ret != 0)
    8020428a:	fcc42783          	lw	a5,-52(s0)
    8020428e:	2781                	sext.w	a5,a5
    80204290:	cf89                	beqz	a5,802042aa <memory_set_from_elf+0xbc>
/home/caigoubencai/Desktop/os_c/kernel/memory/mem/memory_set.c:203
  {
    panic("Elf load error.\n");
    80204292:	00005617          	auipc	a2,0x5
    80204296:	e8660613          	addi	a2,a2,-378 # 80209118 <MMIO+0x10>
    8020429a:	0cb00593          	li	a1,203
    8020429e:	00005517          	auipc	a0,0x5
    802042a2:	e9250513          	addi	a0,a0,-366 # 80209130 <MMIO+0x28>
    802042a6:	3f2020ef          	jal	ra,80206698 <_panic>
/home/caigoubencai/Desktop/os_c/kernel/memory/mem/memory_set.c:206
  }

  size_t ph_count = elf_header_get_phnum(&elf);
    802042aa:	77fd                	lui	a5,0xfffff
    802042ac:	77878793          	addi	a5,a5,1912 # fffffffffffff778 <ebss+0xffffffff7f2d9778>
    802042b0:	fe040713          	addi	a4,s0,-32
    802042b4:	97ba                	add	a5,a5,a4
    802042b6:	853e                	mv	a0,a5
    802042b8:	e41fe0ef          	jal	ra,802030f8 <elf_header_get_phnum>
    802042bc:	fca43023          	sd	a0,-64(s0)
/home/caigoubencai/Desktop/os_c/kernel/memory/mem/memory_set.c:211
  VirtAddr start_va, end_va;
  MapPermission map_perm;
  uint64_t ph_flags;
  MapArea map_area;
  VirtPageNum max_end_vpn = 0;
    802042c0:	fc043c23          	sd	zero,-40(s0)
/home/caigoubencai/Desktop/os_c/kernel/memory/mem/memory_set.c:212
  for (size_t i = 0; i < ph_count; i++) {
    802042c4:	fc043823          	sd	zero,-48(s0)
    802042c8:	a261                	j	80204450 <memory_set_from_elf+0x262>
/home/caigoubencai/Desktop/os_c/kernel/memory/mem/memory_set.c:213
    t_elf_program *ph = &elf.programs[i];
    802042ca:	77fd                	lui	a5,0xfffff
    802042cc:	77878793          	addi	a5,a5,1912 # fffffffffffff778 <ebss+0xffffffff7f2d9778>
    802042d0:	fe040713          	addi	a4,s0,-32
    802042d4:	973e                	add	a4,a4,a5
    802042d6:	fd043783          	ld	a5,-48(s0)
    802042da:	04278793          	addi	a5,a5,66
    802042de:	0792                	slli	a5,a5,0x4
    802042e0:	97ba                	add	a5,a5,a4
    802042e2:	07a1                	addi	a5,a5,8
    802042e4:	faf43023          	sd	a5,-96(s0)
/home/caigoubencai/Desktop/os_c/kernel/memory/mem/memory_set.c:214
    if (elf_program_get_type(&elf, ph) == PT_LOAD) {
    802042e8:	77fd                	lui	a5,0xfffff
    802042ea:	77878793          	addi	a5,a5,1912 # fffffffffffff778 <ebss+0xffffffff7f2d9778>
    802042ee:	fe040713          	addi	a4,s0,-32
    802042f2:	97ba                	add	a5,a5,a4
    802042f4:	fa043583          	ld	a1,-96(s0)
    802042f8:	853e                	mv	a0,a5
    802042fa:	981fe0ef          	jal	ra,80202c7a <elf_program_get_type>
    802042fe:	87aa                	mv	a5,a0
    80204300:	2781                	sext.w	a5,a5
    80204302:	873e                	mv	a4,a5
    80204304:	4785                	li	a5,1
    80204306:	14f71063          	bne	a4,a5,80204446 <memory_set_from_elf+0x258>
/home/caigoubencai/Desktop/os_c/kernel/memory/mem/memory_set.c:215
      start_va = (VirtAddr)elf_program_get_vaddr(&elf, ph);
    8020430a:	77fd                	lui	a5,0xfffff
    8020430c:	77878793          	addi	a5,a5,1912 # fffffffffffff778 <ebss+0xffffffff7f2d9778>
    80204310:	fe040713          	addi	a4,s0,-32
    80204314:	97ba                	add	a5,a5,a4
    80204316:	fa043583          	ld	a1,-96(s0)
    8020431a:	853e                	mv	a0,a5
    8020431c:	a37fe0ef          	jal	ra,80202d52 <elf_program_get_vaddr>
    80204320:	f8a43c23          	sd	a0,-104(s0)
/home/caigoubencai/Desktop/os_c/kernel/memory/mem/memory_set.c:216
      end_va = (VirtAddr)(start_va + elf_program_get_memsz(&elf, ph));
    80204324:	77fd                	lui	a5,0xfffff
    80204326:	77878793          	addi	a5,a5,1912 # fffffffffffff778 <ebss+0xffffffff7f2d9778>
    8020432a:	fe040713          	addi	a4,s0,-32
    8020432e:	97ba                	add	a5,a5,a4
    80204330:	fa043583          	ld	a1,-96(s0)
    80204334:	853e                	mv	a0,a5
    80204336:	a65fe0ef          	jal	ra,80202d9a <elf_program_get_memsz>
    8020433a:	872a                	mv	a4,a0
    8020433c:	f9843783          	ld	a5,-104(s0)
    80204340:	97ba                	add	a5,a5,a4
    80204342:	f8f43823          	sd	a5,-112(s0)
/home/caigoubencai/Desktop/os_c/kernel/memory/mem/memory_set.c:217
      map_perm = MAP_PERM_U;
    80204346:	47c1                	li	a5,16
    80204348:	f8f407a3          	sb	a5,-113(s0)
/home/caigoubencai/Desktop/os_c/kernel/memory/mem/memory_set.c:218
      ph_flags = elf_program_get_flags(&elf, ph);
    8020434c:	77fd                	lui	a5,0xfffff
    8020434e:	77878793          	addi	a5,a5,1912 # fffffffffffff778 <ebss+0xffffffff7f2d9778>
    80204352:	fe040713          	addi	a4,s0,-32
    80204356:	97ba                	add	a5,a5,a4
    80204358:	fa043583          	ld	a1,-96(s0)
    8020435c:	853e                	mv	a0,a5
    8020435e:	9a9fe0ef          	jal	ra,80202d06 <elf_program_get_flags>
    80204362:	f8a43023          	sd	a0,-128(s0)
/home/caigoubencai/Desktop/os_c/kernel/memory/mem/memory_set.c:220
      if (ph_flags | PF_R) {
        map_perm |= MAP_PERM_R;
    80204366:	f8f44783          	lbu	a5,-113(s0)
    8020436a:	0027e793          	ori	a5,a5,2
    8020436e:	f8f407a3          	sb	a5,-113(s0)
/home/caigoubencai/Desktop/os_c/kernel/memory/mem/memory_set.c:223
      }
      if (ph_flags | PF_W) {
        map_perm |= MAP_PERM_W;
    80204372:	f8f44783          	lbu	a5,-113(s0)
    80204376:	0047e793          	ori	a5,a5,4
    8020437a:	f8f407a3          	sb	a5,-113(s0)
/home/caigoubencai/Desktop/os_c/kernel/memory/mem/memory_set.c:226
      }
      if (ph_flags | PF_X) {
        map_perm |= MAP_PERM_X;
    8020437e:	f8f44783          	lbu	a5,-113(s0)
    80204382:	0087e793          	ori	a5,a5,8
    80204386:	f8f407a3          	sb	a5,-113(s0)
/home/caigoubencai/Desktop/os_c/kernel/memory/mem/memory_set.c:228
      }
      map_area.vpn_range.l = page_floor(start_va);
    8020438a:	f9843783          	ld	a5,-104(s0)
    8020438e:	00c7d713          	srli	a4,a5,0xc
    80204392:	77fd                	lui	a5,0xfffff
    80204394:	fe040693          	addi	a3,s0,-32
    80204398:	97b6                	add	a5,a5,a3
    8020439a:	76e7b023          	sd	a4,1888(a5) # fffffffffffff760 <ebss+0xffffffff7f2d9760>
/home/caigoubencai/Desktop/os_c/kernel/memory/mem/memory_set.c:229
      map_area.vpn_range.r = page_ceil(end_va);
    8020439e:	f9043703          	ld	a4,-112(s0)
    802043a2:	6785                	lui	a5,0x1
    802043a4:	17fd                	addi	a5,a5,-1
    802043a6:	97ba                	add	a5,a5,a4
    802043a8:	00c7d713          	srli	a4,a5,0xc
    802043ac:	77fd                	lui	a5,0xfffff
    802043ae:	fe040693          	addi	a3,s0,-32
    802043b2:	97b6                	add	a5,a5,a3
    802043b4:	76e7b423          	sd	a4,1896(a5) # fffffffffffff768 <ebss+0xffffffff7f2d9768>
/home/caigoubencai/Desktop/os_c/kernel/memory/mem/memory_set.c:230
      map_area.map_type = MAP_FRAMED;
    802043b8:	77fd                	lui	a5,0xfffff
    802043ba:	fe040713          	addi	a4,s0,-32
    802043be:	97ba                	add	a5,a5,a4
    802043c0:	4705                	li	a4,1
    802043c2:	76e78823          	sb	a4,1904(a5) # fffffffffffff770 <ebss+0xffffffff7f2d9770>
/home/caigoubencai/Desktop/os_c/kernel/memory/mem/memory_set.c:231
      map_area.map_perm = map_perm;
    802043c6:	77fd                	lui	a5,0xfffff
    802043c8:	fe040713          	addi	a4,s0,-32
    802043cc:	97ba                	add	a5,a5,a4
    802043ce:	f8f44703          	lbu	a4,-113(s0)
    802043d2:	76e788a3          	sb	a4,1905(a5) # fffffffffffff771 <ebss+0xffffffff7f2d9771>
/home/caigoubencai/Desktop/os_c/kernel/memory/mem/memory_set.c:232
      max_end_vpn = map_area.vpn_range.r;
    802043d6:	77fd                	lui	a5,0xfffff
    802043d8:	fe040713          	addi	a4,s0,-32
    802043dc:	97ba                	add	a5,a5,a4
    802043de:	7687b783          	ld	a5,1896(a5) # fffffffffffff768 <ebss+0xffffffff7f2d9768>
    802043e2:	fcf43c23          	sd	a5,-40(s0)
/home/caigoubencai/Desktop/os_c/kernel/memory/mem/memory_set.c:234
      memory_set_push(memory_set, &map_area,
                      elf_data + elf_program_get_offset(&elf, ph),
    802043e6:	77fd                	lui	a5,0xfffff
    802043e8:	77878793          	addi	a5,a5,1912 # fffffffffffff778 <ebss+0xffffffff7f2d9778>
    802043ec:	fe040713          	addi	a4,s0,-32
    802043f0:	97ba                	add	a5,a5,a4
    802043f2:	fa043583          	ld	a1,-96(s0)
    802043f6:	853e                	mv	a0,a5
    802043f8:	8c7fe0ef          	jal	ra,80202cbe <elf_program_get_offset>
    802043fc:	872a                	mv	a4,a0
/home/caigoubencai/Desktop/os_c/kernel/memory/mem/memory_set.c:233
      memory_set_push(memory_set, &map_area,
    802043fe:	77fd                	lui	a5,0xfffff
    80204400:	fe040693          	addi	a3,s0,-32
    80204404:	97b6                	add	a5,a5,a3
    80204406:	7507b783          	ld	a5,1872(a5) # fffffffffffff750 <ebss+0xffffffff7f2d9750>
    8020440a:	00e784b3          	add	s1,a5,a4
    8020440e:	77fd                	lui	a5,0xfffff
    80204410:	77878793          	addi	a5,a5,1912 # fffffffffffff778 <ebss+0xffffffff7f2d9778>
    80204414:	fe040713          	addi	a4,s0,-32
    80204418:	97ba                	add	a5,a5,a4
    8020441a:	fa043583          	ld	a1,-96(s0)
    8020441e:	853e                	mv	a0,a5
    80204420:	9c3fe0ef          	jal	ra,80202de2 <elf_program_get_filesz>
    80204424:	86aa                	mv	a3,a0
    80204426:	77fd                	lui	a5,0xfffff
    80204428:	76078793          	addi	a5,a5,1888 # fffffffffffff760 <ebss+0xffffffff7f2d9760>
    8020442c:	fe040713          	addi	a4,s0,-32
    80204430:	973e                	add	a4,a4,a5
    80204432:	77fd                	lui	a5,0xfffff
    80204434:	fe040613          	addi	a2,s0,-32
    80204438:	97b2                	add	a5,a5,a2
    8020443a:	8626                	mv	a2,s1
    8020443c:	85ba                	mv	a1,a4
    8020443e:	7587b503          	ld	a0,1880(a5) # fffffffffffff758 <ebss+0xffffffff7f2d9758>
    80204442:	a55ff0ef          	jal	ra,80203e96 <memory_set_push>
/home/caigoubencai/Desktop/os_c/kernel/memory/mem/memory_set.c:212 (discriminator 2)
  for (size_t i = 0; i < ph_count; i++) {
    80204446:	fd043783          	ld	a5,-48(s0)
    8020444a:	0785                	addi	a5,a5,1
    8020444c:	fcf43823          	sd	a5,-48(s0)
/home/caigoubencai/Desktop/os_c/kernel/memory/mem/memory_set.c:212 (discriminator 1)
    80204450:	fd043703          	ld	a4,-48(s0)
    80204454:	fc043783          	ld	a5,-64(s0)
    80204458:	e6f769e3          	bltu	a4,a5,802042ca <memory_set_from_elf+0xdc>
/home/caigoubencai/Desktop/os_c/kernel/memory/mem/memory_set.c:240
                      elf_program_get_filesz(&elf, ph));
    }
  }

  // map user stack with U flags
  VirtAddr max_end_va = pn2addr(max_end_vpn);
    8020445c:	fd843783          	ld	a5,-40(s0)
    80204460:	07b2                	slli	a5,a5,0xc
    80204462:	faf43c23          	sd	a5,-72(s0)
/home/caigoubencai/Desktop/os_c/kernel/memory/mem/memory_set.c:241
  VirtAddr user_stack_bottom = max_end_va;
    80204466:	fb843783          	ld	a5,-72(s0)
    8020446a:	faf43823          	sd	a5,-80(s0)
/home/caigoubencai/Desktop/os_c/kernel/memory/mem/memory_set.c:243
  // guard page
  user_stack_bottom += PAGE_SIZE;
    8020446e:	fb043703          	ld	a4,-80(s0)
    80204472:	6785                	lui	a5,0x1
    80204474:	97ba                	add	a5,a5,a4
    80204476:	faf43823          	sd	a5,-80(s0)
/home/caigoubencai/Desktop/os_c/kernel/memory/mem/memory_set.c:244
  VirtAddr user_stack_top = user_stack_bottom + USER_STACK_SIZE;
    8020447a:	fb043703          	ld	a4,-80(s0)
    8020447e:	6789                	lui	a5,0x2
    80204480:	97ba                	add	a5,a5,a4
    80204482:	faf43423          	sd	a5,-88(s0)
/home/caigoubencai/Desktop/os_c/kernel/memory/mem/memory_set.c:245
  map_area.vpn_range.l = page_floor(user_stack_bottom);
    80204486:	fb043783          	ld	a5,-80(s0)
    8020448a:	00c7d713          	srli	a4,a5,0xc
    8020448e:	77fd                	lui	a5,0xfffff
    80204490:	fe040693          	addi	a3,s0,-32
    80204494:	97b6                	add	a5,a5,a3
    80204496:	76e7b023          	sd	a4,1888(a5) # fffffffffffff760 <ebss+0xffffffff7f2d9760>
/home/caigoubencai/Desktop/os_c/kernel/memory/mem/memory_set.c:246
  map_area.vpn_range.r = page_ceil(user_stack_top);
    8020449a:	fa843703          	ld	a4,-88(s0)
    8020449e:	6785                	lui	a5,0x1
    802044a0:	17fd                	addi	a5,a5,-1
    802044a2:	97ba                	add	a5,a5,a4
    802044a4:	00c7d713          	srli	a4,a5,0xc
    802044a8:	77fd                	lui	a5,0xfffff
    802044aa:	fe040693          	addi	a3,s0,-32
    802044ae:	97b6                	add	a5,a5,a3
    802044b0:	76e7b423          	sd	a4,1896(a5) # fffffffffffff768 <ebss+0xffffffff7f2d9768>
/home/caigoubencai/Desktop/os_c/kernel/memory/mem/memory_set.c:247
  map_area.map_type = MAP_FRAMED;
    802044b4:	77fd                	lui	a5,0xfffff
    802044b6:	fe040713          	addi	a4,s0,-32
    802044ba:	97ba                	add	a5,a5,a4
    802044bc:	4705                	li	a4,1
    802044be:	76e78823          	sb	a4,1904(a5) # fffffffffffff770 <ebss+0xffffffff7f2d9770>
/home/caigoubencai/Desktop/os_c/kernel/memory/mem/memory_set.c:248
  map_area.map_perm = MAP_PERM_R | MAP_PERM_W | MAP_PERM_U;
    802044c2:	77fd                	lui	a5,0xfffff
    802044c4:	fe040713          	addi	a4,s0,-32
    802044c8:	97ba                	add	a5,a5,a4
    802044ca:	4759                	li	a4,22
    802044cc:	76e788a3          	sb	a4,1905(a5) # fffffffffffff771 <ebss+0xffffffff7f2d9771>
/home/caigoubencai/Desktop/os_c/kernel/memory/mem/memory_set.c:249
  memory_set_push(memory_set, &map_area, NULL, 0);
    802044d0:	77fd                	lui	a5,0xfffff
    802044d2:	76078793          	addi	a5,a5,1888 # fffffffffffff760 <ebss+0xffffffff7f2d9760>
    802044d6:	fe040713          	addi	a4,s0,-32
    802044da:	973e                	add	a4,a4,a5
    802044dc:	77fd                	lui	a5,0xfffff
    802044de:	fe040693          	addi	a3,s0,-32
    802044e2:	97b6                	add	a5,a5,a3
    802044e4:	4681                	li	a3,0
    802044e6:	4601                	li	a2,0
    802044e8:	85ba                	mv	a1,a4
    802044ea:	7587b503          	ld	a0,1880(a5) # fffffffffffff758 <ebss+0xffffffff7f2d9758>
    802044ee:	9a9ff0ef          	jal	ra,80203e96 <memory_set_push>
/home/caigoubencai/Desktop/os_c/kernel/memory/mem/memory_set.c:252

  // map TrapContext
  map_area.vpn_range.l = page_floor(TRAP_CONTEXT);
    802044f2:	77fd                	lui	a5,0xfffff
    802044f4:	fe040713          	addi	a4,s0,-32
    802044f8:	97ba                	add	a5,a5,a4
    802044fa:	7779                	lui	a4,0xffffe
    802044fc:	8331                	srli	a4,a4,0xc
    802044fe:	76e7b023          	sd	a4,1888(a5) # fffffffffffff760 <ebss+0xffffffff7f2d9760>
/home/caigoubencai/Desktop/os_c/kernel/memory/mem/memory_set.c:253
  map_area.vpn_range.r = page_ceil(TRAMPOLINE);
    80204502:	77fd                	lui	a5,0xfffff
    80204504:	fe040713          	addi	a4,s0,-32
    80204508:	97ba                	add	a5,a5,a4
    8020450a:	577d                	li	a4,-1
    8020450c:	8331                	srli	a4,a4,0xc
    8020450e:	76e7b423          	sd	a4,1896(a5) # fffffffffffff768 <ebss+0xffffffff7f2d9768>
/home/caigoubencai/Desktop/os_c/kernel/memory/mem/memory_set.c:254
  map_area.map_type = MAP_FRAMED;
    80204512:	77fd                	lui	a5,0xfffff
    80204514:	fe040713          	addi	a4,s0,-32
    80204518:	97ba                	add	a5,a5,a4
    8020451a:	4705                	li	a4,1
    8020451c:	76e78823          	sb	a4,1904(a5) # fffffffffffff770 <ebss+0xffffffff7f2d9770>
/home/caigoubencai/Desktop/os_c/kernel/memory/mem/memory_set.c:255
  map_area.map_perm = MAP_PERM_R | MAP_PERM_W;
    80204520:	77fd                	lui	a5,0xfffff
    80204522:	fe040713          	addi	a4,s0,-32
    80204526:	97ba                	add	a5,a5,a4
    80204528:	4719                	li	a4,6
    8020452a:	76e788a3          	sb	a4,1905(a5) # fffffffffffff771 <ebss+0xffffffff7f2d9771>
/home/caigoubencai/Desktop/os_c/kernel/memory/mem/memory_set.c:256
  memory_set_push(memory_set, &map_area, NULL, 0);
    8020452e:	77fd                	lui	a5,0xfffff
    80204530:	76078793          	addi	a5,a5,1888 # fffffffffffff760 <ebss+0xffffffff7f2d9760>
    80204534:	fe040713          	addi	a4,s0,-32
    80204538:	973e                	add	a4,a4,a5
    8020453a:	77fd                	lui	a5,0xfffff
    8020453c:	fe040693          	addi	a3,s0,-32
    80204540:	97b6                	add	a5,a5,a3
    80204542:	4681                	li	a3,0
    80204544:	4601                	li	a2,0
    80204546:	85ba                	mv	a1,a4
    80204548:	7587b503          	ld	a0,1880(a5) # fffffffffffff758 <ebss+0xffffffff7f2d9758>
    8020454c:	94bff0ef          	jal	ra,80203e96 <memory_set_push>
/home/caigoubencai/Desktop/os_c/kernel/memory/mem/memory_set.c:259

  // return
  *user_sp = (uint64_t)user_stack_top;
    80204550:	77fd                	lui	a5,0xfffff
    80204552:	fe040713          	addi	a4,s0,-32
    80204556:	97ba                	add	a5,a5,a4
    80204558:	7407b783          	ld	a5,1856(a5) # fffffffffffff740 <ebss+0xffffffff7f2d9740>
    8020455c:	fa843703          	ld	a4,-88(s0)
    80204560:	e398                	sd	a4,0(a5)
/home/caigoubencai/Desktop/os_c/kernel/memory/mem/memory_set.c:260
  *entry_point = elf_header_get_entry(&elf);
    80204562:	77fd                	lui	a5,0xfffff
    80204564:	77878793          	addi	a5,a5,1912 # fffffffffffff778 <ebss+0xffffffff7f2d9778>
    80204568:	fe040713          	addi	a4,s0,-32
    8020456c:	97ba                	add	a5,a5,a4
    8020456e:	853e                	mv	a0,a5
    80204570:	dfafe0ef          	jal	ra,80202b6a <elf_header_get_entry>
    80204574:	872a                	mv	a4,a0
    80204576:	77fd                	lui	a5,0xfffff
    80204578:	fe040693          	addi	a3,s0,-32
    8020457c:	97b6                	add	a5,a5,a3
    8020457e:	7387b783          	ld	a5,1848(a5) # fffffffffffff738 <ebss+0xffffffff7f2d9738>
    80204582:	e398                	sd	a4,0(a5)
/home/caigoubencai/Desktop/os_c/kernel/memory/mem/memory_set.c:261
}
    80204584:	0001                	nop
    80204586:	7f010113          	addi	sp,sp,2032
    8020458a:	70ee                	ld	ra,248(sp)
