
obj/os_kernel.elf:     file format elf64-littleriscv


Disassembly of section .text:

0000000080200000 <_start>:
stext():
/home/caigoubencai/Desktop/os_c-ch6/kernel/asm/entry.asm:4
    80200000:	00023117          	auipc	sp,0x23
    80200004:	00010113          	mv	sp,sp
/home/caigoubencai/Desktop/os_c-ch6/kernel/asm/entry.asm:5
    80200008:	271020ef          	jal	ra,80202a78 <main_os>
	...

0000000080201000 <__alltraps>:
__alltraps():
/home/caigoubencai/Desktop/os_c-ch6/kernel/asm/trap.asm:13
    80201000:	14011173          	csrrw	sp,sscratch,sp
/home/caigoubencai/Desktop/os_c-ch6/kernel/asm/trap.asm:16
    80201004:	e406                	sd	ra,8(sp)
/home/caigoubencai/Desktop/os_c-ch6/kernel/asm/trap.asm:18
    80201006:	ec0e                	sd	gp,24(sp)
/home/caigoubencai/Desktop/os_c-ch6/kernel/asm/trap.asm:25
    80201008:	f416                	sd	t0,40(sp)
    8020100a:	f81a                	sd	t1,48(sp)
    8020100c:	fc1e                	sd	t2,56(sp)
    8020100e:	e0a2                	sd	s0,64(sp)
    80201010:	e4a6                	sd	s1,72(sp)
    80201012:	e8aa                	sd	a0,80(sp)
    80201014:	ecae                	sd	a1,88(sp)
    80201016:	f0b2                	sd	a2,96(sp)
    80201018:	f4b6                	sd	a3,104(sp)
    8020101a:	f8ba                	sd	a4,112(sp)
    8020101c:	fcbe                	sd	a5,120(sp)
    8020101e:	e142                	sd	a6,128(sp)
    80201020:	e546                	sd	a7,136(sp)
    80201022:	e94a                	sd	s2,144(sp)
    80201024:	ed4e                	sd	s3,152(sp)
    80201026:	f152                	sd	s4,160(sp)
    80201028:	f556                	sd	s5,168(sp)
    8020102a:	f95a                	sd	s6,176(sp)
    8020102c:	fd5e                	sd	s7,184(sp)
    8020102e:	e1e2                	sd	s8,192(sp)
    80201030:	e5e6                	sd	s9,200(sp)
    80201032:	e9ea                	sd	s10,208(sp)
    80201034:	edee                	sd	s11,216(sp)
    80201036:	f1f2                	sd	t3,224(sp)
    80201038:	f5f6                	sd	t4,232(sp)
    8020103a:	f9fa                	sd	t5,240(sp)
    8020103c:	fdfe                	sd	t6,248(sp)
/home/caigoubencai/Desktop/os_c-ch6/kernel/asm/trap.asm:27
    8020103e:	100022f3          	csrr	t0,sstatus
/home/caigoubencai/Desktop/os_c-ch6/kernel/asm/trap.asm:28
    80201042:	14102373          	csrr	t1,sepc
/home/caigoubencai/Desktop/os_c-ch6/kernel/asm/trap.asm:29
    80201046:	e216                	sd	t0,256(sp)
/home/caigoubencai/Desktop/os_c-ch6/kernel/asm/trap.asm:30
    80201048:	e61a                	sd	t1,264(sp)
/home/caigoubencai/Desktop/os_c-ch6/kernel/asm/trap.asm:32
    8020104a:	140023f3          	csrr	t2,sscratch
/home/caigoubencai/Desktop/os_c-ch6/kernel/asm/trap.asm:33
    8020104e:	e81e                	sd	t2,16(sp)
/home/caigoubencai/Desktop/os_c-ch6/kernel/asm/trap.asm:35
    80201050:	62d2                	ld	t0,272(sp)
/home/caigoubencai/Desktop/os_c-ch6/kernel/asm/trap.asm:37
    80201052:	7312                	ld	t1,288(sp)
/home/caigoubencai/Desktop/os_c-ch6/kernel/asm/trap.asm:39
    80201054:	6172                	ld	sp,280(sp)
/home/caigoubencai/Desktop/os_c-ch6/kernel/asm/trap.asm:41
    80201056:	18029073          	csrw	satp,t0
/home/caigoubencai/Desktop/os_c-ch6/kernel/asm/trap.asm:42
    8020105a:	12000073          	sfence.vma
/home/caigoubencai/Desktop/os_c-ch6/kernel/asm/trap.asm:44
    8020105e:	8302                	jr	t1

0000000080201060 <__restore>:
__restore():
/home/caigoubencai/Desktop/os_c-ch6/kernel/asm/trap.asm:49
    80201060:	18059073          	csrw	satp,a1
/home/caigoubencai/Desktop/os_c-ch6/kernel/asm/trap.asm:50
    80201064:	12000073          	sfence.vma
/home/caigoubencai/Desktop/os_c-ch6/kernel/asm/trap.asm:51
    80201068:	14051073          	csrw	sscratch,a0
/home/caigoubencai/Desktop/os_c-ch6/kernel/asm/trap.asm:52
    8020106c:	812a                	mv	sp,a0
/home/caigoubencai/Desktop/os_c-ch6/kernel/asm/trap.asm:55
    8020106e:	6292                	ld	t0,256(sp)
/home/caigoubencai/Desktop/os_c-ch6/kernel/asm/trap.asm:56
    80201070:	6332                	ld	t1,264(sp)
/home/caigoubencai/Desktop/os_c-ch6/kernel/asm/trap.asm:57
    80201072:	10029073          	csrw	sstatus,t0
/home/caigoubencai/Desktop/os_c-ch6/kernel/asm/trap.asm:58
    80201076:	14131073          	csrw	sepc,t1
/home/caigoubencai/Desktop/os_c-ch6/kernel/asm/trap.asm:60
    8020107a:	60a2                	ld	ra,8(sp)
/home/caigoubencai/Desktop/os_c-ch6/kernel/asm/trap.asm:61
    8020107c:	61e2                	ld	gp,24(sp)
/home/caigoubencai/Desktop/os_c-ch6/kernel/asm/trap.asm:66
    8020107e:	72a2                	ld	t0,40(sp)
    80201080:	7342                	ld	t1,48(sp)
    80201082:	73e2                	ld	t2,56(sp)
    80201084:	6406                	ld	s0,64(sp)
    80201086:	64a6                	ld	s1,72(sp)
    80201088:	6546                	ld	a0,80(sp)
    8020108a:	65e6                	ld	a1,88(sp)
    8020108c:	7606                	ld	a2,96(sp)
    8020108e:	76a6                	ld	a3,104(sp)
    80201090:	7746                	ld	a4,112(sp)
    80201092:	77e6                	ld	a5,120(sp)
    80201094:	680a                	ld	a6,128(sp)
    80201096:	68aa                	ld	a7,136(sp)
    80201098:	694a                	ld	s2,144(sp)
    8020109a:	69ea                	ld	s3,152(sp)
    8020109c:	7a0a                	ld	s4,160(sp)
    8020109e:	7aaa                	ld	s5,168(sp)
    802010a0:	7b4a                	ld	s6,176(sp)
    802010a2:	7bea                	ld	s7,184(sp)
    802010a4:	6c0e                	ld	s8,192(sp)
    802010a6:	6cae                	ld	s9,200(sp)
    802010a8:	6d4e                	ld	s10,208(sp)
    802010aa:	6dee                	ld	s11,216(sp)
    802010ac:	7e0e                	ld	t3,224(sp)
    802010ae:	7eae                	ld	t4,232(sp)
    802010b0:	7f4e                	ld	t5,240(sp)
    802010b2:	7fee                	ld	t6,248(sp)
/home/caigoubencai/Desktop/os_c-ch6/kernel/asm/trap.asm:68
    802010b4:	6142                	ld	sp,16(sp)
/home/caigoubencai/Desktop/os_c-ch6/kernel/asm/trap.asm:69
    802010b6:	10200073          	sret
	...

0000000080202000 <strdup>:
strdup():
/home/caigoubencai/Desktop/os_c-ch6/kernel/lib/strdup.c:4
    80202000:	7179                	addi	sp,sp,-48
    80202002:	f406                	sd	ra,40(sp)
    80202004:	f022                	sd	s0,32(sp)
    80202006:	1800                	addi	s0,sp,48
    80202008:	fca43c23          	sd	a0,-40(s0)
/home/caigoubencai/Desktop/os_c-ch6/kernel/lib/strdup.c:5
    8020200c:	fd843503          	ld	a0,-40(s0)
    80202010:	4c6060ef          	jal	ra,802084d6 <strlen>
    80202014:	87aa                	mv	a5,a0
    80202016:	0785                	addi	a5,a5,1
    80202018:	fef43423          	sd	a5,-24(s0)
/home/caigoubencai/Desktop/os_c-ch6/kernel/lib/strdup.c:6
    8020201c:	fe843503          	ld	a0,-24(s0)
    80202020:	029080ef          	jal	ra,8020a848 <bd_malloc>
    80202024:	fea43023          	sd	a0,-32(s0)
/home/caigoubencai/Desktop/os_c-ch6/kernel/lib/strdup.c:7
    80202028:	fe043783          	ld	a5,-32(s0)
    8020202c:	c799                	beqz	a5,8020203a <strdup+0x3a>
/home/caigoubencai/Desktop/os_c-ch6/kernel/lib/strdup.c:9
    8020202e:	fd843583          	ld	a1,-40(s0)
    80202032:	fe043503          	ld	a0,-32(s0)
    80202036:	456060ef          	jal	ra,8020848c <strcpy>
/home/caigoubencai/Desktop/os_c-ch6/kernel/lib/strdup.c:11
    8020203a:	fe043783          	ld	a5,-32(s0)
/home/caigoubencai/Desktop/os_c-ch6/kernel/lib/strdup.c:12
    8020203e:	853e                	mv	a0,a5
    80202040:	70a2                	ld	ra,40(sp)
    80202042:	7402                	ld	s0,32(sp)
    80202044:	6145                	addi	sp,sp,48
    80202046:	8082                	ret

0000000080202048 <port_write>:
port_write():
/home/caigoubencai/Desktop/os_c-ch6/kernel/lib/printk.c:10
    80202048:	1101                	addi	sp,sp,-32
    8020204a:	ec06                	sd	ra,24(sp)
    8020204c:	e822                	sd	s0,16(sp)
    8020204e:	1000                	addi	s0,sp,32
    80202050:	fea43423          	sd	a0,-24(s0)
/home/caigoubencai/Desktop/os_c-ch6/kernel/lib/printk.c:11
    80202054:	a821                	j	8020206c <port_write+0x24>
/home/caigoubencai/Desktop/os_c-ch6/kernel/lib/printk.c:13
    80202056:	fe843783          	ld	a5,-24(s0)
    8020205a:	00178713          	addi	a4,a5,1
    8020205e:	fee43423          	sd	a4,-24(s0)
    80202062:	0007c783          	lbu	a5,0(a5)
    80202066:	853e                	mv	a0,a5
    80202068:	5e3050ef          	jal	ra,80207e4a <console_putchar>
/home/caigoubencai/Desktop/os_c-ch6/kernel/lib/printk.c:11
    8020206c:	fe843783          	ld	a5,-24(s0)
    80202070:	0007c783          	lbu	a5,0(a5)
    80202074:	f3ed                	bnez	a5,80202056 <port_write+0xe>
/home/caigoubencai/Desktop/os_c-ch6/kernel/lib/printk.c:15
    80202076:	0001                	nop
    80202078:	0001                	nop
    8020207a:	60e2                	ld	ra,24(sp)
    8020207c:	6442                	ld	s0,16(sp)
    8020207e:	6105                	addi	sp,sp,32
    80202080:	8082                	ret

0000000080202082 <mini_strlen>:
mini_strlen():
/home/caigoubencai/Desktop/os_c-ch6/kernel/lib/printk.c:18
    80202082:	7179                	addi	sp,sp,-48
    80202084:	f422                	sd	s0,40(sp)
    80202086:	1800                	addi	s0,sp,48
    80202088:	fca43c23          	sd	a0,-40(s0)
/home/caigoubencai/Desktop/os_c-ch6/kernel/lib/printk.c:19
    8020208c:	fe042623          	sw	zero,-20(s0)
/home/caigoubencai/Desktop/os_c-ch6/kernel/lib/printk.c:20
    80202090:	a031                	j	8020209c <mini_strlen+0x1a>
/home/caigoubencai/Desktop/os_c-ch6/kernel/lib/printk.c:21
    80202092:	fec42783          	lw	a5,-20(s0)
    80202096:	2785                	addiw	a5,a5,1
    80202098:	fef42623          	sw	a5,-20(s0)
/home/caigoubencai/Desktop/os_c-ch6/kernel/lib/printk.c:20
    8020209c:	fec46783          	lwu	a5,-20(s0)
    802020a0:	fd843703          	ld	a4,-40(s0)
    802020a4:	97ba                	add	a5,a5,a4
    802020a6:	0007c783          	lbu	a5,0(a5)
    802020aa:	f7e5                	bnez	a5,80202092 <mini_strlen+0x10>
/home/caigoubencai/Desktop/os_c-ch6/kernel/lib/printk.c:22
    802020ac:	fec42783          	lw	a5,-20(s0)
/home/caigoubencai/Desktop/os_c-ch6/kernel/lib/printk.c:23
    802020b0:	853e                	mv	a0,a5
    802020b2:	7422                	ld	s0,40(sp)
    802020b4:	6145                	addi	sp,sp,48
    802020b6:	8082                	ret

00000000802020b8 <mini_itoa>:
mini_itoa():
/home/caigoubencai/Desktop/os_c-ch6/kernel/lib/printk.c:28
    802020b8:	715d                	addi	sp,sp,-80
    802020ba:	e4a2                	sd	s0,72(sp)
    802020bc:	0880                	addi	s0,sp,80
    802020be:	fca43423          	sd	a0,-56(s0)
    802020c2:	fae43823          	sd	a4,-80(s0)
    802020c6:	873e                	mv	a4,a5
    802020c8:	87ae                	mv	a5,a1
    802020ca:	fcf42223          	sw	a5,-60(s0)
    802020ce:	87b2                	mv	a5,a2
    802020d0:	fcf42023          	sw	a5,-64(s0)
    802020d4:	87b6                	mv	a5,a3
    802020d6:	faf42e23          	sw	a5,-68(s0)
    802020da:	87ba                	mv	a5,a4
    802020dc:	faf42c23          	sw	a5,-72(s0)
/home/caigoubencai/Desktop/os_c-ch6/kernel/lib/printk.c:29
    802020e0:	fb043783          	ld	a5,-80(s0)
    802020e4:	fef43423          	sd	a5,-24(s0)
/home/caigoubencai/Desktop/os_c-ch6/kernel/lib/printk.c:30
    802020e8:	fe042223          	sw	zero,-28(s0)
/home/caigoubencai/Desktop/os_c-ch6/kernel/lib/printk.c:34
    802020ec:	fc442783          	lw	a5,-60(s0)
    802020f0:	0007871b          	sext.w	a4,a5
    802020f4:	47c1                	li	a5,16
    802020f6:	00e7f463          	bgeu	a5,a4,802020fe <mini_itoa+0x46>
/home/caigoubencai/Desktop/os_c-ch6/kernel/lib/printk.c:35
    802020fa:	4781                	li	a5,0
    802020fc:	aae9                	j	802022d6 <mini_itoa+0x21e>
/home/caigoubencai/Desktop/os_c-ch6/kernel/lib/printk.c:37
    802020fe:	fc843783          	ld	a5,-56(s0)
    80202102:	0007df63          	bgez	a5,80202120 <mini_itoa+0x68>
/home/caigoubencai/Desktop/os_c-ch6/kernel/lib/printk.c:37 (discriminator 1)
    80202106:	fbc42783          	lw	a5,-68(s0)
    8020210a:	2781                	sext.w	a5,a5
    8020210c:	eb91                	bnez	a5,80202120 <mini_itoa+0x68>
/home/caigoubencai/Desktop/os_c-ch6/kernel/lib/printk.c:39
    8020210e:	4785                	li	a5,1
    80202110:	fef42223          	sw	a5,-28(s0)
/home/caigoubencai/Desktop/os_c-ch6/kernel/lib/printk.c:40
    80202114:	fc843783          	ld	a5,-56(s0)
    80202118:	40f007b3          	neg	a5,a5
    8020211c:	fcf43423          	sd	a5,-56(s0)
/home/caigoubencai/Desktop/os_c-ch6/kernel/lib/printk.c:46
    80202120:	fc042e23          	sw	zero,-36(s0)
/home/caigoubencai/Desktop/os_c-ch6/kernel/lib/printk.c:47
    80202124:	fbc42783          	lw	a5,-68(s0)
    80202128:	2781                	sext.w	a5,a5
    8020212a:	cb91                	beqz	a5,8020213e <mini_itoa+0x86>
/home/caigoubencai/Desktop/os_c-ch6/kernel/lib/printk.c:49
    8020212c:	fc843703          	ld	a4,-56(s0)
    80202130:	fc446783          	lwu	a5,-60(s0)
    80202134:	02f777b3          	remu	a5,a4,a5
    80202138:	fcf42e23          	sw	a5,-36(s0)
    8020213c:	a809                	j	8020214e <mini_itoa+0x96>
/home/caigoubencai/Desktop/os_c-ch6/kernel/lib/printk.c:53
    8020213e:	fc446783          	lwu	a5,-60(s0)
    80202142:	fc843703          	ld	a4,-56(s0)
    80202146:	02f767b3          	rem	a5,a4,a5
    8020214a:	fcf42e23          	sw	a5,-36(s0)
/home/caigoubencai/Desktop/os_c-ch6/kernel/lib/printk.c:55
    8020214e:	fdc42783          	lw	a5,-36(s0)
    80202152:	0007871b          	sext.w	a4,a5
    80202156:	47a5                	li	a5,9
    80202158:	00e7cb63          	blt	a5,a4,8020216e <mini_itoa+0xb6>
/home/caigoubencai/Desktop/os_c-ch6/kernel/lib/printk.c:56 (discriminator 1)
    8020215c:	fdc42783          	lw	a5,-36(s0)
    80202160:	0ff7f793          	andi	a5,a5,255
/home/caigoubencai/Desktop/os_c-ch6/kernel/lib/printk.c:55 (discriminator 1)
    80202164:	0307879b          	addiw	a5,a5,48
    80202168:	0ff7f713          	andi	a4,a5,255
    8020216c:	a025                	j	80202194 <mini_itoa+0xdc>
/home/caigoubencai/Desktop/os_c-ch6/kernel/lib/printk.c:56
    8020216e:	fc042783          	lw	a5,-64(s0)
    80202172:	2781                	sext.w	a5,a5
    80202174:	c781                	beqz	a5,8020217c <mini_itoa+0xc4>
/home/caigoubencai/Desktop/os_c-ch6/kernel/lib/printk.c:56 (discriminator 1)
    80202176:	04100793          	li	a5,65
    8020217a:	a019                	j	80202180 <mini_itoa+0xc8>
/home/caigoubencai/Desktop/os_c-ch6/kernel/lib/printk.c:56 (discriminator 2)
    8020217c:	06100793          	li	a5,97
/home/caigoubencai/Desktop/os_c-ch6/kernel/lib/printk.c:56 (discriminator 4)
    80202180:	fdc42703          	lw	a4,-36(s0)
    80202184:	0ff77713          	andi	a4,a4,255
    80202188:	9fb9                	addw	a5,a5,a4
    8020218a:	0ff7f793          	andi	a5,a5,255
/home/caigoubencai/Desktop/os_c-ch6/kernel/lib/printk.c:55 (discriminator 4)
    8020218e:	37d9                	addiw	a5,a5,-10
    80202190:	0ff7f713          	andi	a4,a5,255
/home/caigoubencai/Desktop/os_c-ch6/kernel/lib/printk.c:55 (discriminator 3)
    80202194:	fe843783          	ld	a5,-24(s0)
    80202198:	00178693          	addi	a3,a5,1
    8020219c:	fed43423          	sd	a3,-24(s0)
    802021a0:	00e78023          	sb	a4,0(a5)
/home/caigoubencai/Desktop/os_c-ch6/kernel/lib/printk.c:57 (discriminator 3)
    802021a4:	fbc42783          	lw	a5,-68(s0)
    802021a8:	2781                	sext.w	a5,a5
    802021aa:	cb91                	beqz	a5,802021be <mini_itoa+0x106>
/home/caigoubencai/Desktop/os_c-ch6/kernel/lib/printk.c:59
    802021ac:	fc843703          	ld	a4,-56(s0)
    802021b0:	fc446783          	lwu	a5,-60(s0)
    802021b4:	02f757b3          	divu	a5,a4,a5
    802021b8:	fcf43423          	sd	a5,-56(s0)
    802021bc:	a809                	j	802021ce <mini_itoa+0x116>
/home/caigoubencai/Desktop/os_c-ch6/kernel/lib/printk.c:63
    802021be:	fc446783          	lwu	a5,-60(s0)
    802021c2:	fc843703          	ld	a4,-56(s0)
    802021c6:	02f747b3          	div	a5,a4,a5
    802021ca:	fcf43423          	sd	a5,-56(s0)
/home/caigoubencai/Desktop/os_c-ch6/kernel/lib/printk.c:65
    802021ce:	fc843783          	ld	a5,-56(s0)
    802021d2:	f7b9                	bnez	a5,80202120 <mini_itoa+0x68>
/home/caigoubencai/Desktop/os_c-ch6/kernel/lib/printk.c:67
    802021d4:	fe843703          	ld	a4,-24(s0)
    802021d8:	fb043783          	ld	a5,-80(s0)
    802021dc:	40f707b3          	sub	a5,a4,a5
    802021e0:	fef42023          	sw	a5,-32(s0)
    802021e4:	a005                	j	80202204 <mini_itoa+0x14c>
/home/caigoubencai/Desktop/os_c-ch6/kernel/lib/printk.c:68 (discriminator 3)
    802021e6:	fe843783          	ld	a5,-24(s0)
    802021ea:	00178713          	addi	a4,a5,1
    802021ee:	fee43423          	sd	a4,-24(s0)
    802021f2:	03000713          	li	a4,48
    802021f6:	00e78023          	sb	a4,0(a5)
/home/caigoubencai/Desktop/os_c-ch6/kernel/lib/printk.c:67 (discriminator 3)
    802021fa:	fe042783          	lw	a5,-32(s0)
    802021fe:	2785                	addiw	a5,a5,1
    80202200:	fef42023          	sw	a5,-32(s0)
/home/caigoubencai/Desktop/os_c-ch6/kernel/lib/printk.c:67 (discriminator 1)
    80202204:	fe042703          	lw	a4,-32(s0)
    80202208:	fb842783          	lw	a5,-72(s0)
    8020220c:	2701                	sext.w	a4,a4
    8020220e:	2781                	sext.w	a5,a5
    80202210:	fcf76be3          	bltu	a4,a5,802021e6 <mini_itoa+0x12e>
/home/caigoubencai/Desktop/os_c-ch6/kernel/lib/printk.c:70
    80202214:	fe442783          	lw	a5,-28(s0)
    80202218:	2781                	sext.w	a5,a5
    8020221a:	cb99                	beqz	a5,80202230 <mini_itoa+0x178>
/home/caigoubencai/Desktop/os_c-ch6/kernel/lib/printk.c:71
    8020221c:	fe843783          	ld	a5,-24(s0)
    80202220:	00178713          	addi	a4,a5,1
    80202224:	fee43423          	sd	a4,-24(s0)
    80202228:	02d00713          	li	a4,45
    8020222c:	00e78023          	sb	a4,0(a5)
/home/caigoubencai/Desktop/os_c-ch6/kernel/lib/printk.c:73
    80202230:	fe843783          	ld	a5,-24(s0)
    80202234:	00078023          	sb	zero,0(a5)
/home/caigoubencai/Desktop/os_c-ch6/kernel/lib/printk.c:75
    80202238:	fe843703          	ld	a4,-24(s0)
    8020223c:	fb043783          	ld	a5,-80(s0)
    80202240:	40f707b3          	sub	a5,a4,a5
    80202244:	fcf42c23          	sw	a5,-40(s0)
/home/caigoubencai/Desktop/os_c-ch6/kernel/lib/printk.c:76
    80202248:	fe042023          	sw	zero,-32(s0)
    8020224c:	a885                	j	802022bc <mini_itoa+0x204>
/home/caigoubencai/Desktop/os_c-ch6/kernel/lib/printk.c:78 (discriminator 3)
    8020224e:	fe046783          	lwu	a5,-32(s0)
    80202252:	fb043703          	ld	a4,-80(s0)
    80202256:	97ba                	add	a5,a5,a4
    80202258:	0007c783          	lbu	a5,0(a5)
    8020225c:	fcf40ba3          	sb	a5,-41(s0)
/home/caigoubencai/Desktop/os_c-ch6/kernel/lib/printk.c:79 (discriminator 3)
    80202260:	fd842703          	lw	a4,-40(s0)
    80202264:	fe042783          	lw	a5,-32(s0)
    80202268:	40f707bb          	subw	a5,a4,a5
    8020226c:	2781                	sext.w	a5,a5
    8020226e:	37fd                	addiw	a5,a5,-1
    80202270:	2781                	sext.w	a5,a5
    80202272:	1782                	slli	a5,a5,0x20
    80202274:	9381                	srli	a5,a5,0x20
    80202276:	fb043703          	ld	a4,-80(s0)
    8020227a:	973e                	add	a4,a4,a5
    8020227c:	fe046783          	lwu	a5,-32(s0)
    80202280:	fb043683          	ld	a3,-80(s0)
    80202284:	97b6                	add	a5,a5,a3
    80202286:	00074703          	lbu	a4,0(a4)
    8020228a:	00e78023          	sb	a4,0(a5)
/home/caigoubencai/Desktop/os_c-ch6/kernel/lib/printk.c:80 (discriminator 3)
    8020228e:	fd842703          	lw	a4,-40(s0)
    80202292:	fe042783          	lw	a5,-32(s0)
    80202296:	40f707bb          	subw	a5,a4,a5
    8020229a:	2781                	sext.w	a5,a5
    8020229c:	37fd                	addiw	a5,a5,-1
    8020229e:	2781                	sext.w	a5,a5
    802022a0:	1782                	slli	a5,a5,0x20
    802022a2:	9381                	srli	a5,a5,0x20
    802022a4:	fb043703          	ld	a4,-80(s0)
    802022a8:	97ba                	add	a5,a5,a4
    802022aa:	fd744703          	lbu	a4,-41(s0)
    802022ae:	00e78023          	sb	a4,0(a5)
/home/caigoubencai/Desktop/os_c-ch6/kernel/lib/printk.c:76 (discriminator 3)
    802022b2:	fe042783          	lw	a5,-32(s0)
    802022b6:	2785                	addiw	a5,a5,1
    802022b8:	fef42023          	sw	a5,-32(s0)
/home/caigoubencai/Desktop/os_c-ch6/kernel/lib/printk.c:76 (discriminator 1)
    802022bc:	fd842783          	lw	a5,-40(s0)
    802022c0:	0017d79b          	srliw	a5,a5,0x1
    802022c4:	0007871b          	sext.w	a4,a5
    802022c8:	fe042783          	lw	a5,-32(s0)
    802022cc:	2781                	sext.w	a5,a5
    802022ce:	f8e7e0e3          	bltu	a5,a4,8020224e <mini_itoa+0x196>
/home/caigoubencai/Desktop/os_c-ch6/kernel/lib/printk.c:83
    802022d2:	fd842783          	lw	a5,-40(s0)
/home/caigoubencai/Desktop/os_c-ch6/kernel/lib/printk.c:84
    802022d6:	853e                	mv	a0,a5
    802022d8:	6426                	ld	s0,72(sp)
    802022da:	6161                	addi	sp,sp,80
    802022dc:	8082                	ret

00000000802022de <_putc>:
_putc():
/home/caigoubencai/Desktop/os_c-ch6/kernel/lib/printk.c:93
    802022de:	1101                	addi	sp,sp,-32
    802022e0:	ec22                	sd	s0,24(sp)
    802022e2:	1000                	addi	s0,sp,32
    802022e4:	87aa                	mv	a5,a0
    802022e6:	feb43023          	sd	a1,-32(s0)
    802022ea:	fef42623          	sw	a5,-20(s0)
/home/caigoubencai/Desktop/os_c-ch6/kernel/lib/printk.c:94
    802022ee:	fe043783          	ld	a5,-32(s0)
    802022f2:	6798                	ld	a4,8(a5)
    802022f4:	fe043783          	ld	a5,-32(s0)
    802022f8:	639c                	ld	a5,0(a5)
    802022fa:	40f707b3          	sub	a5,a4,a5
    802022fe:	2781                	sext.w	a5,a5
    80202300:	2785                	addiw	a5,a5,1
    80202302:	0007871b          	sext.w	a4,a5
/home/caigoubencai/Desktop/os_c-ch6/kernel/lib/printk.c:95
    80202306:	fe043783          	ld	a5,-32(s0)
    8020230a:	4b9c                	lw	a5,16(a5)
/home/caigoubencai/Desktop/os_c-ch6/kernel/lib/printk.c:94
    8020230c:	00f76463          	bltu	a4,a5,80202314 <_putc+0x36>
/home/caigoubencai/Desktop/os_c-ch6/kernel/lib/printk.c:96
    80202310:	4781                	li	a5,0
    80202312:	a02d                	j	8020233c <_putc+0x5e>
/home/caigoubencai/Desktop/os_c-ch6/kernel/lib/printk.c:97
    80202314:	fe043783          	ld	a5,-32(s0)
    80202318:	679c                	ld	a5,8(a5)
    8020231a:	00178693          	addi	a3,a5,1
    8020231e:	fe043703          	ld	a4,-32(s0)
    80202322:	e714                	sd	a3,8(a4)
    80202324:	fec42703          	lw	a4,-20(s0)
    80202328:	0ff77713          	andi	a4,a4,255
    8020232c:	00e78023          	sb	a4,0(a5)
/home/caigoubencai/Desktop/os_c-ch6/kernel/lib/printk.c:98
    80202330:	fe043783          	ld	a5,-32(s0)
    80202334:	679c                	ld	a5,8(a5)
    80202336:	00078023          	sb	zero,0(a5)
/home/caigoubencai/Desktop/os_c-ch6/kernel/lib/printk.c:99
    8020233a:	4785                	li	a5,1
/home/caigoubencai/Desktop/os_c-ch6/kernel/lib/printk.c:100
    8020233c:	853e                	mv	a0,a5
    8020233e:	6462                	ld	s0,24(sp)
    80202340:	6105                	addi	sp,sp,32
    80202342:	8082                	ret

0000000080202344 <_puts>:
_puts():
/home/caigoubencai/Desktop/os_c-ch6/kernel/lib/printk.c:103
    80202344:	7139                	addi	sp,sp,-64
    80202346:	fc22                	sd	s0,56(sp)
    80202348:	0080                	addi	s0,sp,64
    8020234a:	fca43c23          	sd	a0,-40(s0)
    8020234e:	87ae                	mv	a5,a1
    80202350:	fcc43423          	sd	a2,-56(s0)
    80202354:	fcf42a23          	sw	a5,-44(s0)
/home/caigoubencai/Desktop/os_c-ch6/kernel/lib/printk.c:106
    80202358:	fc843783          	ld	a5,-56(s0)
    8020235c:	4b9c                	lw	a5,16(a5)
    8020235e:	02079713          	slli	a4,a5,0x20
    80202362:	9301                	srli	a4,a4,0x20
    80202364:	fc843783          	ld	a5,-56(s0)
    80202368:	6794                	ld	a3,8(a5)
    8020236a:	fc843783          	ld	a5,-56(s0)
    8020236e:	639c                	ld	a5,0(a5)
    80202370:	40f687b3          	sub	a5,a3,a5
    80202374:	8f1d                	sub	a4,a4,a5
    80202376:	fd446783          	lwu	a5,-44(s0)
    8020237a:	02e7c463          	blt	a5,a4,802023a2 <_puts+0x5e>
/home/caigoubencai/Desktop/os_c-ch6/kernel/lib/printk.c:107
    8020237e:	fc843783          	ld	a5,-56(s0)
    80202382:	4b98                	lw	a4,16(a5)
    80202384:	fc843783          	ld	a5,-56(s0)
    80202388:	6794                	ld	a3,8(a5)
    8020238a:	fc843783          	ld	a5,-56(s0)
    8020238e:	639c                	ld	a5,0(a5)
    80202390:	40f687b3          	sub	a5,a3,a5
    80202394:	2781                	sext.w	a5,a5
    80202396:	40f707bb          	subw	a5,a4,a5
    8020239a:	2781                	sext.w	a5,a5
    8020239c:	37fd                	addiw	a5,a5,-1
    8020239e:	fcf42a23          	sw	a5,-44(s0)
/home/caigoubencai/Desktop/os_c-ch6/kernel/lib/printk.c:110
    802023a2:	fe042623          	sw	zero,-20(s0)
    802023a6:	a03d                	j	802023d4 <_puts+0x90>
/home/caigoubencai/Desktop/os_c-ch6/kernel/lib/printk.c:111 (discriminator 3)
    802023a8:	fec46783          	lwu	a5,-20(s0)
    802023ac:	fd843703          	ld	a4,-40(s0)
    802023b0:	973e                	add	a4,a4,a5
    802023b2:	fc843783          	ld	a5,-56(s0)
    802023b6:	679c                	ld	a5,8(a5)
    802023b8:	00178613          	addi	a2,a5,1
    802023bc:	fc843683          	ld	a3,-56(s0)
    802023c0:	e690                	sd	a2,8(a3)
    802023c2:	00074703          	lbu	a4,0(a4)
    802023c6:	00e78023          	sb	a4,0(a5)
/home/caigoubencai/Desktop/os_c-ch6/kernel/lib/printk.c:110 (discriminator 3)
    802023ca:	fec42783          	lw	a5,-20(s0)
    802023ce:	2785                	addiw	a5,a5,1
    802023d0:	fef42623          	sw	a5,-20(s0)
/home/caigoubencai/Desktop/os_c-ch6/kernel/lib/printk.c:110 (discriminator 1)
    802023d4:	fec42703          	lw	a4,-20(s0)
    802023d8:	fd442783          	lw	a5,-44(s0)
    802023dc:	2701                	sext.w	a4,a4
    802023de:	2781                	sext.w	a5,a5
    802023e0:	fcf764e3          	bltu	a4,a5,802023a8 <_puts+0x64>
/home/caigoubencai/Desktop/os_c-ch6/kernel/lib/printk.c:112
    802023e4:	fc843783          	ld	a5,-56(s0)
    802023e8:	679c                	ld	a5,8(a5)
    802023ea:	00078023          	sb	zero,0(a5)
/home/caigoubencai/Desktop/os_c-ch6/kernel/lib/printk.c:114
    802023ee:	fd442783          	lw	a5,-44(s0)
/home/caigoubencai/Desktop/os_c-ch6/kernel/lib/printk.c:115
    802023f2:	853e                	mv	a0,a5
    802023f4:	7462                	ld	s0,56(sp)
    802023f6:	6121                	addi	sp,sp,64
    802023f8:	8082                	ret

00000000802023fa <mini_vsnprintf>:
mini_vsnprintf():
/home/caigoubencai/Desktop/os_c-ch6/kernel/lib/printk.c:120
    802023fa:	7119                	addi	sp,sp,-128
    802023fc:	fc86                	sd	ra,120(sp)
    802023fe:	f8a2                	sd	s0,112(sp)
    80202400:	0100                	addi	s0,sp,128
    80202402:	f8a43c23          	sd	a0,-104(s0)
    80202406:	87ae                	mv	a5,a1
    80202408:	f8c43423          	sd	a2,-120(s0)
    8020240c:	f8d43023          	sd	a3,-128(s0)
    80202410:	f8f42a23          	sw	a5,-108(s0)
/home/caigoubencai/Desktop/os_c-ch6/kernel/lib/printk.c:125
    80202414:	f9843783          	ld	a5,-104(s0)
    80202418:	fcf43023          	sd	a5,-64(s0)
/home/caigoubencai/Desktop/os_c-ch6/kernel/lib/printk.c:126
    8020241c:	f9843783          	ld	a5,-104(s0)
    80202420:	fcf43423          	sd	a5,-56(s0)
/home/caigoubencai/Desktop/os_c-ch6/kernel/lib/printk.c:127
    80202424:	f9442783          	lw	a5,-108(s0)
    80202428:	fcf42823          	sw	a5,-48(s0)
/home/caigoubencai/Desktop/os_c-ch6/kernel/lib/printk.c:129
    8020242c:	a4f9                	j	802026fa <mini_vsnprintf+0x300>
/home/caigoubencai/Desktop/os_c-ch6/kernel/lib/printk.c:131
    8020242e:	fc843703          	ld	a4,-56(s0)
    80202432:	fc043783          	ld	a5,-64(s0)
    80202436:	40f707b3          	sub	a5,a4,a5
    8020243a:	2781                	sext.w	a5,a5
    8020243c:	2785                	addiw	a5,a5,1
    8020243e:	0007871b          	sext.w	a4,a5
/home/caigoubencai/Desktop/os_c-ch6/kernel/lib/printk.c:132
    80202442:	fd042783          	lw	a5,-48(s0)
/home/caigoubencai/Desktop/os_c-ch6/kernel/lib/printk.c:131
    80202446:	2cf77b63          	bgeu	a4,a5,8020271c <mini_vsnprintf+0x322>
/home/caigoubencai/Desktop/os_c-ch6/kernel/lib/printk.c:134
    8020244a:	fef44783          	lbu	a5,-17(s0)
    8020244e:	0ff7f713          	andi	a4,a5,255
    80202452:	02500793          	li	a5,37
    80202456:	00f70c63          	beq	a4,a5,8020246e <mini_vsnprintf+0x74>
/home/caigoubencai/Desktop/os_c-ch6/kernel/lib/printk.c:135
    8020245a:	fef44783          	lbu	a5,-17(s0)
    8020245e:	2781                	sext.w	a5,a5
    80202460:	fc040713          	addi	a4,s0,-64
    80202464:	85ba                	mv	a1,a4
    80202466:	853e                	mv	a0,a5
    80202468:	e77ff0ef          	jal	ra,802022de <_putc>
    8020246c:	a479                	j	802026fa <mini_vsnprintf+0x300>
/home/caigoubencai/Desktop/os_c-ch6/kernel/lib/printk.c:138
    8020246e:	fe040723          	sb	zero,-18(s0)
/home/caigoubencai/Desktop/os_c-ch6/kernel/lib/printk.c:139
    80202472:	fe042423          	sw	zero,-24(s0)
/home/caigoubencai/Desktop/os_c-ch6/kernel/lib/printk.c:143
    80202476:	f8843783          	ld	a5,-120(s0)
    8020247a:	00178713          	addi	a4,a5,1
    8020247e:	f8e43423          	sd	a4,-120(s0)
    80202482:	0007c783          	lbu	a5,0(a5)
    80202486:	fef407a3          	sb	a5,-17(s0)
/home/caigoubencai/Desktop/os_c-ch6/kernel/lib/printk.c:146
    8020248a:	fef44783          	lbu	a5,-17(s0)
    8020248e:	0ff7f713          	andi	a4,a5,255
    80202492:	03000793          	li	a5,48
    80202496:	06f71b63          	bne	a4,a5,8020250c <mini_vsnprintf+0x112>
/home/caigoubencai/Desktop/os_c-ch6/kernel/lib/printk.c:148
    8020249a:	a891                	j	802024ee <mini_vsnprintf+0xf4>
/home/caigoubencai/Desktop/os_c-ch6/kernel/lib/printk.c:150
    8020249c:	fef44783          	lbu	a5,-17(s0)
    802024a0:	0ff7f793          	andi	a5,a5,255
    802024a4:	26078e63          	beqz	a5,80202720 <mini_vsnprintf+0x326>
/home/caigoubencai/Desktop/os_c-ch6/kernel/lib/printk.c:152
    802024a8:	fef44783          	lbu	a5,-17(s0)
    802024ac:	0ff7f713          	andi	a4,a5,255
    802024b0:	02f00793          	li	a5,47
    802024b4:	04e7fc63          	bgeu	a5,a4,8020250c <mini_vsnprintf+0x112>
/home/caigoubencai/Desktop/os_c-ch6/kernel/lib/printk.c:152 (discriminator 1)
    802024b8:	fef44783          	lbu	a5,-17(s0)
    802024bc:	0ff7f713          	andi	a4,a5,255
    802024c0:	03900793          	li	a5,57
    802024c4:	04e7e463          	bltu	a5,a4,8020250c <mini_vsnprintf+0x112>
/home/caigoubencai/Desktop/os_c-ch6/kernel/lib/printk.c:154
    802024c8:	fee44703          	lbu	a4,-18(s0)
    802024cc:	87ba                	mv	a5,a4
    802024ce:	0027979b          	slliw	a5,a5,0x2
    802024d2:	9fb9                	addw	a5,a5,a4
    802024d4:	0017979b          	slliw	a5,a5,0x1
    802024d8:	0ff7f793          	andi	a5,a5,255
    802024dc:	fef44703          	lbu	a4,-17(s0)
    802024e0:	9fb9                	addw	a5,a5,a4
    802024e2:	0ff7f793          	andi	a5,a5,255
    802024e6:	fd07879b          	addiw	a5,a5,-48
    802024ea:	fef40723          	sb	a5,-18(s0)
/home/caigoubencai/Desktop/os_c-ch6/kernel/lib/printk.c:148
    802024ee:	f8843783          	ld	a5,-120(s0)
    802024f2:	00178713          	addi	a4,a5,1
    802024f6:	f8e43423          	sd	a4,-120(s0)
    802024fa:	0007c783          	lbu	a5,0(a5)
    802024fe:	fef407a3          	sb	a5,-17(s0)
    80202502:	fef44783          	lbu	a5,-17(s0)
    80202506:	0ff7f793          	andi	a5,a5,255
    8020250a:	fbc9                	bnez	a5,8020249c <mini_vsnprintf+0xa2>
/home/caigoubencai/Desktop/os_c-ch6/kernel/lib/printk.c:162
    8020250c:	fef44783          	lbu	a5,-17(s0)
    80202510:	0ff7f713          	andi	a4,a5,255
    80202514:	06c00793          	li	a5,108
    80202518:	00f71f63          	bne	a4,a5,80202536 <mini_vsnprintf+0x13c>
/home/caigoubencai/Desktop/os_c-ch6/kernel/lib/printk.c:164
    8020251c:	4785                	li	a5,1
    8020251e:	fef42423          	sw	a5,-24(s0)
/home/caigoubencai/Desktop/os_c-ch6/kernel/lib/printk.c:165
    80202522:	f8843783          	ld	a5,-120(s0)
    80202526:	00178713          	addi	a4,a5,1
    8020252a:	f8e43423          	sd	a4,-120(s0)
    8020252e:	0007c783          	lbu	a5,0(a5)
    80202532:	fef407a3          	sb	a5,-17(s0)
/home/caigoubencai/Desktop/os_c-ch6/kernel/lib/printk.c:168
    80202536:	fef44783          	lbu	a5,-17(s0)
    8020253a:	2781                	sext.w	a5,a5
    8020253c:	1e078463          	beqz	a5,80202724 <mini_vsnprintf+0x32a>
    80202540:	873e                	mv	a4,a5
    80202542:	1a074263          	bltz	a4,802026e6 <mini_vsnprintf+0x2ec>
    80202546:	86be                	mv	a3,a5
    80202548:	07800713          	li	a4,120
    8020254c:	18d74d63          	blt	a4,a3,802026e6 <mini_vsnprintf+0x2ec>
    80202550:	86be                	mv	a3,a5
    80202552:	05800713          	li	a4,88
    80202556:	18e6c863          	blt	a3,a4,802026e6 <mini_vsnprintf+0x2ec>
    8020255a:	fa87869b          	addiw	a3,a5,-88
    8020255e:	0006871b          	sext.w	a4,a3
    80202562:	02000793          	li	a5,32
    80202566:	18e7e063          	bltu	a5,a4,802026e6 <mini_vsnprintf+0x2ec>
    8020256a:	02069793          	slli	a5,a3,0x20
    8020256e:	9381                	srli	a5,a5,0x20
    80202570:	00279713          	slli	a4,a5,0x2
    80202574:	0000f797          	auipc	a5,0xf
    80202578:	a8c78793          	addi	a5,a5,-1396 # 80211000 <etext>
    8020257c:	97ba                	add	a5,a5,a4
    8020257e:	439c                	lw	a5,0(a5)
    80202580:	0007871b          	sext.w	a4,a5
    80202584:	0000f797          	auipc	a5,0xf
    80202588:	a7c78793          	addi	a5,a5,-1412 # 80211000 <etext>
    8020258c:	97ba                	add	a5,a5,a4
    8020258e:	8782                	jr	a5
/home/caigoubencai/Desktop/os_c-ch6/kernel/lib/printk.c:174
    80202590:	4785                	li	a5,1
    80202592:	fef42423          	sw	a5,-24(s0)
/home/caigoubencai/Desktop/os_c-ch6/kernel/lib/printk.c:175
    80202596:	a295                	j	802026fa <mini_vsnprintf+0x300>
/home/caigoubencai/Desktop/os_c-ch6/kernel/lib/printk.c:179
    80202598:	fe842783          	lw	a5,-24(s0)
    8020259c:	2781                	sext.w	a5,a5
    8020259e:	ef81                	bnez	a5,802025b6 <mini_vsnprintf+0x1bc>
/home/caigoubencai/Desktop/os_c-ch6/kernel/lib/printk.c:180
    802025a0:	f8043783          	ld	a5,-128(s0)
    802025a4:	00878713          	addi	a4,a5,8
    802025a8:	f8e43023          	sd	a4,-128(s0)
    802025ac:	439c                	lw	a5,0(a5)
/home/caigoubencai/Desktop/os_c-ch6/kernel/lib/printk.c:179
    802025ae:	02079513          	slli	a0,a5,0x20
    802025b2:	9101                	srli	a0,a0,0x20
    802025b4:	a809                	j	802025c6 <mini_vsnprintf+0x1cc>
/home/caigoubencai/Desktop/os_c-ch6/kernel/lib/printk.c:182
    802025b6:	f8043783          	ld	a5,-128(s0)
    802025ba:	00878713          	addi	a4,a5,8
    802025be:	f8e43023          	sd	a4,-128(s0)
    802025c2:	639c                	ld	a5,0(a5)
/home/caigoubencai/Desktop/os_c-ch6/kernel/lib/printk.c:179
    802025c4:	853e                	mv	a0,a5
/home/caigoubencai/Desktop/os_c-ch6/kernel/lib/printk.c:179 (discriminator 4)
    802025c6:	fef44783          	lbu	a5,-17(s0)
    802025ca:	0007871b          	sext.w	a4,a5
    802025ce:	07500793          	li	a5,117
    802025d2:	40f707b3          	sub	a5,a4,a5
    802025d6:	0017b793          	seqz	a5,a5
    802025da:	0ff7f793          	andi	a5,a5,255
    802025de:	0007869b          	sext.w	a3,a5
    802025e2:	fee44783          	lbu	a5,-18(s0)
    802025e6:	2781                	sext.w	a5,a5
    802025e8:	fa840713          	addi	a4,s0,-88
    802025ec:	4601                	li	a2,0
    802025ee:	45a9                	li	a1,10
    802025f0:	ac9ff0ef          	jal	ra,802020b8 <mini_itoa>
    802025f4:	87aa                	mv	a5,a0
    802025f6:	fcf42e23          	sw	a5,-36(s0)
/home/caigoubencai/Desktop/os_c-ch6/kernel/lib/printk.c:184 (discriminator 4)
    802025fa:	fc040693          	addi	a3,s0,-64
    802025fe:	fdc42703          	lw	a4,-36(s0)
    80202602:	fa840793          	addi	a5,s0,-88
    80202606:	8636                	mv	a2,a3
    80202608:	85ba                	mv	a1,a4
    8020260a:	853e                	mv	a0,a5
    8020260c:	d39ff0ef          	jal	ra,80202344 <_puts>
/home/caigoubencai/Desktop/os_c-ch6/kernel/lib/printk.c:185 (discriminator 4)
    80202610:	fe042423          	sw	zero,-24(s0)
/home/caigoubencai/Desktop/os_c-ch6/kernel/lib/printk.c:186 (discriminator 4)
    80202614:	a0dd                	j	802026fa <mini_vsnprintf+0x300>
/home/caigoubencai/Desktop/os_c-ch6/kernel/lib/printk.c:189
    80202616:	fe842783          	lw	a5,-24(s0)
    8020261a:	2781                	sext.w	a5,a5
    8020261c:	ef81                	bnez	a5,80202634 <mini_vsnprintf+0x23a>
/home/caigoubencai/Desktop/os_c-ch6/kernel/lib/printk.c:190
    8020261e:	f8043783          	ld	a5,-128(s0)
    80202622:	00878713          	addi	a4,a5,8
    80202626:	f8e43023          	sd	a4,-128(s0)
    8020262a:	439c                	lw	a5,0(a5)
/home/caigoubencai/Desktop/os_c-ch6/kernel/lib/printk.c:189
    8020262c:	02079513          	slli	a0,a5,0x20
    80202630:	9101                	srli	a0,a0,0x20
    80202632:	a809                	j	80202644 <mini_vsnprintf+0x24a>
/home/caigoubencai/Desktop/os_c-ch6/kernel/lib/printk.c:192
    80202634:	f8043783          	ld	a5,-128(s0)
    80202638:	00878713          	addi	a4,a5,8
    8020263c:	f8e43023          	sd	a4,-128(s0)
    80202640:	639c                	ld	a5,0(a5)
/home/caigoubencai/Desktop/os_c-ch6/kernel/lib/printk.c:189
    80202642:	853e                	mv	a0,a5
/home/caigoubencai/Desktop/os_c-ch6/kernel/lib/printk.c:189 (discriminator 4)
    80202644:	fef44783          	lbu	a5,-17(s0)
    80202648:	0007871b          	sext.w	a4,a5
    8020264c:	05800793          	li	a5,88
    80202650:	40f707b3          	sub	a5,a4,a5
    80202654:	0017b793          	seqz	a5,a5
    80202658:	0ff7f793          	andi	a5,a5,255
    8020265c:	0007861b          	sext.w	a2,a5
    80202660:	fee44783          	lbu	a5,-18(s0)
    80202664:	2781                	sext.w	a5,a5
    80202666:	fa840713          	addi	a4,s0,-88
    8020266a:	4685                	li	a3,1
    8020266c:	45c1                	li	a1,16
    8020266e:	a4bff0ef          	jal	ra,802020b8 <mini_itoa>
    80202672:	87aa                	mv	a5,a0
    80202674:	fcf42e23          	sw	a5,-36(s0)
/home/caigoubencai/Desktop/os_c-ch6/kernel/lib/printk.c:194 (discriminator 4)
    80202678:	fc040693          	addi	a3,s0,-64
    8020267c:	fdc42703          	lw	a4,-36(s0)
    80202680:	fa840793          	addi	a5,s0,-88
    80202684:	8636                	mv	a2,a3
    80202686:	85ba                	mv	a1,a4
    80202688:	853e                	mv	a0,a5
    8020268a:	cbbff0ef          	jal	ra,80202344 <_puts>
/home/caigoubencai/Desktop/os_c-ch6/kernel/lib/printk.c:195 (discriminator 4)
    8020268e:	fe042423          	sw	zero,-24(s0)
/home/caigoubencai/Desktop/os_c-ch6/kernel/lib/printk.c:196 (discriminator 4)
    80202692:	a0a5                	j	802026fa <mini_vsnprintf+0x300>
/home/caigoubencai/Desktop/os_c-ch6/kernel/lib/printk.c:199
    80202694:	f8043783          	ld	a5,-128(s0)
    80202698:	00878713          	addi	a4,a5,8
    8020269c:	f8e43023          	sd	a4,-128(s0)
    802026a0:	439c                	lw	a5,0(a5)
    802026a2:	0ff7f793          	andi	a5,a5,255
    802026a6:	2781                	sext.w	a5,a5
    802026a8:	fc040713          	addi	a4,s0,-64
    802026ac:	85ba                	mv	a1,a4
    802026ae:	853e                	mv	a0,a5
    802026b0:	c2fff0ef          	jal	ra,802022de <_putc>
/home/caigoubencai/Desktop/os_c-ch6/kernel/lib/printk.c:200
    802026b4:	a099                	j	802026fa <mini_vsnprintf+0x300>
/home/caigoubencai/Desktop/os_c-ch6/kernel/lib/printk.c:203
    802026b6:	f8043783          	ld	a5,-128(s0)
    802026ba:	00878713          	addi	a4,a5,8
    802026be:	f8e43023          	sd	a4,-128(s0)
    802026c2:	639c                	ld	a5,0(a5)
    802026c4:	fef43023          	sd	a5,-32(s0)
/home/caigoubencai/Desktop/os_c-ch6/kernel/lib/printk.c:204
    802026c8:	fe043503          	ld	a0,-32(s0)
    802026cc:	9b7ff0ef          	jal	ra,80202082 <mini_strlen>
    802026d0:	87aa                	mv	a5,a0
    802026d2:	2781                	sext.w	a5,a5
    802026d4:	fc040713          	addi	a4,s0,-64
    802026d8:	863a                	mv	a2,a4
    802026da:	85be                	mv	a1,a5
    802026dc:	fe043503          	ld	a0,-32(s0)
    802026e0:	c65ff0ef          	jal	ra,80202344 <_puts>
/home/caigoubencai/Desktop/os_c-ch6/kernel/lib/printk.c:205
    802026e4:	a819                	j	802026fa <mini_vsnprintf+0x300>
/home/caigoubencai/Desktop/os_c-ch6/kernel/lib/printk.c:208
    802026e6:	fef44783          	lbu	a5,-17(s0)
    802026ea:	2781                	sext.w	a5,a5
    802026ec:	fc040713          	addi	a4,s0,-64
    802026f0:	85ba                	mv	a1,a4
    802026f2:	853e                	mv	a0,a5
    802026f4:	bebff0ef          	jal	ra,802022de <_putc>
/home/caigoubencai/Desktop/os_c-ch6/kernel/lib/printk.c:209
    802026f8:	0001                	nop
/home/caigoubencai/Desktop/os_c-ch6/kernel/lib/printk.c:129
    802026fa:	f8843783          	ld	a5,-120(s0)
    802026fe:	00178713          	addi	a4,a5,1
    80202702:	f8e43423          	sd	a4,-120(s0)
    80202706:	0007c783          	lbu	a5,0(a5)
    8020270a:	fef407a3          	sb	a5,-17(s0)
    8020270e:	fef44783          	lbu	a5,-17(s0)
    80202712:	0ff7f793          	andi	a5,a5,255
    80202716:	d0079ce3          	bnez	a5,8020242e <mini_vsnprintf+0x34>
/home/caigoubencai/Desktop/os_c-ch6/kernel/lib/printk.c:213
    8020271a:	a031                	j	80202726 <mini_vsnprintf+0x32c>
/home/caigoubencai/Desktop/os_c-ch6/kernel/lib/printk.c:133
    8020271c:	0001                	nop
    8020271e:	a021                	j	80202726 <mini_vsnprintf+0x32c>
/home/caigoubencai/Desktop/os_c-ch6/kernel/lib/printk.c:151
    80202720:	0001                	nop
    80202722:	a011                	j	80202726 <mini_vsnprintf+0x32c>
/home/caigoubencai/Desktop/os_c-ch6/kernel/lib/printk.c:171
    80202724:	0001                	nop
/home/caigoubencai/Desktop/os_c-ch6/kernel/lib/printk.c:214
    80202726:	fc843703          	ld	a4,-56(s0)
    8020272a:	fc043783          	ld	a5,-64(s0)
    8020272e:	40f707b3          	sub	a5,a4,a5
    80202732:	2781                	sext.w	a5,a5
/home/caigoubencai/Desktop/os_c-ch6/kernel/lib/printk.c:215
    80202734:	853e                	mv	a0,a5
    80202736:	70e6                	ld	ra,120(sp)
    80202738:	7446                	ld	s0,112(sp)
    8020273a:	6109                	addi	sp,sp,128
    8020273c:	8082                	ret

000000008020273e <_vprintk>:
_vprintk():
/home/caigoubencai/Desktop/os_c-ch6/kernel/lib/printk.c:219
    8020273e:	7129                	addi	sp,sp,-320
    80202740:	fe06                	sd	ra,312(sp)
    80202742:	fa22                	sd	s0,304(sp)
    80202744:	0280                	addi	s0,sp,320
    80202746:	eca43c23          	sd	a0,-296(s0)
    8020274a:	ecb43823          	sd	a1,-304(s0)
    8020274e:	ecc43423          	sd	a2,-312(s0)
/home/caigoubencai/Desktop/os_c-ch6/kernel/lib/printk.c:221
    80202752:	ed043783          	ld	a5,-304(s0)
    80202756:	fef43023          	sd	a5,-32(s0)
/home/caigoubencai/Desktop/os_c-ch6/kernel/lib/printk.c:226
    8020275a:	fe043703          	ld	a4,-32(s0)
    8020275e:	ee040793          	addi	a5,s0,-288
    80202762:	86ba                	mv	a3,a4
    80202764:	ed843603          	ld	a2,-296(s0)
    80202768:	10000593          	li	a1,256
    8020276c:	853e                	mv	a0,a5
    8020276e:	c8dff0ef          	jal	ra,802023fa <mini_vsnprintf>
    80202772:	87aa                	mv	a5,a0
    80202774:	fef42623          	sw	a5,-20(s0)
/home/caigoubencai/Desktop/os_c-ch6/kernel/lib/printk.c:228
    80202778:	fec42783          	lw	a5,-20(s0)
    8020277c:	ff040713          	addi	a4,s0,-16
    80202780:	97ba                	add	a5,a5,a4
    80202782:	ee078823          	sb	zero,-272(a5)
/home/caigoubencai/Desktop/os_c-ch6/kernel/lib/printk.c:233
    80202786:	ee040793          	addi	a5,s0,-288
    8020278a:	ec843703          	ld	a4,-312(s0)
    8020278e:	853e                	mv	a0,a5
    80202790:	9702                	jalr	a4
/home/caigoubencai/Desktop/os_c-ch6/kernel/lib/printk.c:248
    80202792:	fec42783          	lw	a5,-20(s0)
/home/caigoubencai/Desktop/os_c-ch6/kernel/lib/printk.c:249
    80202796:	853e                	mv	a0,a5
    80202798:	70f2                	ld	ra,312(sp)
    8020279a:	7452                	ld	s0,304(sp)
    8020279c:	6131                	addi	sp,sp,320
    8020279e:	8082                	ret

00000000802027a0 <_vprints>:
_vprints():
/home/caigoubencai/Desktop/os_c-ch6/kernel/lib/printk.c:253
    802027a0:	7129                	addi	sp,sp,-320
    802027a2:	fe06                	sd	ra,312(sp)
    802027a4:	fa22                	sd	s0,304(sp)
    802027a6:	0280                	addi	s0,sp,320
    802027a8:	eca43c23          	sd	a0,-296(s0)
    802027ac:	ecb43823          	sd	a1,-304(s0)
    802027b0:	ecc43423          	sd	a2,-312(s0)
/home/caigoubencai/Desktop/os_c-ch6/kernel/lib/printk.c:255
    802027b4:	ed043783          	ld	a5,-304(s0)
    802027b8:	fef43023          	sd	a5,-32(s0)
/home/caigoubencai/Desktop/os_c-ch6/kernel/lib/printk.c:260
    802027bc:	fe043703          	ld	a4,-32(s0)
    802027c0:	ee040793          	addi	a5,s0,-288
    802027c4:	86ba                	mv	a3,a4
    802027c6:	ed843603          	ld	a2,-296(s0)
    802027ca:	10000593          	li	a1,256
    802027ce:	853e                	mv	a0,a5
    802027d0:	c2bff0ef          	jal	ra,802023fa <mini_vsnprintf>
    802027d4:	87aa                	mv	a5,a0
    802027d6:	fef42623          	sw	a5,-20(s0)
/home/caigoubencai/Desktop/os_c-ch6/kernel/lib/printk.c:262
    802027da:	fec42783          	lw	a5,-20(s0)
    802027de:	ff040713          	addi	a4,s0,-16
    802027e2:	97ba                	add	a5,a5,a4
    802027e4:	ee078823          	sb	zero,-272(a5)
/home/caigoubencai/Desktop/os_c-ch6/kernel/lib/printk.c:267
    802027e8:	ee040793          	addi	a5,s0,-288
    802027ec:	ec843703          	ld	a4,-312(s0)
    802027f0:	853e                	mv	a0,a5
    802027f2:	9702                	jalr	a4
/home/caigoubencai/Desktop/os_c-ch6/kernel/lib/printk.c:271
    802027f4:	fec42783          	lw	a5,-20(s0)
/home/caigoubencai/Desktop/os_c-ch6/kernel/lib/printk.c:272
    802027f8:	853e                	mv	a0,a5
    802027fa:	70f2                	ld	ra,312(sp)
    802027fc:	7452                	ld	s0,304(sp)
    802027fe:	6131                	addi	sp,sp,320
    80202800:	8082                	ret

0000000080202802 <vprintk>:
vprintk():
/home/caigoubencai/Desktop/os_c-ch6/kernel/lib/printk.c:275
    80202802:	1101                	addi	sp,sp,-32
    80202804:	ec06                	sd	ra,24(sp)
    80202806:	e822                	sd	s0,16(sp)
    80202808:	1000                	addi	s0,sp,32
    8020280a:	fea43423          	sd	a0,-24(s0)
    8020280e:	feb43023          	sd	a1,-32(s0)
/home/caigoubencai/Desktop/os_c-ch6/kernel/lib/printk.c:276
    80202812:	00000617          	auipc	a2,0x0
    80202816:	83660613          	addi	a2,a2,-1994 # 80202048 <port_write>
    8020281a:	fe043583          	ld	a1,-32(s0)
    8020281e:	fe843503          	ld	a0,-24(s0)
    80202822:	f1dff0ef          	jal	ra,8020273e <_vprintk>
    80202826:	87aa                	mv	a5,a0
/home/caigoubencai/Desktop/os_c-ch6/kernel/lib/printk.c:277
    80202828:	853e                	mv	a0,a5
    8020282a:	60e2                	ld	ra,24(sp)
    8020282c:	6442                	ld	s0,16(sp)
    8020282e:	6105                	addi	sp,sp,32
    80202830:	8082                	ret

0000000080202832 <printk>:
printk():
/home/caigoubencai/Desktop/os_c-ch6/kernel/lib/printk.c:280
    80202832:	7159                	addi	sp,sp,-112
    80202834:	f406                	sd	ra,40(sp)
    80202836:	f022                	sd	s0,32(sp)
    80202838:	1800                	addi	s0,sp,48
    8020283a:	fca43c23          	sd	a0,-40(s0)
    8020283e:	e40c                	sd	a1,8(s0)
    80202840:	e810                	sd	a2,16(s0)
    80202842:	ec14                	sd	a3,24(s0)
    80202844:	f018                	sd	a4,32(s0)
    80202846:	f41c                	sd	a5,40(s0)
    80202848:	03043823          	sd	a6,48(s0)
    8020284c:	03143c23          	sd	a7,56(s0)
/home/caigoubencai/Desktop/os_c-ch6/kernel/lib/printk.c:281
    80202850:	fe042623          	sw	zero,-20(s0)
/home/caigoubencai/Desktop/os_c-ch6/kernel/lib/printk.c:284
    80202854:	04040793          	addi	a5,s0,64
    80202858:	fcf43823          	sd	a5,-48(s0)
    8020285c:	fd043783          	ld	a5,-48(s0)
    80202860:	fc878793          	addi	a5,a5,-56
    80202864:	fef43023          	sd	a5,-32(s0)
/home/caigoubencai/Desktop/os_c-ch6/kernel/lib/printk.c:285
    80202868:	fe043783          	ld	a5,-32(s0)
    8020286c:	85be                	mv	a1,a5
    8020286e:	fd843503          	ld	a0,-40(s0)
    80202872:	f91ff0ef          	jal	ra,80202802 <vprintk>
    80202876:	87aa                	mv	a5,a0
    80202878:	fef42623          	sw	a5,-20(s0)
/home/caigoubencai/Desktop/os_c-ch6/kernel/lib/printk.c:288
    8020287c:	fec42783          	lw	a5,-20(s0)
/home/caigoubencai/Desktop/os_c-ch6/kernel/lib/printk.c:289
    80202880:	853e                	mv	a0,a5
    80202882:	70a2                	ld	ra,40(sp)
    80202884:	7402                	ld	s0,32(sp)
    80202886:	6165                	addi	sp,sp,112
    80202888:	8082                	ret

000000008020288a <_vprintk_port>:
_vprintk_port():
/home/caigoubencai/Desktop/os_c-ch6/kernel/lib/printk.c:295
    8020288a:	7129                	addi	sp,sp,-320
    8020288c:	fe06                	sd	ra,312(sp)
    8020288e:	fa22                	sd	s0,304(sp)
    80202890:	0280                	addi	s0,sp,320
    80202892:	eca43c23          	sd	a0,-296(s0)
    80202896:	ecb43823          	sd	a1,-304(s0)
    8020289a:	ecc43423          	sd	a2,-312(s0)
/home/caigoubencai/Desktop/os_c-ch6/kernel/lib/printk.c:297
    8020289e:	ed043783          	ld	a5,-304(s0)
    802028a2:	fef43023          	sd	a5,-32(s0)
/home/caigoubencai/Desktop/os_c-ch6/kernel/lib/printk.c:302
    802028a6:	fe043703          	ld	a4,-32(s0)
    802028aa:	ee040793          	addi	a5,s0,-288
    802028ae:	86ba                	mv	a3,a4
    802028b0:	ed843603          	ld	a2,-296(s0)
    802028b4:	10000593          	li	a1,256
    802028b8:	853e                	mv	a0,a5
    802028ba:	b41ff0ef          	jal	ra,802023fa <mini_vsnprintf>
    802028be:	87aa                	mv	a5,a0
    802028c0:	fef42623          	sw	a5,-20(s0)
/home/caigoubencai/Desktop/os_c-ch6/kernel/lib/printk.c:304
    802028c4:	fec42783          	lw	a5,-20(s0)
    802028c8:	ff040713          	addi	a4,s0,-16
    802028cc:	97ba                	add	a5,a5,a4
    802028ce:	ee078823          	sb	zero,-272(a5)
/home/caigoubencai/Desktop/os_c-ch6/kernel/lib/printk.c:313
    802028d2:	fec42783          	lw	a5,-20(s0)
/home/caigoubencai/Desktop/os_c-ch6/kernel/lib/printk.c:314
    802028d6:	853e                	mv	a0,a5
    802028d8:	70f2                	ld	ra,312(sp)
    802028da:	7452                	ld	s0,304(sp)
    802028dc:	6131                	addi	sp,sp,320
    802028de:	8082                	ret

00000000802028e0 <vprintk_port>:
vprintk_port():
/home/caigoubencai/Desktop/os_c-ch6/kernel/lib/printk.c:317
    802028e0:	1101                	addi	sp,sp,-32
    802028e2:	ec06                	sd	ra,24(sp)
    802028e4:	e822                	sd	s0,16(sp)
    802028e6:	1000                	addi	s0,sp,32
    802028e8:	fea43423          	sd	a0,-24(s0)
    802028ec:	feb43023          	sd	a1,-32(s0)
/home/caigoubencai/Desktop/os_c-ch6/kernel/lib/printk.c:318
    802028f0:	fffff617          	auipc	a2,0xfffff
    802028f4:	75860613          	addi	a2,a2,1880 # 80202048 <port_write>
    802028f8:	fe043583          	ld	a1,-32(s0)
    802028fc:	fe843503          	ld	a0,-24(s0)
    80202900:	f8bff0ef          	jal	ra,8020288a <_vprintk_port>
    80202904:	87aa                	mv	a5,a0
/home/caigoubencai/Desktop/os_c-ch6/kernel/lib/printk.c:319
    80202906:	853e                	mv	a0,a5
    80202908:	60e2                	ld	ra,24(sp)
    8020290a:	6442                	ld	s0,16(sp)
    8020290c:	6105                	addi	sp,sp,32
    8020290e:	8082                	ret

0000000080202910 <printk_port>:
printk_port():
/home/caigoubencai/Desktop/os_c-ch6/kernel/lib/printk.c:322
    80202910:	7159                	addi	sp,sp,-112
    80202912:	f406                	sd	ra,40(sp)
    80202914:	f022                	sd	s0,32(sp)
    80202916:	1800                	addi	s0,sp,48
    80202918:	fca43c23          	sd	a0,-40(s0)
    8020291c:	e40c                	sd	a1,8(s0)
    8020291e:	e810                	sd	a2,16(s0)
    80202920:	ec14                	sd	a3,24(s0)
    80202922:	f018                	sd	a4,32(s0)
    80202924:	f41c                	sd	a5,40(s0)
    80202926:	03043823          	sd	a6,48(s0)
    8020292a:	03143c23          	sd	a7,56(s0)
/home/caigoubencai/Desktop/os_c-ch6/kernel/lib/printk.c:323
    8020292e:	fe042623          	sw	zero,-20(s0)
/home/caigoubencai/Desktop/os_c-ch6/kernel/lib/printk.c:326
    80202932:	04040793          	addi	a5,s0,64
    80202936:	fcf43823          	sd	a5,-48(s0)
    8020293a:	fd043783          	ld	a5,-48(s0)
    8020293e:	fc878793          	addi	a5,a5,-56
    80202942:	fef43023          	sd	a5,-32(s0)
/home/caigoubencai/Desktop/os_c-ch6/kernel/lib/printk.c:327
    80202946:	fe043783          	ld	a5,-32(s0)
    8020294a:	85be                	mv	a1,a5
    8020294c:	fd843503          	ld	a0,-40(s0)
    80202950:	f91ff0ef          	jal	ra,802028e0 <vprintk_port>
    80202954:	87aa                	mv	a5,a0
    80202956:	fef42623          	sw	a5,-20(s0)
/home/caigoubencai/Desktop/os_c-ch6/kernel/lib/printk.c:330
    8020295a:	fec42783          	lw	a5,-20(s0)
/home/caigoubencai/Desktop/os_c-ch6/kernel/lib/printk.c:331
    8020295e:	853e                	mv	a0,a5
    80202960:	70a2                	ld	ra,40(sp)
    80202962:	7402                	ld	s0,32(sp)
    80202964:	6165                	addi	sp,sp,112
    80202966:	8082                	ret

0000000080202968 <clear_bss>:
clear_bss():
/home/caigoubencai/Desktop/os/kernel/main.c:23
#include "sys_info.h"
#include "fat_table.h"
#include "drivers.h"
extern uint8_t sbss, ebss;
void clear_bss()
{
    80202968:	1101                	addi	sp,sp,-32
    8020296a:	ec22                	sd	s0,24(sp)
    8020296c:	1000                	addi	s0,sp,32
/home/caigoubencai/Desktop/os/kernel/main.c:24
  for (uint8_t *i = &sbss; i < &ebss; i++)
    8020296e:	00020797          	auipc	a5,0x20
    80202972:	69278793          	addi	a5,a5,1682 # 80223000 <globle_info>
    80202976:	fef43423          	sd	a5,-24(s0)
    8020297a:	a811                	j	8020298e <clear_bss+0x26>
/home/caigoubencai/Desktop/os/kernel/main.c:26 (discriminator 3)
  {
    *i = 0;
    8020297c:	fe843783          	ld	a5,-24(s0)
    80202980:	00078023          	sb	zero,0(a5)
/home/caigoubencai/Desktop/os/kernel/main.c:24 (discriminator 3)
  for (uint8_t *i = &sbss; i < &ebss; i++)
    80202984:	fe843783          	ld	a5,-24(s0)
    80202988:	0785                	addi	a5,a5,1
    8020298a:	fef43423          	sd	a5,-24(s0)
/home/caigoubencai/Desktop/os/kernel/main.c:24 (discriminator 1)
    8020298e:	fe843703          	ld	a4,-24(s0)
    80202992:	00d42797          	auipc	a5,0xd42
    80202996:	66e78793          	addi	a5,a5,1646 # 80f45000 <ebss>
    8020299a:	fef761e3          	bltu	a4,a5,8020297c <clear_bss+0x14>
/home/caigoubencai/Desktop/os/kernel/main.c:28
  }
}
    8020299e:	0001                	nop
    802029a0:	0001                	nop
    802029a2:	6462                	ld	s0,24(sp)
    802029a4:	6105                	addi	sp,sp,32
    802029a6:	8082                	ret

00000000802029a8 <print_byte_as_binary>:
print_byte_as_binary():
/home/caigoubencai/Desktop/os/kernel/main.c:31

void print_byte_as_binary(uint8_t byte)
{
    802029a8:	7179                	addi	sp,sp,-48
    802029aa:	f406                	sd	ra,40(sp)
    802029ac:	f022                	sd	s0,32(sp)
    802029ae:	1800                	addi	s0,sp,48
    802029b0:	87aa                	mv	a5,a0
    802029b2:	fcf40fa3          	sb	a5,-33(s0)
/home/caigoubencai/Desktop/os/kernel/main.c:32
  for (int i = 7; i >= 0; i--)
    802029b6:	479d                	li	a5,7
    802029b8:	fef42623          	sw	a5,-20(s0)
    802029bc:	a835                	j	802029f8 <print_byte_as_binary+0x50>
/home/caigoubencai/Desktop/os/kernel/main.c:34
  {
    printk("%c", (byte & (1 << i)) ? '1' : '0');
    802029be:	fdf44783          	lbu	a5,-33(s0)
    802029c2:	0007871b          	sext.w	a4,a5
    802029c6:	fec42783          	lw	a5,-20(s0)
    802029ca:	40f757bb          	sraw	a5,a4,a5
    802029ce:	2781                	sext.w	a5,a5
    802029d0:	8b85                	andi	a5,a5,1
    802029d2:	2781                	sext.w	a5,a5
    802029d4:	c781                	beqz	a5,802029dc <print_byte_as_binary+0x34>
/home/caigoubencai/Desktop/os/kernel/main.c:34 (discriminator 1)
    802029d6:	03100793          	li	a5,49
    802029da:	a019                	j	802029e0 <print_byte_as_binary+0x38>
/home/caigoubencai/Desktop/os/kernel/main.c:34 (discriminator 2)
    802029dc:	03000793          	li	a5,48
/home/caigoubencai/Desktop/os/kernel/main.c:34 (discriminator 4)
    802029e0:	85be                	mv	a1,a5
    802029e2:	0000e517          	auipc	a0,0xe
    802029e6:	6b650513          	addi	a0,a0,1718 # 80211098 <MMIO+0x10>
    802029ea:	e49ff0ef          	jal	ra,80202832 <printk>
/home/caigoubencai/Desktop/os/kernel/main.c:32 (discriminator 4)
  for (int i = 7; i >= 0; i--)
    802029ee:	fec42783          	lw	a5,-20(s0)
    802029f2:	37fd                	addiw	a5,a5,-1
    802029f4:	fef42623          	sw	a5,-20(s0)
/home/caigoubencai/Desktop/os/kernel/main.c:32 (discriminator 2)
    802029f8:	fec42783          	lw	a5,-20(s0)
    802029fc:	2781                	sext.w	a5,a5
    802029fe:	fc07d0e3          	bgez	a5,802029be <print_byte_as_binary+0x16>
/home/caigoubencai/Desktop/os/kernel/main.c:36
  }
}
    80202a02:	0001                	nop
    80202a04:	0001                	nop
    80202a06:	70a2                	ld	ra,40(sp)
    80202a08:	7402                	ld	s0,32(sp)
    80202a0a:	6145                	addi	sp,sp,48
    80202a0c:	8082                	ret

0000000080202a0e <print_file_data_as_binary>:
print_file_data_as_binary():
/home/caigoubencai/Desktop/os/kernel/main.c:39

void print_file_data_as_binary(char *file_data, uint32_t file_size)
{
    80202a0e:	7179                	addi	sp,sp,-48
    80202a10:	f406                	sd	ra,40(sp)
    80202a12:	f022                	sd	s0,32(sp)
    80202a14:	1800                	addi	s0,sp,48
    80202a16:	fca43c23          	sd	a0,-40(s0)
    80202a1a:	87ae                	mv	a5,a1
    80202a1c:	fcf42a23          	sw	a5,-44(s0)
/home/caigoubencai/Desktop/os/kernel/main.c:40
  printk("Binary representation of file data:\n");
    80202a20:	0000e517          	auipc	a0,0xe
    80202a24:	68050513          	addi	a0,a0,1664 # 802110a0 <MMIO+0x18>
    80202a28:	e0bff0ef          	jal	ra,80202832 <printk>
/home/caigoubencai/Desktop/os/kernel/main.c:41
  for (uint32_t i = 0; i < file_size; i++)
    80202a2c:	fe042623          	sw	zero,-20(s0)
    80202a30:	a035                	j	80202a5c <print_file_data_as_binary+0x4e>
/home/caigoubencai/Desktop/os/kernel/main.c:43
  {
    print_byte_as_binary(file_data[i]);
    80202a32:	fec46783          	lwu	a5,-20(s0)
    80202a36:	fd843703          	ld	a4,-40(s0)
    80202a3a:	97ba                	add	a5,a5,a4
    80202a3c:	0007c783          	lbu	a5,0(a5)
    80202a40:	853e                	mv	a0,a5
    80202a42:	f67ff0ef          	jal	ra,802029a8 <print_byte_as_binary>
/home/caigoubencai/Desktop/os/kernel/main.c:44
    printk(" "); // Add space between bytes for readability
    80202a46:	0000e517          	auipc	a0,0xe
    80202a4a:	68250513          	addi	a0,a0,1666 # 802110c8 <MMIO+0x40>
    80202a4e:	de5ff0ef          	jal	ra,80202832 <printk>
/home/caigoubencai/Desktop/os/kernel/main.c:41
  for (uint32_t i = 0; i < file_size; i++)
    80202a52:	fec42783          	lw	a5,-20(s0)
    80202a56:	2785                	addiw	a5,a5,1
    80202a58:	fef42623          	sw	a5,-20(s0)
/home/caigoubencai/Desktop/os/kernel/main.c:41 (discriminator 1)
    80202a5c:	fec42703          	lw	a4,-20(s0)
    80202a60:	fd442783          	lw	a5,-44(s0)
    80202a64:	2701                	sext.w	a4,a4
    80202a66:	2781                	sext.w	a5,a5
    80202a68:	fcf765e3          	bltu	a4,a5,80202a32 <print_file_data_as_binary+0x24>
/home/caigoubencai/Desktop/os/kernel/main.c:49
    if ((i + 1) % 8 == 0)
    { // Break line every 8 bytes
    }
  }
}
    80202a6c:	0001                	nop
    80202a6e:	0001                	nop
    80202a70:	70a2                	ld	ra,40(sp)
    80202a72:	7402                	ld	s0,32(sp)
    80202a74:	6145                	addi	sp,sp,48
    80202a76:	8082                	ret

0000000080202a78 <main_os>:
main_os():
/home/caigoubencai/Desktop/os/kernel/main.c:51
int main_os()
{
    80202a78:	1101                	addi	sp,sp,-32
    80202a7a:	ec06                	sd	ra,24(sp)
    80202a7c:	e822                	sd	s0,16(sp)
    80202a7e:	1000                	addi	s0,sp,32
/home/caigoubencai/Desktop/os/kernel/main.c:52
  clear_bss();
    80202a80:	ee9ff0ef          	jal	ra,80202968 <clear_bss>
/home/caigoubencai/Desktop/os/kernel/main.c:53
  mm_init();
    80202a84:	17f070ef          	jal	ra,8020a402 <mm_init>
/home/caigoubencai/Desktop/os/kernel/main.c:54
  init_trap();
    80202a88:	2500b0ef          	jal	ra,8020dcd8 <init_trap>
/home/caigoubencai/Desktop/os/kernel/main.c:55
  plic_init();
    80202a8c:	4a60a0ef          	jal	ra,8020cf32 <plic_init>
/home/caigoubencai/Desktop/os/kernel/main.c:57
  // uart_init();
  virtio_block_device_init();
    80202a90:	4500a0ef          	jal	ra,8020cee0 <virtio_block_device_init>
/home/caigoubencai/Desktop/os/kernel/main.c:58
  virtio_disk_init();
    80202a94:	5e40a0ef          	jal	ra,8020d078 <virtio_disk_init>
/home/caigoubencai/Desktop/os/kernel/main.c:59
  block_cache_manager_init();
    80202a98:	778040ef          	jal	ra,80207210 <block_cache_manager_init>
/home/caigoubencai/Desktop/os/kernel/main.c:60
  parse_root_dir();
    80202a9c:	65f020ef          	jal	ra,802058fa <parse_root_dir>
/home/caigoubencai/Desktop/os/kernel/main.c:61
  init_fat_table();
    80202aa0:	1ad000ef          	jal	ra,8020344c <init_fat_table>
/home/caigoubencai/Desktop/os/kernel/main.c:62
  init_sys_info();
    80202aa4:	06c000ef          	jal	ra,80202b10 <init_sys_info>
/home/caigoubencai/Desktop/os/kernel/main.c:63
  Sys_Inode_Table_init();
    80202aa8:	590000ef          	jal	ra,80203038 <Sys_Inode_Table_init>
/home/caigoubencai/Desktop/os/kernel/main.c:64
  char *test_buffer = bd_malloc(512);
    80202aac:	20000513          	li	a0,512
    80202ab0:	599070ef          	jal	ra,8020a848 <bd_malloc>
    80202ab4:	fea43423          	sd	a0,-24(s0)
/home/caigoubencai/Desktop/os/kernel/main.c:65
  memset(test_buffer, 1, 512);
    80202ab8:	20000613          	li	a2,512
    80202abc:	4585                	li	a1,1
    80202abe:	fe843503          	ld	a0,-24(s0)
    80202ac2:	02d050ef          	jal	ra,802082ee <memset>
/home/caigoubencai/Desktop/os/kernel/main.c:66
  read_block_fs(0, test_buffer);
    80202ac6:	fe843583          	ld	a1,-24(s0)
    80202aca:	4501                	li	a0,0
    80202acc:	027030ef          	jal	ra,802062f2 <read_block_fs>
/home/caigoubencai/Desktop/os/kernel/main.c:67
  ls_dir(&root_dir_entry);
    80202ad0:	00028517          	auipc	a0,0x28
    80202ad4:	69850513          	addi	a0,a0,1688 # 8022b168 <root_dir_entry>
    80202ad8:	384020ef          	jal	ra,80204e5c <ls_dir>
/home/caigoubencai/Desktop/os/kernel/main.c:68
  loader_init_and_list_apps();
    80202adc:	673090ef          	jal	ra,8020c94e <loader_init_and_list_apps>
/home/caigoubencai/Desktop/os/kernel/main.c:69
  taks_init();
    80202ae0:	14a090ef          	jal	ra,8020bc2a <taks_init>
/home/caigoubencai/Desktop/os/kernel/main.c:70
  task_manager_add_2_initproc();
    80202ae4:	1d8090ef          	jal	ra,8020bcbc <task_manager_add_2_initproc>
/home/caigoubencai/Desktop/os/kernel/main.c:71
  processor_run_tasks();
    80202ae8:	425090ef          	jal	ra,8020c70c <processor_run_tasks>
/home/caigoubencai/Desktop/os/kernel/main.c:72
  ASSERT(0);
    80202aec:	0000e617          	auipc	a2,0xe
    80202af0:	5e460613          	addi	a2,a2,1508 # 802110d0 <MMIO+0x48>
    80202af4:	04800593          	li	a1,72
    80202af8:	0000e517          	auipc	a0,0xe
    80202afc:	5f050513          	addi	a0,a0,1520 # 802110e8 <MMIO+0x60>
    80202b00:	56d080ef          	jal	ra,8020b86c <_panic>
/home/caigoubencai/Desktop/os/kernel/main.c:73
  return 0;
    80202b04:	4781                	li	a5,0
/home/caigoubencai/Desktop/os/kernel/main.c:74
    80202b06:	853e                	mv	a0,a5
    80202b08:	60e2                	ld	ra,24(sp)
    80202b0a:	6442                	ld	s0,16(sp)
    80202b0c:	6105                	addi	sp,sp,32
    80202b0e:	8082                	ret

0000000080202b10 <init_sys_info>:
init_sys_info():
/home/caigoubencai/Desktop/os_c-ch6/kernel/globle/sys_info/sys_info.c:6
    80202b10:	1141                	addi	sp,sp,-16
    80202b12:	e406                	sd	ra,8(sp)
    80202b14:	e022                	sd	s0,0(sp)
    80202b16:	0800                	addi	s0,sp,16
/home/caigoubencai/Desktop/os_c-ch6/kernel/globle/sys_info/sys_info.c:7
    80202b18:	0000e597          	auipc	a1,0xe
    80202b1c:	5d858593          	addi	a1,a1,1496 # 802110f0 <MMIO+0x68>
    80202b20:	00020517          	auipc	a0,0x20
    80202b24:	4e050513          	addi	a0,a0,1248 # 80223000 <globle_info>
    80202b28:	165050ef          	jal	ra,8020848c <strcpy>
/home/caigoubencai/Desktop/os_c-ch6/kernel/globle/sys_info/sys_info.c:8
    80202b2c:	0000e597          	auipc	a1,0xe
    80202b30:	5cc58593          	addi	a1,a1,1484 # 802110f8 <MMIO+0x70>
    80202b34:	00020517          	auipc	a0,0x20
    80202b38:	50d50513          	addi	a0,a0,1293 # 80223041 <globle_info+0x41>
    80202b3c:	151050ef          	jal	ra,8020848c <strcpy>
/home/caigoubencai/Desktop/os_c-ch6/kernel/globle/sys_info/sys_info.c:9
    80202b40:	0000e597          	auipc	a1,0xe
    80202b44:	5c058593          	addi	a1,a1,1472 # 80211100 <MMIO+0x78>
    80202b48:	00020517          	auipc	a0,0x20
    80202b4c:	53a50513          	addi	a0,a0,1338 # 80223082 <globle_info+0x82>
    80202b50:	13d050ef          	jal	ra,8020848c <strcpy>
/home/caigoubencai/Desktop/os_c-ch6/kernel/globle/sys_info/sys_info.c:10
    80202b54:	0000e597          	auipc	a1,0xe
    80202b58:	5b458593          	addi	a1,a1,1460 # 80211108 <MMIO+0x80>
    80202b5c:	00020517          	auipc	a0,0x20
    80202b60:	56750513          	addi	a0,a0,1383 # 802230c3 <globle_info+0xc3>
    80202b64:	129050ef          	jal	ra,8020848c <strcpy>
/home/caigoubencai/Desktop/os_c-ch6/kernel/globle/sys_info/sys_info.c:11
    80202b68:	0000e597          	auipc	a1,0xe
    80202b6c:	5a858593          	addi	a1,a1,1448 # 80211110 <MMIO+0x88>
    80202b70:	00020517          	auipc	a0,0x20
    80202b74:	59450513          	addi	a0,a0,1428 # 80223104 <globle_info+0x104>
    80202b78:	115050ef          	jal	ra,8020848c <strcpy>
/home/caigoubencai/Desktop/os_c-ch6/kernel/globle/sys_info/sys_info.c:12
    80202b7c:	0000e597          	auipc	a1,0xe
    80202b80:	59c58593          	addi	a1,a1,1436 # 80211118 <MMIO+0x90>
    80202b84:	00020517          	auipc	a0,0x20
    80202b88:	5c150513          	addi	a0,a0,1473 # 80223145 <globle_info+0x145>
    80202b8c:	101050ef          	jal	ra,8020848c <strcpy>
/home/caigoubencai/Desktop/os_c-ch6/kernel/globle/sys_info/sys_info.c:13
    80202b90:	0001                	nop
    80202b92:	60a2                	ld	ra,8(sp)
    80202b94:	6402                	ld	s0,0(sp)
    80202b96:	0141                	addi	sp,sp,16
    80202b98:	8082                	ret

0000000080202b9a <Sys_Inode_Table_new>:
Sys_Inode_Table_new():
/home/caigoubencai/Desktop/os_c-ch6/kernel/fs/sys_inode_table/sys_inode_table.c:9
    80202b9a:	7139                	addi	sp,sp,-64
    80202b9c:	fc06                	sd	ra,56(sp)
    80202b9e:	f822                	sd	s0,48(sp)
    80202ba0:	0080                	addi	s0,sp,64
    80202ba2:	fca43423          	sd	a0,-56(s0)
/home/caigoubencai/Desktop/os_c-ch6/kernel/fs/sys_inode_table/sys_inode_table.c:11
    80202ba6:	fd040793          	addi	a5,s0,-48
    80202baa:	458d                	li	a1,3
    80202bac:	853e                	mv	a0,a5
    80202bae:	3730c0ef          	jal	ra,8020f720 <vector_new>
/home/caigoubencai/Desktop/os_c-ch6/kernel/fs/sys_inode_table/sys_inode_table.c:12
    80202bb2:	fc843783          	ld	a5,-56(s0)
    80202bb6:	fd043583          	ld	a1,-48(s0)
    80202bba:	fd843603          	ld	a2,-40(s0)
    80202bbe:	fe043683          	ld	a3,-32(s0)
    80202bc2:	fe843703          	ld	a4,-24(s0)
    80202bc6:	e38c                	sd	a1,0(a5)
    80202bc8:	e790                	sd	a2,8(a5)
    80202bca:	eb94                	sd	a3,16(a5)
    80202bcc:	ef98                	sd	a4,24(a5)
/home/caigoubencai/Desktop/os_c-ch6/kernel/fs/sys_inode_table/sys_inode_table.c:13
    80202bce:	fc843503          	ld	a0,-56(s0)
    80202bd2:	70e2                	ld	ra,56(sp)
    80202bd4:	7442                	ld	s0,48(sp)
    80202bd6:	6121                	addi	sp,sp,64
    80202bd8:	8082                	ret

0000000080202bda <find_index_inode>:
find_index_inode():
/home/caigoubencai/Desktop/os_c-ch6/kernel/fs/sys_inode_table/sys_inode_table.c:16
    80202bda:	7139                	addi	sp,sp,-64
    80202bdc:	fc06                	sd	ra,56(sp)
    80202bde:	f822                	sd	s0,48(sp)
    80202be0:	f426                	sd	s1,40(sp)
    80202be2:	0080                	addi	s0,sp,64
    80202be4:	84aa                	mv	s1,a0
    80202be6:	87ae                	mv	a5,a1
    80202be8:	fcf42623          	sw	a5,-52(s0)
/home/caigoubencai/Desktop/os_c-ch6/kernel/fs/sys_inode_table/sys_inode_table.c:17
    80202bec:	fcc46703          	lwu	a4,-52(s0)
    80202bf0:	609c                	ld	a5,0(s1)
    80202bf2:	00e7f463          	bgeu	a5,a4,80202bfa <find_index_inode+0x20>
/home/caigoubencai/Desktop/os_c-ch6/kernel/fs/sys_inode_table/sys_inode_table.c:19
    80202bf6:	4781                	li	a5,0
    80202bf8:	a819                	j	80202c0e <find_index_inode+0x34>
/home/caigoubencai/Desktop/os_c-ch6/kernel/fs/sys_inode_table/sys_inode_table.c:22
    80202bfa:	fcc42783          	lw	a5,-52(s0)
    80202bfe:	85be                	mv	a1,a5
    80202c00:	8526                	mv	a0,s1
    80202c02:	1fc0d0ef          	jal	ra,8020fdfe <queue_get_at>
    80202c06:	fca43c23          	sd	a0,-40(s0)
/home/caigoubencai/Desktop/os_c-ch6/kernel/fs/sys_inode_table/sys_inode_table.c:23
    80202c0a:	fd843783          	ld	a5,-40(s0)
/home/caigoubencai/Desktop/os_c-ch6/kernel/fs/sys_inode_table/sys_inode_table.c:24
    80202c0e:	853e                	mv	a0,a5
    80202c10:	70e2                	ld	ra,56(sp)
    80202c12:	7442                	ld	s0,48(sp)
    80202c14:	74a2                	ld	s1,40(sp)
    80202c16:	6121                	addi	sp,sp,64
    80202c18:	8082                	ret

0000000080202c1a <get_current_proc_pwd>:
get_current_proc_pwd():
/home/caigoubencai/Desktop/os_c-ch6/kernel/fs/sys_inode_table/sys_inode_table.c:27
    80202c1a:	1101                	addi	sp,sp,-32
    80202c1c:	ec06                	sd	ra,24(sp)
    80202c1e:	e822                	sd	s0,16(sp)
    80202c20:	1000                	addi	s0,sp,32
/home/caigoubencai/Desktop/os_c-ch6/kernel/fs/sys_inode_table/sys_inode_table.c:28
    80202c22:	2a7090ef          	jal	ra,8020c6c8 <processor_current_task>
    80202c26:	fea43423          	sd	a0,-24(s0)
/home/caigoubencai/Desktop/os_c-ch6/kernel/fs/sys_inode_table/sys_inode_table.c:29
    80202c2a:	fe843783          	ld	a5,-24(s0)
    80202c2e:	19078793          	addi	a5,a5,400
/home/caigoubencai/Desktop/os_c-ch6/kernel/fs/sys_inode_table/sys_inode_table.c:30
    80202c32:	853e                	mv	a0,a5
    80202c34:	60e2                	ld	ra,24(sp)
    80202c36:	6442                	ld	s0,16(sp)
    80202c38:	6105                	addi	sp,sp,32
    80202c3a:	8082                	ret

0000000080202c3c <count_valid_components>:
count_valid_components():
/home/caigoubencai/Desktop/os_c-ch6/kernel/fs/sys_inode_table/sys_inode_table.c:33
    80202c3c:	7179                	addi	sp,sp,-48
    80202c3e:	f422                	sd	s0,40(sp)
    80202c40:	1800                	addi	s0,sp,48
    80202c42:	fca43c23          	sd	a0,-40(s0)
/home/caigoubencai/Desktop/os_c-ch6/kernel/fs/sys_inode_table/sys_inode_table.c:34
    80202c46:	fe042623          	sw	zero,-20(s0)
/home/caigoubencai/Desktop/os_c-ch6/kernel/fs/sys_inode_table/sys_inode_table.c:35
    80202c4a:	fe042423          	sw	zero,-24(s0)
    80202c4e:	a805                	j	80202c7e <count_valid_components+0x42>
/home/caigoubencai/Desktop/os_c-ch6/kernel/fs/sys_inode_table/sys_inode_table.c:37
    80202c50:	fe842703          	lw	a4,-24(s0)
    80202c54:	87ba                	mv	a5,a4
    80202c56:	0786                	slli	a5,a5,0x1
    80202c58:	97ba                	add	a5,a5,a4
    80202c5a:	078a                	slli	a5,a5,0x2
    80202c5c:	873e                	mv	a4,a5
    80202c5e:	fd843783          	ld	a5,-40(s0)
    80202c62:	97ba                	add	a5,a5,a4
    80202c64:	0007c783          	lbu	a5,0(a5)
    80202c68:	c791                	beqz	a5,80202c74 <count_valid_components+0x38>
/home/caigoubencai/Desktop/os_c-ch6/kernel/fs/sys_inode_table/sys_inode_table.c:39
    80202c6a:	fec42783          	lw	a5,-20(s0)
    80202c6e:	2785                	addiw	a5,a5,1
    80202c70:	fef42623          	sw	a5,-20(s0)
/home/caigoubencai/Desktop/os_c-ch6/kernel/fs/sys_inode_table/sys_inode_table.c:35 (discriminator 2)
    80202c74:	fe842783          	lw	a5,-24(s0)
    80202c78:	2785                	addiw	a5,a5,1
    80202c7a:	fef42423          	sw	a5,-24(s0)
/home/caigoubencai/Desktop/os_c-ch6/kernel/fs/sys_inode_table/sys_inode_table.c:35 (discriminator 1)
    80202c7e:	fe842783          	lw	a5,-24(s0)
    80202c82:	0007871b          	sext.w	a4,a5
    80202c86:	47a5                	li	a5,9
    80202c88:	fce7d4e3          	bge	a5,a4,80202c50 <count_valid_components+0x14>
/home/caigoubencai/Desktop/os_c-ch6/kernel/fs/sys_inode_table/sys_inode_table.c:42
    80202c8c:	fec42783          	lw	a5,-20(s0)
/home/caigoubencai/Desktop/os_c-ch6/kernel/fs/sys_inode_table/sys_inode_table.c:43
    80202c90:	853e                	mv	a0,a5
    80202c92:	7422                	ld	s0,40(sp)
    80202c94:	6145                	addi	sp,sp,48
    80202c96:	8082                	ret

0000000080202c98 <inode_table_add>:
inode_table_add():
/home/caigoubencai/Desktop/os_c-ch6/kernel/fs/sys_inode_table/sys_inode_table.c:46
    80202c98:	ad010113          	addi	sp,sp,-1328 # 80222ad0 <_app_names+0xfad0>
    80202c9c:	52113423          	sd	ra,1320(sp)
    80202ca0:	52813023          	sd	s0,1312(sp)
    80202ca4:	50913c23          	sd	s1,1304(sp)
    80202ca8:	53010413          	addi	s0,sp,1328
    80202cac:	aca43c23          	sd	a0,-1320(s0)
/home/caigoubencai/Desktop/os_c-ch6/kernel/fs/sys_inode_table/sys_inode_table.c:48
    80202cb0:	ad843783          	ld	a5,-1320(s0)
    80202cb4:	f3040713          	addi	a4,s0,-208
    80202cb8:	85ba                	mv	a1,a4
    80202cba:	853e                	mv	a0,a5
    80202cbc:	090040ef          	jal	ra,80206d4c <parse_path>
/home/caigoubencai/Desktop/os_c-ch6/kernel/fs/sys_inode_table/sys_inode_table.c:49
    80202cc0:	b2043823          	sd	zero,-1232(s0)
    80202cc4:	b3840793          	addi	a5,s0,-1224
    80202cc8:	3f800713          	li	a4,1016
    80202ccc:	863a                	mv	a2,a4
    80202cce:	4581                	li	a1,0
    80202cd0:	853e                	mv	a0,a5
    80202cd2:	61c050ef          	jal	ra,802082ee <memset>
/home/caigoubencai/Desktop/os_c-ch6/kernel/fs/sys_inode_table/sys_inode_table.c:50
    80202cd6:	f3040793          	addi	a5,s0,-208
    80202cda:	00028597          	auipc	a1,0x28
    80202cde:	48e58593          	addi	a1,a1,1166 # 8022b168 <root_dir_entry>
    80202ce2:	853e                	mv	a0,a5
    80202ce4:	235050ef          	jal	ra,80208718 <strcmp>
    80202ce8:	87aa                	mv	a5,a0
    80202cea:	c7c1                	beqz	a5,80202d72 <inode_table_add+0xda>
/home/caigoubencai/Desktop/os_c-ch6/kernel/fs/sys_inode_table/sys_inode_table.c:52
    80202cec:	1dd090ef          	jal	ra,8020c6c8 <processor_current_task>
    80202cf0:	87aa                	mv	a5,a0
    80202cf2:	19078793          	addi	a5,a5,400
    80202cf6:	fcf43423          	sd	a5,-56(s0)
/home/caigoubencai/Desktop/os_c-ch6/kernel/fs/sys_inode_table/sys_inode_table.c:53
    80202cfa:	b3040793          	addi	a5,s0,-1232
    80202cfe:	3ff00613          	li	a2,1023
    80202d02:	fc843583          	ld	a1,-56(s0)
    80202d06:	853e                	mv	a0,a5
    80202d08:	009050ef          	jal	ra,80208510 <strncpy>
/home/caigoubencai/Desktop/os_c-ch6/kernel/fs/sys_inode_table/sys_inode_table.c:54
    80202d0c:	f20407a3          	sb	zero,-209(s0)
/home/caigoubencai/Desktop/os_c-ch6/kernel/fs/sys_inode_table/sys_inode_table.c:55
    80202d10:	b3040793          	addi	a5,s0,-1232
    80202d14:	853e                	mv	a0,a5
    80202d16:	7c0050ef          	jal	ra,802084d6 <strlen>
    80202d1a:	fca43023          	sd	a0,-64(s0)
/home/caigoubencai/Desktop/os_c-ch6/kernel/fs/sys_inode_table/sys_inode_table.c:56
    80202d1e:	fc043703          	ld	a4,-64(s0)
    80202d22:	3fe00793          	li	a5,1022
    80202d26:	02e7e363          	bltu	a5,a4,80202d4c <inode_table_add+0xb4>
/home/caigoubencai/Desktop/os_c-ch6/kernel/fs/sys_inode_table/sys_inode_table.c:58
    80202d2a:	fc043783          	ld	a5,-64(s0)
    80202d2e:	fe040713          	addi	a4,s0,-32
    80202d32:	97ba                	add	a5,a5,a4
    80202d34:	05c00713          	li	a4,92
    80202d38:	b4e78823          	sb	a4,-1200(a5)
/home/caigoubencai/Desktop/os_c-ch6/kernel/fs/sys_inode_table/sys_inode_table.c:59
    80202d3c:	fc043783          	ld	a5,-64(s0)
    80202d40:	0785                	addi	a5,a5,1
    80202d42:	fe040713          	addi	a4,s0,-32
    80202d46:	97ba                	add	a5,a5,a4
    80202d48:	b4078823          	sb	zero,-1200(a5)
/home/caigoubencai/Desktop/os_c-ch6/kernel/fs/sys_inode_table/sys_inode_table.c:61
    80202d4c:	ad843483          	ld	s1,-1320(s0)
    80202d50:	b3040793          	addi	a5,s0,-1232
    80202d54:	853e                	mv	a0,a5
    80202d56:	780050ef          	jal	ra,802084d6 <strlen>
    80202d5a:	872a                	mv	a4,a0
    80202d5c:	3ff00793          	li	a5,1023
    80202d60:	40e78733          	sub	a4,a5,a4
    80202d64:	b3040793          	addi	a5,s0,-1232
    80202d68:	863a                	mv	a2,a4
    80202d6a:	85a6                	mv	a1,s1
    80202d6c:	853e                	mv	a0,a5
    80202d6e:	11f050ef          	jal	ra,8020868c <strncat>
/home/caigoubencai/Desktop/os_c-ch6/kernel/fs/sys_inode_table/sys_inode_table.c:63
    80202d72:	f3040713          	addi	a4,s0,-208
    80202d76:	b3040793          	addi	a5,s0,-1232
    80202d7a:	85ba                	mv	a1,a4
    80202d7c:	853e                	mv	a0,a5
    80202d7e:	7cf030ef          	jal	ra,80206d4c <parse_path>
/home/caigoubencai/Desktop/os_c-ch6/kernel/fs/sys_inode_table/sys_inode_table.c:64
    80202d82:	f3040793          	addi	a5,s0,-208
    80202d86:	853e                	mv	a0,a5
    80202d88:	eb5ff0ef          	jal	ra,80202c3c <count_valid_components>
    80202d8c:	87aa                	mv	a5,a0
    80202d8e:	faf42e23          	sw	a5,-68(s0)
/home/caigoubencai/Desktop/os_c-ch6/kernel/fs/sys_inode_table/sys_inode_table.c:65
    80202d92:	00028797          	auipc	a5,0x28
    80202d96:	3d678793          	addi	a5,a5,982 # 8022b168 <root_dir_entry>
    80202d9a:	fcf43c23          	sd	a5,-40(s0)
/home/caigoubencai/Desktop/os_c-ch6/kernel/fs/sys_inode_table/sys_inode_table.c:66
    80202d9e:	fc042a23          	sw	zero,-44(s0)
    80202da2:	a8a1                	j	80202dfa <inode_table_add+0x162>
/home/caigoubencai/Desktop/os_c-ch6/kernel/fs/sys_inode_table/sys_inode_table.c:68
    80202da4:	f3040693          	addi	a3,s0,-208
    80202da8:	fd442703          	lw	a4,-44(s0)
    80202dac:	87ba                	mv	a5,a4
    80202dae:	0786                	slli	a5,a5,0x1
    80202db0:	97ba                	add	a5,a5,a4
    80202db2:	078a                	slli	a5,a5,0x2
    80202db4:	97b6                	add	a5,a5,a3
    80202db6:	faf43823          	sd	a5,-80(s0)
/home/caigoubencai/Desktop/os_c-ch6/kernel/fs/sys_inode_table/sys_inode_table.c:69
    80202dba:	fd442783          	lw	a5,-44(s0)
    80202dbe:	2785                	addiw	a5,a5,1
    80202dc0:	0007871b          	sext.w	a4,a5
    80202dc4:	f3040693          	addi	a3,s0,-208
    80202dc8:	87ba                	mv	a5,a4
    80202dca:	0786                	slli	a5,a5,0x1
    80202dcc:	97ba                	add	a5,a5,a4
    80202dce:	078a                	slli	a5,a5,0x2
    80202dd0:	97b6                	add	a5,a5,a3
    80202dd2:	faf43423          	sd	a5,-88(s0)
/home/caigoubencai/Desktop/os_c-ch6/kernel/fs/sys_inode_table/sys_inode_table.c:70
    80202dd6:	fa843583          	ld	a1,-88(s0)
    80202dda:	fd843503          	ld	a0,-40(s0)
    80202dde:	3bf010ef          	jal	ra,8020499c <find_dir_entry>
    80202de2:	fca43c23          	sd	a0,-40(s0)
/home/caigoubencai/Desktop/os_c-ch6/kernel/fs/sys_inode_table/sys_inode_table.c:71
    80202de6:	fd843783          	ld	a5,-40(s0)
    80202dea:	e399                	bnez	a5,80202df0 <inode_table_add+0x158>
/home/caigoubencai/Desktop/os_c-ch6/kernel/fs/sys_inode_table/sys_inode_table.c:72
    80202dec:	4781                	li	a5,0
    80202dee:	a8ad                	j	80202e68 <inode_table_add+0x1d0>
/home/caigoubencai/Desktop/os_c-ch6/kernel/fs/sys_inode_table/sys_inode_table.c:66 (discriminator 2)
    80202df0:	fd442783          	lw	a5,-44(s0)
    80202df4:	2785                	addiw	a5,a5,1
    80202df6:	fcf42a23          	sw	a5,-44(s0)
/home/caigoubencai/Desktop/os_c-ch6/kernel/fs/sys_inode_table/sys_inode_table.c:66 (discriminator 1)
    80202dfa:	fbc42783          	lw	a5,-68(s0)
    80202dfe:	37fd                	addiw	a5,a5,-1
    80202e00:	0007871b          	sext.w	a4,a5
    80202e04:	fd442783          	lw	a5,-44(s0)
    80202e08:	f8e7eee3          	bltu	a5,a4,80202da4 <inode_table_add+0x10c>
/home/caigoubencai/Desktop/os_c-ch6/kernel/fs/sys_inode_table/sys_inode_table.c:75
    80202e0c:	fd843783          	ld	a5,-40(s0)
    80202e10:	0007a883          	lw	a7,0(a5)
    80202e14:	0047a803          	lw	a6,4(a5)
    80202e18:	4788                	lw	a0,8(a5)
    80202e1a:	47cc                	lw	a1,12(a5)
    80202e1c:	4b90                	lw	a2,16(a5)
    80202e1e:	4bd4                	lw	a3,20(a5)
    80202e20:	4f98                	lw	a4,24(a5)
    80202e22:	4fdc                	lw	a5,28(a5)
    80202e24:	af142823          	sw	a7,-1296(s0)
    80202e28:	af042a23          	sw	a6,-1292(s0)
    80202e2c:	aea42c23          	sw	a0,-1288(s0)
    80202e30:	aeb42e23          	sw	a1,-1284(s0)
    80202e34:	b0c42023          	sw	a2,-1280(s0)
    80202e38:	b0d42223          	sw	a3,-1276(s0)
    80202e3c:	b0e42423          	sw	a4,-1272(s0)
    80202e40:	b0f42623          	sw	a5,-1268(s0)
/home/caigoubencai/Desktop/os_c-ch6/kernel/fs/sys_inode_table/sys_inode_table.c:76
    80202e44:	b2043023          	sd	zero,-1248(s0)
/home/caigoubencai/Desktop/os_c-ch6/kernel/fs/sys_inode_table/sys_inode_table.c:77
    80202e48:	b2040423          	sb	zero,-1240(s0)
/home/caigoubencai/Desktop/os_c-ch6/kernel/fs/sys_inode_table/sys_inode_table.c:78
    80202e4c:	b20404a3          	sb	zero,-1239(s0)
/home/caigoubencai/Desktop/os_c-ch6/kernel/fs/sys_inode_table/sys_inode_table.c:79
    80202e50:	b0043c23          	sd	zero,-1256(s0)
/home/caigoubencai/Desktop/os_c-ch6/kernel/fs/sys_inode_table/sys_inode_table.c:80
    80202e54:	ae840793          	addi	a5,s0,-1304
    80202e58:	85be                	mv	a1,a5
    80202e5a:	00020517          	auipc	a0,0x20
    80202e5e:	32e50513          	addi	a0,a0,814 # 80223188 <sys_inode_table>
    80202e62:	60b0c0ef          	jal	ra,8020fc6c <queue_enqueue>
/home/caigoubencai/Desktop/os_c-ch6/kernel/fs/sys_inode_table/sys_inode_table.c:81
    80202e66:	4785                	li	a5,1
/home/caigoubencai/Desktop/os_c-ch6/kernel/fs/sys_inode_table/sys_inode_table.c:82 (discriminator 1)
    80202e68:	853e                	mv	a0,a5
    80202e6a:	52813083          	ld	ra,1320(sp)
    80202e6e:	52013403          	ld	s0,1312(sp)
    80202e72:	51813483          	ld	s1,1304(sp)
    80202e76:	53010113          	addi	sp,sp,1328
    80202e7a:	8082                	ret

0000000080202e7c <add_inode_to_Inode_table>:
add_inode_to_Inode_table():
/home/caigoubencai/Desktop/os_c-ch6/kernel/fs/sys_inode_table/sys_inode_table.c:85
    80202e7c:	1101                	addi	sp,sp,-32
    80202e7e:	ec06                	sd	ra,24(sp)
    80202e80:	e822                	sd	s0,16(sp)
    80202e82:	1000                	addi	s0,sp,32
    80202e84:	fea43423          	sd	a0,-24(s0)
    80202e88:	feb43023          	sd	a1,-32(s0)
/home/caigoubencai/Desktop/os_c-ch6/kernel/fs/sys_inode_table/sys_inode_table.c:86
    80202e8c:	fe843783          	ld	a5,-24(s0)
    80202e90:	fe043583          	ld	a1,-32(s0)
    80202e94:	853e                	mv	a0,a5
    80202e96:	0dd0c0ef          	jal	ra,8020f772 <vector_push>
/home/caigoubencai/Desktop/os_c-ch6/kernel/fs/sys_inode_table/sys_inode_table.c:87
    80202e9a:	fe843783          	ld	a5,-24(s0)
    80202e9e:	853e                	mv	a0,a5
    80202ea0:	3670c0ef          	jal	ra,8020fa06 <vector_size>
    80202ea4:	87aa                	mv	a5,a0
    80202ea6:	2781                	sext.w	a5,a5
    80202ea8:	37fd                	addiw	a5,a5,-1
    80202eaa:	2781                	sext.w	a5,a5
/home/caigoubencai/Desktop/os_c-ch6/kernel/fs/sys_inode_table/sys_inode_table.c:88
    80202eac:	853e                	mv	a0,a5
    80202eae:	60e2                	ld	ra,24(sp)
    80202eb0:	6442                	ld	s0,16(sp)
    80202eb2:	6105                	addi	sp,sp,32
    80202eb4:	8082                	ret

0000000080202eb6 <find_inode_by_dir_in_inode_table>:
find_inode_by_dir_in_inode_table():
/home/caigoubencai/Desktop/os_c-ch6/kernel/fs/sys_inode_table/sys_inode_table.c:91
    80202eb6:	7139                	addi	sp,sp,-64
    80202eb8:	fc06                	sd	ra,56(sp)
    80202eba:	f822                	sd	s0,48(sp)
    80202ebc:	f426                	sd	s1,40(sp)
    80202ebe:	0080                	addi	s0,sp,64
    80202ec0:	fca43423          	sd	a0,-56(s0)
    80202ec4:	84ae                	mv	s1,a1
/home/caigoubencai/Desktop/os_c-ch6/kernel/fs/sys_inode_table/sys_inode_table.c:92
    80202ec6:	fc043c23          	sd	zero,-40(s0)
    80202eca:	a83d                	j	80202f08 <find_inode_by_dir_in_inode_table+0x52>
/home/caigoubencai/Desktop/os_c-ch6/kernel/fs/sys_inode_table/sys_inode_table.c:94
    80202ecc:	fc843783          	ld	a5,-56(s0)
    80202ed0:	fd843583          	ld	a1,-40(s0)
    80202ed4:	853e                	mv	a0,a5
    80202ed6:	2f30c0ef          	jal	ra,8020f9c8 <vector_get>
    80202eda:	fca43823          	sd	a0,-48(s0)
/home/caigoubencai/Desktop/os_c-ch6/kernel/fs/sys_inode_table/sys_inode_table.c:95
    80202ede:	fd043783          	ld	a5,-48(s0)
    80202ee2:	cf91                	beqz	a5,80202efe <find_inode_by_dir_in_inode_table+0x48>
/home/caigoubencai/Desktop/os_c-ch6/kernel/fs/sys_inode_table/sys_inode_table.c:95 (discriminator 1)
    80202ee4:	fd043783          	ld	a5,-48(s0)
    80202ee8:	07a1                	addi	a5,a5,8
    80202eea:	85a6                	mv	a1,s1
    80202eec:	853e                	mv	a0,a5
    80202eee:	02b050ef          	jal	ra,80208718 <strcmp>
    80202ef2:	87aa                	mv	a5,a0
    80202ef4:	e789                	bnez	a5,80202efe <find_inode_by_dir_in_inode_table+0x48>
/home/caigoubencai/Desktop/os_c-ch6/kernel/fs/sys_inode_table/sys_inode_table.c:97
    80202ef6:	fd843783          	ld	a5,-40(s0)
    80202efa:	2781                	sext.w	a5,a5
    80202efc:	a00d                	j	80202f1e <find_inode_by_dir_in_inode_table+0x68>
/home/caigoubencai/Desktop/os_c-ch6/kernel/fs/sys_inode_table/sys_inode_table.c:92 (discriminator 2)
    80202efe:	fd843783          	ld	a5,-40(s0)
    80202f02:	0785                	addi	a5,a5,1
    80202f04:	fcf43c23          	sd	a5,-40(s0)
/home/caigoubencai/Desktop/os_c-ch6/kernel/fs/sys_inode_table/sys_inode_table.c:92 (discriminator 1)
    80202f08:	fc843783          	ld	a5,-56(s0)
    80202f0c:	853e                	mv	a0,a5
    80202f0e:	2f90c0ef          	jal	ra,8020fa06 <vector_size>
    80202f12:	872a                	mv	a4,a0
    80202f14:	fd843783          	ld	a5,-40(s0)
    80202f18:	fae7eae3          	bltu	a5,a4,80202ecc <find_inode_by_dir_in_inode_table+0x16>
/home/caigoubencai/Desktop/os_c-ch6/kernel/fs/sys_inode_table/sys_inode_table.c:100
    80202f1c:	57fd                	li	a5,-1
/home/caigoubencai/Desktop/os_c-ch6/kernel/fs/sys_inode_table/sys_inode_table.c:101
    80202f1e:	853e                	mv	a0,a5
    80202f20:	70e2                	ld	ra,56(sp)
    80202f22:	7442                	ld	s0,48(sp)
    80202f24:	74a2                	ld	s1,40(sp)
    80202f26:	6121                	addi	sp,sp,64
    80202f28:	8082                	ret

0000000080202f2a <set_inode_ref>:
set_inode_ref():
/home/caigoubencai/Desktop/os_c-ch6/kernel/fs/sys_inode_table/sys_inode_table.c:103
    80202f2a:	7179                	addi	sp,sp,-48
    80202f2c:	f406                	sd	ra,40(sp)
    80202f2e:	f022                	sd	s0,32(sp)
    80202f30:	1800                	addi	s0,sp,48
    80202f32:	fca43c23          	sd	a0,-40(s0)
    80202f36:	87ae                	mv	a5,a1
    80202f38:	8732                	mv	a4,a2
    80202f3a:	fcf42a23          	sw	a5,-44(s0)
    80202f3e:	87ba                	mv	a5,a4
    80202f40:	fcf42823          	sw	a5,-48(s0)
/home/caigoubencai/Desktop/os_c-ch6/kernel/fs/sys_inode_table/sys_inode_table.c:104
    80202f44:	fd843783          	ld	a5,-40(s0)
    80202f48:	fd446703          	lwu	a4,-44(s0)
    80202f4c:	85ba                	mv	a1,a4
    80202f4e:	853e                	mv	a0,a5
    80202f50:	2790c0ef          	jal	ra,8020f9c8 <vector_get>
    80202f54:	fea43423          	sd	a0,-24(s0)
/home/caigoubencai/Desktop/os_c-ch6/kernel/fs/sys_inode_table/sys_inode_table.c:105
    80202f58:	fe843783          	ld	a5,-24(s0)
    80202f5c:	c791                	beqz	a5,80202f68 <set_inode_ref+0x3e>
/home/caigoubencai/Desktop/os_c-ch6/kernel/fs/sys_inode_table/sys_inode_table.c:107
    80202f5e:	fd046703          	lwu	a4,-48(s0)
    80202f62:	fe843783          	ld	a5,-24(s0)
    80202f66:	fb98                	sd	a4,48(a5)
/home/caigoubencai/Desktop/os_c-ch6/kernel/fs/sys_inode_table/sys_inode_table.c:109
    80202f68:	0001                	nop
    80202f6a:	70a2                	ld	ra,40(sp)
    80202f6c:	7402                	ld	s0,32(sp)
    80202f6e:	6145                	addi	sp,sp,48
    80202f70:	8082                	ret

0000000080202f72 <get_inode_ref>:
get_inode_ref():
/home/caigoubencai/Desktop/os_c-ch6/kernel/fs/sys_inode_table/sys_inode_table.c:112
    80202f72:	7179                	addi	sp,sp,-48
    80202f74:	f406                	sd	ra,40(sp)
    80202f76:	f022                	sd	s0,32(sp)
    80202f78:	1800                	addi	s0,sp,48
    80202f7a:	fca43c23          	sd	a0,-40(s0)
    80202f7e:	87ae                	mv	a5,a1
    80202f80:	fcf42a23          	sw	a5,-44(s0)
/home/caigoubencai/Desktop/os_c-ch6/kernel/fs/sys_inode_table/sys_inode_table.c:113
    80202f84:	fd843783          	ld	a5,-40(s0)
    80202f88:	fd446703          	lwu	a4,-44(s0)
    80202f8c:	85ba                	mv	a1,a4
    80202f8e:	853e                	mv	a0,a5
    80202f90:	2390c0ef          	jal	ra,8020f9c8 <vector_get>
    80202f94:	fea43423          	sd	a0,-24(s0)
/home/caigoubencai/Desktop/os_c-ch6/kernel/fs/sys_inode_table/sys_inode_table.c:114
    80202f98:	fe843783          	ld	a5,-24(s0)
    80202f9c:	c791                	beqz	a5,80202fa8 <get_inode_ref+0x36>
/home/caigoubencai/Desktop/os_c-ch6/kernel/fs/sys_inode_table/sys_inode_table.c:116
    80202f9e:	fe843783          	ld	a5,-24(s0)
    80202fa2:	7b9c                	ld	a5,48(a5)
    80202fa4:	2781                	sext.w	a5,a5
    80202fa6:	a011                	j	80202faa <get_inode_ref+0x38>
/home/caigoubencai/Desktop/os_c-ch6/kernel/fs/sys_inode_table/sys_inode_table.c:118
    80202fa8:	4781                	li	a5,0
/home/caigoubencai/Desktop/os_c-ch6/kernel/fs/sys_inode_table/sys_inode_table.c:119
    80202faa:	853e                	mv	a0,a5
    80202fac:	70a2                	ld	ra,40(sp)
    80202fae:	7402                	ld	s0,32(sp)
    80202fb0:	6145                	addi	sp,sp,48
    80202fb2:	8082                	ret

0000000080202fb4 <parse_mode>:
parse_mode():
/home/caigoubencai/Desktop/os_c-ch6/kernel/fs/sys_inode_table/sys_inode_table.c:122
    80202fb4:	7179                	addi	sp,sp,-48
    80202fb6:	f422                	sd	s0,40(sp)
    80202fb8:	1800                	addi	s0,sp,48
    80202fba:	fea43423          	sd	a0,-24(s0)
    80202fbe:	feb43023          	sd	a1,-32(s0)
    80202fc2:	fcc43c23          	sd	a2,-40(s0)
    80202fc6:	fcd43823          	sd	a3,-48(s0)
/home/caigoubencai/Desktop/os_c-ch6/kernel/fs/sys_inode_table/sys_inode_table.c:123
    80202fca:	fe043783          	ld	a5,-32(s0)
    80202fce:	cf99                	beqz	a5,80202fec <parse_mode+0x38>
/home/caigoubencai/Desktop/os_c-ch6/kernel/fs/sys_inode_table/sys_inode_table.c:125
    80202fd0:	fe843783          	ld	a5,-24(s0)
    80202fd4:	83a1                	srli	a5,a5,0x8
    80202fd6:	2781                	sext.w	a5,a5
    80202fd8:	8b85                	andi	a5,a5,1
    80202fda:	2781                	sext.w	a5,a5
    80202fdc:	00f037b3          	snez	a5,a5
    80202fe0:	0ff7f713          	andi	a4,a5,255
    80202fe4:	fe043783          	ld	a5,-32(s0)
    80202fe8:	00e78023          	sb	a4,0(a5)
/home/caigoubencai/Desktop/os_c-ch6/kernel/fs/sys_inode_table/sys_inode_table.c:127
    80202fec:	fd843783          	ld	a5,-40(s0)
    80202ff0:	cf99                	beqz	a5,8020300e <parse_mode+0x5a>
/home/caigoubencai/Desktop/os_c-ch6/kernel/fs/sys_inode_table/sys_inode_table.c:129
    80202ff2:	fe843783          	ld	a5,-24(s0)
    80202ff6:	839d                	srli	a5,a5,0x7
    80202ff8:	2781                	sext.w	a5,a5
    80202ffa:	8b85                	andi	a5,a5,1
    80202ffc:	2781                	sext.w	a5,a5
    80202ffe:	00f037b3          	snez	a5,a5
    80203002:	0ff7f713          	andi	a4,a5,255
    80203006:	fd843783          	ld	a5,-40(s0)
    8020300a:	00e78023          	sb	a4,0(a5)
/home/caigoubencai/Desktop/os_c-ch6/kernel/fs/sys_inode_table/sys_inode_table.c:131
    8020300e:	fd043783          	ld	a5,-48(s0)
    80203012:	cf99                	beqz	a5,80203030 <parse_mode+0x7c>
/home/caigoubencai/Desktop/os_c-ch6/kernel/fs/sys_inode_table/sys_inode_table.c:133
    80203014:	fe843783          	ld	a5,-24(s0)
    80203018:	8399                	srli	a5,a5,0x6
    8020301a:	2781                	sext.w	a5,a5
    8020301c:	8b85                	andi	a5,a5,1
    8020301e:	2781                	sext.w	a5,a5
    80203020:	00f037b3          	snez	a5,a5
    80203024:	0ff7f713          	andi	a4,a5,255
    80203028:	fd043783          	ld	a5,-48(s0)
    8020302c:	00e78023          	sb	a4,0(a5)
/home/caigoubencai/Desktop/os_c-ch6/kernel/fs/sys_inode_table/sys_inode_table.c:135
    80203030:	0001                	nop
    80203032:	7422                	ld	s0,40(sp)
    80203034:	6145                	addi	sp,sp,48
    80203036:	8082                	ret

0000000080203038 <Sys_Inode_Table_init>:
Sys_Inode_Table_init():
/home/caigoubencai/Desktop/os_c-ch6/kernel/fs/sys_inode_table/sys_inode_table.c:138
    80203038:	7151                	addi	sp,sp,-240
    8020303a:	f586                	sd	ra,232(sp)
    8020303c:	f1a2                	sd	s0,224(sp)
    8020303e:	1980                	addi	s0,sp,240
/home/caigoubencai/Desktop/os_c-ch6/kernel/fs/sys_inode_table/sys_inode_table.c:139
    80203040:	458d                	li	a1,3
    80203042:	00020517          	auipc	a0,0x20
    80203046:	14650513          	addi	a0,a0,326 # 80223188 <sys_inode_table>
    8020304a:	6d60c0ef          	jal	ra,8020f720 <vector_new>
/home/caigoubencai/Desktop/os_c-ch6/kernel/fs/sys_inode_table/sys_inode_table.c:141
    8020304e:	fa043423          	sd	zero,-88(s0)
/home/caigoubencai/Desktop/os_c-ch6/kernel/fs/sys_inode_table/sys_inode_table.c:142
    80203052:	4785                	li	a5,1
    80203054:	f6f43023          	sd	a5,-160(s0)
/home/caigoubencai/Desktop/os_c-ch6/kernel/fs/sys_inode_table/sys_inode_table.c:143
    80203058:	4789                	li	a5,2
    8020305a:	f0f43c23          	sd	a5,-232(s0)
/home/caigoubencai/Desktop/os_c-ch6/kernel/fs/sys_inode_table/sys_inode_table.c:144
    8020305e:	fa840793          	addi	a5,s0,-88
    80203062:	85be                	mv	a1,a5
    80203064:	00020517          	auipc	a0,0x20
    80203068:	12450513          	addi	a0,a0,292 # 80223188 <sys_inode_table>
    8020306c:	7060c0ef          	jal	ra,8020f772 <vector_push>
/home/caigoubencai/Desktop/os_c-ch6/kernel/fs/sys_inode_table/sys_inode_table.c:145
    80203070:	f6040793          	addi	a5,s0,-160
    80203074:	85be                	mv	a1,a5
    80203076:	00020517          	auipc	a0,0x20
    8020307a:	11250513          	addi	a0,a0,274 # 80223188 <sys_inode_table>
    8020307e:	6f40c0ef          	jal	ra,8020f772 <vector_push>
/home/caigoubencai/Desktop/os_c-ch6/kernel/fs/sys_inode_table/sys_inode_table.c:146
    80203082:	f1840793          	addi	a5,s0,-232
    80203086:	85be                	mv	a1,a5
    80203088:	00020517          	auipc	a0,0x20
    8020308c:	10050513          	addi	a0,a0,256 # 80223188 <sys_inode_table>
    80203090:	6e20c0ef          	jal	ra,8020f772 <vector_push>
/home/caigoubencai/Desktop/os_c-ch6/kernel/fs/sys_inode_table/sys_inode_table.c:147
    80203094:	0001                	nop
    80203096:	70ae                	ld	ra,232(sp)
    80203098:	740e                	ld	s0,224(sp)
    8020309a:	616d                	addi	sp,sp,240
    8020309c:	8082                	ret

000000008020309e <sys_inode_table_find_fs>:
sys_inode_table_find_fs():
/home/caigoubencai/Desktop/os_c-ch6/kernel/fs/sys_inode_table/sys_inode_table.c:150
    8020309e:	7139                	addi	sp,sp,-64
    802030a0:	fc06                	sd	ra,56(sp)
    802030a2:	f822                	sd	s0,48(sp)
    802030a4:	0080                	addi	s0,sp,64
    802030a6:	87aa                	mv	a5,a0
    802030a8:	fcf42623          	sw	a5,-52(s0)
/home/caigoubencai/Desktop/os_c-ch6/kernel/fs/sys_inode_table/sys_inode_table.c:151
    802030ac:	61c090ef          	jal	ra,8020c6c8 <processor_current_task>
    802030b0:	fea43423          	sd	a0,-24(s0)
/home/caigoubencai/Desktop/os_c-ch6/kernel/fs/sys_inode_table/sys_inode_table.c:152
    802030b4:	fe843783          	ld	a5,-24(s0)
    802030b8:	12078793          	addi	a5,a5,288
    802030bc:	fcc46703          	lwu	a4,-52(s0)
    802030c0:	85ba                	mv	a1,a4
    802030c2:	853e                	mv	a0,a5
    802030c4:	1050c0ef          	jal	ra,8020f9c8 <vector_get>
    802030c8:	87aa                	mv	a5,a0
    802030ca:	fef42223          	sw	a5,-28(s0)
/home/caigoubencai/Desktop/os_c-ch6/kernel/fs/sys_inode_table/sys_inode_table.c:153
    802030ce:	fe446783          	lwu	a5,-28(s0)
    802030d2:	85be                	mv	a1,a5
    802030d4:	00020517          	auipc	a0,0x20
    802030d8:	0b450513          	addi	a0,a0,180 # 80223188 <sys_inode_table>
    802030dc:	0ed0c0ef          	jal	ra,8020f9c8 <vector_get>
    802030e0:	fca43c23          	sd	a0,-40(s0)
/home/caigoubencai/Desktop/os_c-ch6/kernel/fs/sys_inode_table/sys_inode_table.c:154
    802030e4:	4781                	li	a5,0
/home/caigoubencai/Desktop/os_c-ch6/kernel/fs/sys_inode_table/sys_inode_table.c:155
    802030e6:	853e                	mv	a0,a5
    802030e8:	70e2                	ld	ra,56(sp)
    802030ea:	7442                	ld	s0,48(sp)
    802030ec:	6121                	addi	sp,sp,64
    802030ee:	8082                	ret

00000000802030f0 <format_fat_table>:
format_fat_table():
/home/caigoubencai/Desktop/os_c-ch6/kernel/fs/fat32/fat_table/fat_table.c:10
    802030f0:	1101                	addi	sp,sp,-32
    802030f2:	ec22                	sd	s0,24(sp)
    802030f4:	1000                	addi	s0,sp,32
/home/caigoubencai/Desktop/os_c-ch6/kernel/fs/fat32/fat_table/fat_table.c:11
    802030f6:	fe042623          	sw	zero,-20(s0)
    802030fa:	a005                	j	8020311a <format_fat_table+0x2a>
/home/caigoubencai/Desktop/os_c-ch6/kernel/fs/fat32/fat_table/fat_table.c:13 (discriminator 3)
    802030fc:	00020717          	auipc	a4,0x20
    80203100:	0ac70713          	addi	a4,a4,172 # 802231a8 <fat_table>
    80203104:	fec42783          	lw	a5,-20(s0)
    80203108:	078a                	slli	a5,a5,0x2
    8020310a:	97ba                	add	a5,a5,a4
    8020310c:	0007a023          	sw	zero,0(a5)
/home/caigoubencai/Desktop/os_c-ch6/kernel/fs/fat32/fat_table/fat_table.c:11 (discriminator 3)
    80203110:	fec42783          	lw	a5,-20(s0)
    80203114:	2785                	addiw	a5,a5,1
    80203116:	fef42623          	sw	a5,-20(s0)
/home/caigoubencai/Desktop/os_c-ch6/kernel/fs/fat32/fat_table/fat_table.c:11 (discriminator 1)
    8020311a:	fec42783          	lw	a5,-20(s0)
    8020311e:	0007871b          	sext.w	a4,a5
    80203122:	6789                	lui	a5,0x2
    80203124:	17bd                	addi	a5,a5,-17
    80203126:	fce7dbe3          	bge	a5,a4,802030fc <format_fat_table+0xc>
/home/caigoubencai/Desktop/os_c-ch6/kernel/fs/fat32/fat_table/fat_table.c:15
    8020312a:	00020797          	auipc	a5,0x20
    8020312e:	07e78793          	addi	a5,a5,126 # 802231a8 <fat_table>
    80203132:	10000737          	lui	a4,0x10000
    80203136:	1761                	addi	a4,a4,-8
    80203138:	c398                	sw	a4,0(a5)
/home/caigoubencai/Desktop/os_c-ch6/kernel/fs/fat32/fat_table/fat_table.c:16
    8020313a:	0001                	nop
    8020313c:	6462                	ld	s0,24(sp)
    8020313e:	6105                	addi	sp,sp,32
    80203140:	8082                	ret

0000000080203142 <find_first_valid_cluster>:
find_first_valid_cluster():
/home/caigoubencai/Desktop/os_c-ch6/kernel/fs/fat32/fat_table/fat_table.c:20
    80203142:	1101                	addi	sp,sp,-32
    80203144:	ec22                	sd	s0,24(sp)
    80203146:	1000                	addi	s0,sp,32
/home/caigoubencai/Desktop/os_c-ch6/kernel/fs/fat32/fat_table/fat_table.c:21
    80203148:	fe043423          	sd	zero,-24(s0)
    8020314c:	a01d                	j	80203172 <find_first_valid_cluster+0x30>
/home/caigoubencai/Desktop/os_c-ch6/kernel/fs/fat32/fat_table/fat_table.c:23
    8020314e:	00020717          	auipc	a4,0x20
    80203152:	05a70713          	addi	a4,a4,90 # 802231a8 <fat_table>
    80203156:	fe843783          	ld	a5,-24(s0)
    8020315a:	078a                	slli	a5,a5,0x2
    8020315c:	97ba                	add	a5,a5,a4
    8020315e:	439c                	lw	a5,0(a5)
    80203160:	e781                	bnez	a5,80203168 <find_first_valid_cluster+0x26>
/home/caigoubencai/Desktop/os_c-ch6/kernel/fs/fat32/fat_table/fat_table.c:25
    80203162:	fe843783          	ld	a5,-24(s0)
    80203166:	a829                	j	80203180 <find_first_valid_cluster+0x3e>
/home/caigoubencai/Desktop/os_c-ch6/kernel/fs/fat32/fat_table/fat_table.c:21 (discriminator 2)
    80203168:	fe843783          	ld	a5,-24(s0)
    8020316c:	0785                	addi	a5,a5,1
    8020316e:	fef43423          	sd	a5,-24(s0)
/home/caigoubencai/Desktop/os_c-ch6/kernel/fs/fat32/fat_table/fat_table.c:21 (discriminator 1)
    80203172:	fe843703          	ld	a4,-24(s0)
    80203176:	6789                	lui	a5,0x2
    80203178:	17bd                	addi	a5,a5,-17
    8020317a:	fce7fae3          	bgeu	a5,a4,8020314e <find_first_valid_cluster+0xc>
/home/caigoubencai/Desktop/os_c-ch6/kernel/fs/fat32/fat_table/fat_table.c:28
    8020317e:	57fd                	li	a5,-1
/home/caigoubencai/Desktop/os_c-ch6/kernel/fs/fat32/fat_table/fat_table.c:29
    80203180:	853e                	mv	a0,a5
    80203182:	6462                	ld	s0,24(sp)
    80203184:	6105                	addi	sp,sp,32
    80203186:	8082                	ret

0000000080203188 <find_next_free_cluster>:
find_next_free_cluster():
/home/caigoubencai/Desktop/os_c-ch6/kernel/fs/fat32/fat_table/fat_table.c:33
    80203188:	7179                	addi	sp,sp,-48
    8020318a:	f422                	sd	s0,40(sp)
    8020318c:	1800                	addi	s0,sp,48
    8020318e:	fca43c23          	sd	a0,-40(s0)
/home/caigoubencai/Desktop/os_c-ch6/kernel/fs/fat32/fat_table/fat_table.c:34
    80203192:	fd843783          	ld	a5,-40(s0)
    80203196:	0785                	addi	a5,a5,1
    80203198:	fef43423          	sd	a5,-24(s0)
    8020319c:	a01d                	j	802031c2 <find_next_free_cluster+0x3a>
/home/caigoubencai/Desktop/os_c-ch6/kernel/fs/fat32/fat_table/fat_table.c:36
    8020319e:	00020717          	auipc	a4,0x20
    802031a2:	00a70713          	addi	a4,a4,10 # 802231a8 <fat_table>
    802031a6:	fe843783          	ld	a5,-24(s0)
    802031aa:	078a                	slli	a5,a5,0x2
    802031ac:	97ba                	add	a5,a5,a4
    802031ae:	439c                	lw	a5,0(a5)
    802031b0:	e781                	bnez	a5,802031b8 <find_next_free_cluster+0x30>
/home/caigoubencai/Desktop/os_c-ch6/kernel/fs/fat32/fat_table/fat_table.c:38
    802031b2:	fe843783          	ld	a5,-24(s0)
    802031b6:	a829                	j	802031d0 <find_next_free_cluster+0x48>
/home/caigoubencai/Desktop/os_c-ch6/kernel/fs/fat32/fat_table/fat_table.c:34 (discriminator 2)
    802031b8:	fe843783          	ld	a5,-24(s0)
    802031bc:	0785                	addi	a5,a5,1
    802031be:	fef43423          	sd	a5,-24(s0)
/home/caigoubencai/Desktop/os_c-ch6/kernel/fs/fat32/fat_table/fat_table.c:34 (discriminator 1)
    802031c2:	fe843703          	ld	a4,-24(s0)
    802031c6:	6789                	lui	a5,0x2
    802031c8:	17bd                	addi	a5,a5,-17
    802031ca:	fce7fae3          	bgeu	a5,a4,8020319e <find_next_free_cluster+0x16>
/home/caigoubencai/Desktop/os_c-ch6/kernel/fs/fat32/fat_table/fat_table.c:41
    802031ce:	57fd                	li	a5,-1
/home/caigoubencai/Desktop/os_c-ch6/kernel/fs/fat32/fat_table/fat_table.c:42
    802031d0:	853e                	mv	a0,a5
    802031d2:	7422                	ld	s0,40(sp)
    802031d4:	6145                	addi	sp,sp,48
    802031d6:	8082                	ret

00000000802031d8 <is_cluster_free>:
is_cluster_free():
/home/caigoubencai/Desktop/os_c-ch6/kernel/fs/fat32/fat_table/fat_table.c:45
    802031d8:	1101                	addi	sp,sp,-32
    802031da:	ec22                	sd	s0,24(sp)
    802031dc:	1000                	addi	s0,sp,32
    802031de:	fea43423          	sd	a0,-24(s0)
/home/caigoubencai/Desktop/os_c-ch6/kernel/fs/fat32/fat_table/fat_table.c:46
    802031e2:	fe843703          	ld	a4,-24(s0)
    802031e6:	6789                	lui	a5,0x2
    802031e8:	17bd                	addi	a5,a5,-17
    802031ea:	00e7ee63          	bltu	a5,a4,80203206 <is_cluster_free+0x2e>
/home/caigoubencai/Desktop/os_c-ch6/kernel/fs/fat32/fat_table/fat_table.c:46 (discriminator 1)
    802031ee:	00020717          	auipc	a4,0x20
    802031f2:	fba70713          	addi	a4,a4,-70 # 802231a8 <fat_table>
    802031f6:	fe843783          	ld	a5,-24(s0)
    802031fa:	078a                	slli	a5,a5,0x2
    802031fc:	97ba                	add	a5,a5,a4
    802031fe:	439c                	lw	a5,0(a5)
    80203200:	e399                	bnez	a5,80203206 <is_cluster_free+0x2e>
/home/caigoubencai/Desktop/os_c-ch6/kernel/fs/fat32/fat_table/fat_table.c:48
    80203202:	4785                	li	a5,1
    80203204:	a011                	j	80203208 <is_cluster_free+0x30>
/home/caigoubencai/Desktop/os_c-ch6/kernel/fs/fat32/fat_table/fat_table.c:50
    80203206:	4781                	li	a5,0
/home/caigoubencai/Desktop/os_c-ch6/kernel/fs/fat32/fat_table/fat_table.c:51
    80203208:	853e                	mv	a0,a5
    8020320a:	6462                	ld	s0,24(sp)
    8020320c:	6105                	addi	sp,sp,32
    8020320e:	8082                	ret

0000000080203210 <set_cluser_end>:
set_cluser_end():
/home/caigoubencai/Desktop/os_c-ch6/kernel/fs/fat32/fat_table/fat_table.c:55
    80203210:	1101                	addi	sp,sp,-32
    80203212:	ec22                	sd	s0,24(sp)
    80203214:	1000                	addi	s0,sp,32
    80203216:	fea43423          	sd	a0,-24(s0)
/home/caigoubencai/Desktop/os_c-ch6/kernel/fs/fat32/fat_table/fat_table.c:56
    8020321a:	fe843703          	ld	a4,-24(s0)
    8020321e:	6789                	lui	a5,0x2
    80203220:	17bd                	addi	a5,a5,-17
    80203222:	00e7ec63          	bltu	a5,a4,8020323a <set_cluser_end+0x2a>
/home/caigoubencai/Desktop/os_c-ch6/kernel/fs/fat32/fat_table/fat_table.c:58
    80203226:	00020717          	auipc	a4,0x20
    8020322a:	f8270713          	addi	a4,a4,-126 # 802231a8 <fat_table>
    8020322e:	fe843783          	ld	a5,-24(s0)
    80203232:	078a                	slli	a5,a5,0x2
    80203234:	97ba                	add	a5,a5,a4
    80203236:	577d                	li	a4,-1
    80203238:	c398                	sw	a4,0(a5)
/home/caigoubencai/Desktop/os_c-ch6/kernel/fs/fat32/fat_table/fat_table.c:60
    8020323a:	0001                	nop
    8020323c:	6462                	ld	s0,24(sp)
    8020323e:	6105                	addi	sp,sp,32
    80203240:	8082                	ret

0000000080203242 <set_cluser_free>:
set_cluser_free():
/home/caigoubencai/Desktop/os_c-ch6/kernel/fs/fat32/fat_table/fat_table.c:64
    80203242:	1101                	addi	sp,sp,-32
    80203244:	ec22                	sd	s0,24(sp)
    80203246:	1000                	addi	s0,sp,32
    80203248:	fea43423          	sd	a0,-24(s0)
/home/caigoubencai/Desktop/os_c-ch6/kernel/fs/fat32/fat_table/fat_table.c:65
    8020324c:	fe843703          	ld	a4,-24(s0)
    80203250:	6789                	lui	a5,0x2
    80203252:	17bd                	addi	a5,a5,-17
    80203254:	00e7ec63          	bltu	a5,a4,8020326c <set_cluser_free+0x2a>
/home/caigoubencai/Desktop/os_c-ch6/kernel/fs/fat32/fat_table/fat_table.c:67
    80203258:	00020717          	auipc	a4,0x20
    8020325c:	f5070713          	addi	a4,a4,-176 # 802231a8 <fat_table>
    80203260:	fe843783          	ld	a5,-24(s0)
    80203264:	078a                	slli	a5,a5,0x2
    80203266:	97ba                	add	a5,a5,a4
    80203268:	0007a023          	sw	zero,0(a5) # 2000 <n+0x1fe0>
/home/caigoubencai/Desktop/os_c-ch6/kernel/fs/fat32/fat_table/fat_table.c:69
    8020326c:	0001                	nop
    8020326e:	6462                	ld	s0,24(sp)
    80203270:	6105                	addi	sp,sp,32
    80203272:	8082                	ret

0000000080203274 <parse_cluster_number>:
parse_cluster_number():
/home/caigoubencai/Desktop/os_c-ch6/kernel/fs/fat32/fat_table/fat_table.c:72
    80203274:	7179                	addi	sp,sp,-48
    80203276:	f422                	sd	s0,40(sp)
    80203278:	1800                	addi	s0,sp,48
    8020327a:	fca43c23          	sd	a0,-40(s0)
/home/caigoubencai/Desktop/os_c-ch6/kernel/fs/fat32/fat_table/fat_table.c:73
    8020327e:	00020717          	auipc	a4,0x20
    80203282:	f2a70713          	addi	a4,a4,-214 # 802231a8 <fat_table>
    80203286:	fd843783          	ld	a5,-40(s0)
    8020328a:	078a                	slli	a5,a5,0x2
    8020328c:	97ba                	add	a5,a5,a4
    8020328e:	439c                	lw	a5,0(a5)
    80203290:	873e                	mv	a4,a5
    80203292:	100007b7          	lui	a5,0x10000
    80203296:	17fd                	addi	a5,a5,-1
    80203298:	8ff9                	and	a5,a5,a4
    8020329a:	fef42623          	sw	a5,-20(s0)
/home/caigoubencai/Desktop/os_c-ch6/kernel/fs/fat32/fat_table/fat_table.c:74
    8020329e:	fec46783          	lwu	a5,-20(s0)
/home/caigoubencai/Desktop/os_c-ch6/kernel/fs/fat32/fat_table/fat_table.c:75
    802032a2:	853e                	mv	a0,a5
    802032a4:	7422                	ld	s0,40(sp)
    802032a6:	6145                	addi	sp,sp,48
    802032a8:	8082                	ret

00000000802032aa <set_cluster_number>:
set_cluster_number():
/home/caigoubencai/Desktop/os_c-ch6/kernel/fs/fat32/fat_table/fat_table.c:78
    802032aa:	1101                	addi	sp,sp,-32
    802032ac:	ec22                	sd	s0,24(sp)
    802032ae:	1000                	addi	s0,sp,32
    802032b0:	fea43423          	sd	a0,-24(s0)
    802032b4:	87ae                	mv	a5,a1
    802032b6:	fef42223          	sw	a5,-28(s0)
/home/caigoubencai/Desktop/os_c-ch6/kernel/fs/fat32/fat_table/fat_table.c:79
    802032ba:	fe442703          	lw	a4,-28(s0)
    802032be:	100007b7          	lui	a5,0x10000
    802032c2:	17fd                	addi	a5,a5,-1
    802032c4:	8ff9                	and	a5,a5,a4
    802032c6:	fef42223          	sw	a5,-28(s0)
/home/caigoubencai/Desktop/os_c-ch6/kernel/fs/fat32/fat_table/fat_table.c:80
    802032ca:	00020717          	auipc	a4,0x20
    802032ce:	ede70713          	addi	a4,a4,-290 # 802231a8 <fat_table>
    802032d2:	fe843783          	ld	a5,-24(s0)
    802032d6:	078a                	slli	a5,a5,0x2
    802032d8:	97ba                	add	a5,a5,a4
    802032da:	439c                	lw	a5,0(a5)
    802032dc:	873e                	mv	a4,a5
    802032de:	f00007b7          	lui	a5,0xf0000
    802032e2:	8ff9                	and	a5,a5,a4
    802032e4:	0007871b          	sext.w	a4,a5
    802032e8:	00020697          	auipc	a3,0x20
    802032ec:	ec068693          	addi	a3,a3,-320 # 802231a8 <fat_table>
    802032f0:	fe843783          	ld	a5,-24(s0)
    802032f4:	078a                	slli	a5,a5,0x2
    802032f6:	97b6                	add	a5,a5,a3
    802032f8:	c398                	sw	a4,0(a5)
/home/caigoubencai/Desktop/os_c-ch6/kernel/fs/fat32/fat_table/fat_table.c:81
    802032fa:	00020717          	auipc	a4,0x20
    802032fe:	eae70713          	addi	a4,a4,-338 # 802231a8 <fat_table>
    80203302:	fe843783          	ld	a5,-24(s0)
    80203306:	078a                	slli	a5,a5,0x2
    80203308:	97ba                	add	a5,a5,a4
    8020330a:	4398                	lw	a4,0(a5)
    8020330c:	fe442783          	lw	a5,-28(s0)
    80203310:	8fd9                	or	a5,a5,a4
    80203312:	0007871b          	sext.w	a4,a5
    80203316:	00020697          	auipc	a3,0x20
    8020331a:	e9268693          	addi	a3,a3,-366 # 802231a8 <fat_table>
    8020331e:	fe843783          	ld	a5,-24(s0)
    80203322:	078a                	slli	a5,a5,0x2
    80203324:	97b6                	add	a5,a5,a3
    80203326:	c398                	sw	a4,0(a5)
/home/caigoubencai/Desktop/os_c-ch6/kernel/fs/fat32/fat_table/fat_table.c:82
    80203328:	0001                	nop
    8020332a:	6462                	ld	s0,24(sp)
    8020332c:	6105                	addi	sp,sp,32
    8020332e:	8082                	ret

0000000080203330 <is_end_of_cluster>:
is_end_of_cluster():
/home/caigoubencai/Desktop/os_c-ch6/kernel/fs/fat32/fat_table/fat_table.c:91
    80203330:	1101                	addi	sp,sp,-32
    80203332:	ec22                	sd	s0,24(sp)
    80203334:	1000                	addi	s0,sp,32
    80203336:	fea43423          	sd	a0,-24(s0)
/home/caigoubencai/Desktop/os_c-ch6/kernel/fs/fat32/fat_table/fat_table.c:92
    8020333a:	00020717          	auipc	a4,0x20
    8020333e:	e6e70713          	addi	a4,a4,-402 # 802231a8 <fat_table>
    80203342:	fe843783          	ld	a5,-24(s0)
    80203346:	078a                	slli	a5,a5,0x2
    80203348:	97ba                	add	a5,a5,a4
    8020334a:	439c                	lw	a5,0(a5)
    8020334c:	1782                	slli	a5,a5,0x20
    8020334e:	9381                	srli	a5,a5,0x20
    80203350:	fef43423          	sd	a5,-24(s0)
/home/caigoubencai/Desktop/os_c-ch6/kernel/fs/fat32/fat_table/fat_table.c:94
    80203354:	fe843703          	ld	a4,-24(s0)
    80203358:	100007b7          	lui	a5,0x10000
    8020335c:	17dd                	addi	a5,a5,-9
    8020335e:	00e7f863          	bgeu	a5,a4,8020336e <is_end_of_cluster+0x3e>
/home/caigoubencai/Desktop/os_c-ch6/kernel/fs/fat32/fat_table/fat_table.c:94 (discriminator 1)
    80203362:	fe843703          	ld	a4,-24(s0)
    80203366:	100007b7          	lui	a5,0x10000
    8020336a:	00f76863          	bltu	a4,a5,8020337a <is_end_of_cluster+0x4a>
/home/caigoubencai/Desktop/os_c-ch6/kernel/fs/fat32/fat_table/fat_table.c:94 (discriminator 3)
    8020336e:	fe843703          	ld	a4,-24(s0)
    80203372:	57fd                	li	a5,-1
    80203374:	9381                	srli	a5,a5,0x20
    80203376:	00f71463          	bne	a4,a5,8020337e <is_end_of_cluster+0x4e>
/home/caigoubencai/Desktop/os_c-ch6/kernel/fs/fat32/fat_table/fat_table.c:96
    8020337a:	4785                	li	a5,1
    8020337c:	a011                	j	80203380 <is_end_of_cluster+0x50>
/home/caigoubencai/Desktop/os_c-ch6/kernel/fs/fat32/fat_table/fat_table.c:98
    8020337e:	4781                	li	a5,0
/home/caigoubencai/Desktop/os_c-ch6/kernel/fs/fat32/fat_table/fat_table.c:99
    80203380:	853e                	mv	a0,a5
    80203382:	6462                	ld	s0,24(sp)
    80203384:	6105                	addi	sp,sp,32
    80203386:	8082                	ret

0000000080203388 <find_last_cluster>:
find_last_cluster():
/home/caigoubencai/Desktop/os_c-ch6/kernel/fs/fat32/fat_table/fat_table.c:102
    80203388:	1101                	addi	sp,sp,-32
    8020338a:	ec06                	sd	ra,24(sp)
    8020338c:	e822                	sd	s0,16(sp)
    8020338e:	1000                	addi	s0,sp,32
    80203390:	fea43423          	sd	a0,-24(s0)
/home/caigoubencai/Desktop/os_c-ch6/kernel/fs/fat32/fat_table/fat_table.c:103
    80203394:	fe843503          	ld	a0,-24(s0)
    80203398:	f99ff0ef          	jal	ra,80203330 <is_end_of_cluster>
    8020339c:	872a                	mv	a4,a0
    8020339e:	4785                	li	a5,1
    802033a0:	00f71b63          	bne	a4,a5,802033b6 <find_last_cluster+0x2e>
/home/caigoubencai/Desktop/os_c-ch6/kernel/fs/fat32/fat_table/fat_table.c:104
    802033a4:	fe843783          	ld	a5,-24(s0)
    802033a8:	a839                	j	802033c6 <find_last_cluster+0x3e>
/home/caigoubencai/Desktop/os_c-ch6/kernel/fs/fat32/fat_table/fat_table.c:107
    802033aa:	fe843503          	ld	a0,-24(s0)
    802033ae:	ec7ff0ef          	jal	ra,80203274 <parse_cluster_number>
    802033b2:	fea43423          	sd	a0,-24(s0)
/home/caigoubencai/Desktop/os_c-ch6/kernel/fs/fat32/fat_table/fat_table.c:105
    802033b6:	fe843503          	ld	a0,-24(s0)
    802033ba:	f77ff0ef          	jal	ra,80203330 <is_end_of_cluster>
    802033be:	87aa                	mv	a5,a0
    802033c0:	d7ed                	beqz	a5,802033aa <find_last_cluster+0x22>
/home/caigoubencai/Desktop/os_c-ch6/kernel/fs/fat32/fat_table/fat_table.c:109
    802033c2:	fe843783          	ld	a5,-24(s0)
/home/caigoubencai/Desktop/os_c-ch6/kernel/fs/fat32/fat_table/fat_table.c:110
    802033c6:	853e                	mv	a0,a5
    802033c8:	60e2                	ld	ra,24(sp)
    802033ca:	6442                	ld	s0,16(sp)
    802033cc:	6105                	addi	sp,sp,32
    802033ce:	8082                	ret

00000000802033d0 <release_linked_clusters>:
release_linked_clusters():
/home/caigoubencai/Desktop/os_c-ch6/kernel/fs/fat32/fat_table/fat_table.c:113
    802033d0:	7179                	addi	sp,sp,-48
    802033d2:	f406                	sd	ra,40(sp)
    802033d4:	f022                	sd	s0,32(sp)
    802033d6:	1800                	addi	s0,sp,48
    802033d8:	87aa                	mv	a5,a0
    802033da:	fcf42e23          	sw	a5,-36(s0)
/home/caigoubencai/Desktop/os_c-ch6/kernel/fs/fat32/fat_table/fat_table.c:114
    802033de:	fdc42783          	lw	a5,-36(s0)
    802033e2:	fef42623          	sw	a5,-20(s0)
/home/caigoubencai/Desktop/os_c-ch6/kernel/fs/fat32/fat_table/fat_table.c:116
    802033e6:	a815                	j	8020341a <release_linked_clusters+0x4a>
/home/caigoubencai/Desktop/os_c-ch6/kernel/fs/fat32/fat_table/fat_table.c:118
    802033e8:	fec42783          	lw	a5,-20(s0)
    802033ec:	37f9                	addiw	a5,a5,-2
    802033ee:	2781                	sext.w	a5,a5
    802033f0:	1782                	slli	a5,a5,0x20
    802033f2:	9381                	srli	a5,a5,0x20
    802033f4:	853e                	mv	a0,a5
    802033f6:	e7fff0ef          	jal	ra,80203274 <parse_cluster_number>
    802033fa:	87aa                	mv	a5,a0
    802033fc:	fef42423          	sw	a5,-24(s0)
/home/caigoubencai/Desktop/os_c-ch6/kernel/fs/fat32/fat_table/fat_table.c:119
    80203400:	fec42783          	lw	a5,-20(s0)
    80203404:	37f9                	addiw	a5,a5,-2
    80203406:	2781                	sext.w	a5,a5
    80203408:	1782                	slli	a5,a5,0x20
    8020340a:	9381                	srli	a5,a5,0x20
    8020340c:	853e                	mv	a0,a5
    8020340e:	e35ff0ef          	jal	ra,80203242 <set_cluser_free>
/home/caigoubencai/Desktop/os_c-ch6/kernel/fs/fat32/fat_table/fat_table.c:120
    80203412:	fe842783          	lw	a5,-24(s0)
    80203416:	fef42623          	sw	a5,-20(s0)
/home/caigoubencai/Desktop/os_c-ch6/kernel/fs/fat32/fat_table/fat_table.c:116
    8020341a:	fec42783          	lw	a5,-20(s0)
    8020341e:	37f9                	addiw	a5,a5,-2
    80203420:	2781                	sext.w	a5,a5
    80203422:	1782                	slli	a5,a5,0x20
    80203424:	9381                	srli	a5,a5,0x20
    80203426:	853e                	mv	a0,a5
    80203428:	f09ff0ef          	jal	ra,80203330 <is_end_of_cluster>
    8020342c:	87aa                	mv	a5,a0
    8020342e:	dfcd                	beqz	a5,802033e8 <release_linked_clusters+0x18>
/home/caigoubencai/Desktop/os_c-ch6/kernel/fs/fat32/fat_table/fat_table.c:122
    80203430:	fdc42783          	lw	a5,-36(s0)
    80203434:	37f9                	addiw	a5,a5,-2
    80203436:	2781                	sext.w	a5,a5
    80203438:	1782                	slli	a5,a5,0x20
    8020343a:	9381                	srli	a5,a5,0x20
    8020343c:	853e                	mv	a0,a5
    8020343e:	e05ff0ef          	jal	ra,80203242 <set_cluser_free>
/home/caigoubencai/Desktop/os_c-ch6/kernel/fs/fat32/fat_table/fat_table.c:123
    80203442:	0001                	nop
    80203444:	70a2                	ld	ra,40(sp)
    80203446:	7402                	ld	s0,32(sp)
    80203448:	6145                	addi	sp,sp,48
    8020344a:	8082                	ret

000000008020344c <init_fat_table>:
init_fat_table():
/home/caigoubencai/Desktop/os_c-ch6/kernel/fs/fat32/fat_table/fat_table.c:126
    8020344c:	dc010113          	addi	sp,sp,-576
    80203450:	22113c23          	sd	ra,568(sp)
    80203454:	22813823          	sd	s0,560(sp)
    80203458:	0480                	addi	s0,sp,576
/home/caigoubencai/Desktop/os_c-ch6/kernel/fs/fat32/fat_table/fat_table.c:127
    8020345a:	02100793          	li	a5,33
    8020345e:	fcf42e23          	sw	a5,-36(s0)
/home/caigoubencai/Desktop/os_c-ch6/kernel/fs/fat32/fat_table/fat_table.c:128
    80203462:	06000793          	li	a5,96
    80203466:	fcf42c23          	sw	a5,-40(s0)
/home/caigoubencai/Desktop/os_c-ch6/kernel/fs/fat32/fat_table/fat_table.c:129
    8020346a:	fdc42783          	lw	a5,-36(s0)
    8020346e:	fef42623          	sw	a5,-20(s0)
/home/caigoubencai/Desktop/os_c-ch6/kernel/fs/fat32/fat_table/fat_table.c:130
    80203472:	6789                	lui	a5,0x2
    80203474:	17c1                	addi	a5,a5,-16
    80203476:	fcf42a23          	sw	a5,-44(s0)
/home/caigoubencai/Desktop/os_c-ch6/kernel/fs/fat32/fat_table/fat_table.c:131
    8020347a:	fe042423          	sw	zero,-24(s0)
/home/caigoubencai/Desktop/os_c-ch6/kernel/fs/fat32/fat_table/fat_table.c:133
    8020347e:	a8cd                	j	80203570 <init_fat_table+0x124>
/home/caigoubencai/Desktop/os_c-ch6/kernel/fs/fat32/fat_table/fat_table.c:135
    80203480:	fec42783          	lw	a5,-20(s0)
    80203484:	0007871b          	sext.w	a4,a5
    80203488:	02f00793          	li	a5,47
    8020348c:	00f70a63          	beq	a4,a5,802034a0 <init_fat_table+0x54>
/home/caigoubencai/Desktop/os_c-ch6/kernel/fs/fat32/fat_table/fat_table.c:135 (discriminator 1)
    80203490:	fec42783          	lw	a5,-20(s0)
    80203494:	0007871b          	sext.w	a4,a5
    80203498:	03000793          	li	a5,48
    8020349c:	00f71863          	bne	a4,a5,802034ac <init_fat_table+0x60>
/home/caigoubencai/Desktop/os_c-ch6/kernel/fs/fat32/fat_table/fat_table.c:137
    802034a0:	0000e517          	auipc	a0,0xe
    802034a4:	c9850513          	addi	a0,a0,-872 # 80211138 <MMIO+0x10>
    802034a8:	b8aff0ef          	jal	ra,80202832 <printk>
/home/caigoubencai/Desktop/os_c-ch6/kernel/fs/fat32/fat_table/fat_table.c:139
    802034ac:	dc840793          	addi	a5,s0,-568
    802034b0:	fec42703          	lw	a4,-20(s0)
    802034b4:	85ba                	mv	a1,a4
    802034b6:	853e                	mv	a0,a5
    802034b8:	55d020ef          	jal	ra,80206214 <read_block>
/home/caigoubencai/Desktop/os_c-ch6/kernel/fs/fat32/fat_table/fat_table.c:142
    802034bc:	08000793          	li	a5,128
    802034c0:	fef42223          	sw	a5,-28(s0)
/home/caigoubencai/Desktop/os_c-ch6/kernel/fs/fat32/fat_table/fat_table.c:143
    802034c4:	fe842703          	lw	a4,-24(s0)
    802034c8:	fe442783          	lw	a5,-28(s0)
    802034cc:	9fb9                	addw	a5,a5,a4
    802034ce:	0007871b          	sext.w	a4,a5
    802034d2:	fd442783          	lw	a5,-44(s0)
    802034d6:	2781                	sext.w	a5,a5
    802034d8:	00e7fa63          	bgeu	a5,a4,802034ec <init_fat_table+0xa0>
/home/caigoubencai/Desktop/os_c-ch6/kernel/fs/fat32/fat_table/fat_table.c:145
    802034dc:	fd442703          	lw	a4,-44(s0)
    802034e0:	fe842783          	lw	a5,-24(s0)
    802034e4:	40f707bb          	subw	a5,a4,a5
    802034e8:	fef42223          	sw	a5,-28(s0)
/home/caigoubencai/Desktop/os_c-ch6/kernel/fs/fat32/fat_table/fat_table.c:148
    802034ec:	fe042023          	sw	zero,-32(s0)
    802034f0:	a891                	j	80203544 <init_fat_table+0xf8>
/home/caigoubencai/Desktop/os_c-ch6/kernel/fs/fat32/fat_table/fat_table.c:150
    802034f2:	fe842703          	lw	a4,-24(s0)
    802034f6:	fd442783          	lw	a5,-44(s0)
    802034fa:	2701                	sext.w	a4,a4
    802034fc:	2781                	sext.w	a5,a5
    802034fe:	04f77b63          	bgeu	a4,a5,80203554 <init_fat_table+0x108>
/home/caigoubencai/Desktop/os_c-ch6/kernel/fs/fat32/fat_table/fat_table.c:154 (discriminator 2)
    80203502:	fe846783          	lwu	a5,-24(s0)
    80203506:	00279713          	slli	a4,a5,0x2
    8020350a:	00020797          	auipc	a5,0x20
    8020350e:	c9e78793          	addi	a5,a5,-866 # 802231a8 <fat_table>
    80203512:	00f706b3          	add	a3,a4,a5
    80203516:	fe042783          	lw	a5,-32(s0)
    8020351a:	0027979b          	slliw	a5,a5,0x2
    8020351e:	2781                	sext.w	a5,a5
    80203520:	dc840713          	addi	a4,s0,-568
    80203524:	97ba                	add	a5,a5,a4
    80203526:	4611                	li	a2,4
    80203528:	85be                	mv	a1,a5
    8020352a:	8536                	mv	a0,a3
    8020352c:	575040ef          	jal	ra,802082a0 <memcpy>
/home/caigoubencai/Desktop/os_c-ch6/kernel/fs/fat32/fat_table/fat_table.c:155 (discriminator 2)
    80203530:	fe842783          	lw	a5,-24(s0)
    80203534:	2785                	addiw	a5,a5,1
    80203536:	fef42423          	sw	a5,-24(s0)
/home/caigoubencai/Desktop/os_c-ch6/kernel/fs/fat32/fat_table/fat_table.c:148 (discriminator 2)
    8020353a:	fe042783          	lw	a5,-32(s0)
    8020353e:	2785                	addiw	a5,a5,1
    80203540:	fef42023          	sw	a5,-32(s0)
/home/caigoubencai/Desktop/os_c-ch6/kernel/fs/fat32/fat_table/fat_table.c:148 (discriminator 1)
    80203544:	fe042703          	lw	a4,-32(s0)
    80203548:	fe442783          	lw	a5,-28(s0)
    8020354c:	2781                	sext.w	a5,a5
    8020354e:	faf762e3          	bltu	a4,a5,802034f2 <init_fat_table+0xa6>
    80203552:	a011                	j	80203556 <init_fat_table+0x10a>
/home/caigoubencai/Desktop/os_c-ch6/kernel/fs/fat32/fat_table/fat_table.c:152
    80203554:	0001                	nop
/home/caigoubencai/Desktop/os_c-ch6/kernel/fs/fat32/fat_table/fat_table.c:158
    80203556:	fec42783          	lw	a5,-20(s0)
    8020355a:	2785                	addiw	a5,a5,1
    8020355c:	fef42623          	sw	a5,-20(s0)
/home/caigoubencai/Desktop/os_c-ch6/kernel/fs/fat32/fat_table/fat_table.c:159
    80203560:	fe842703          	lw	a4,-24(s0)
    80203564:	fd442783          	lw	a5,-44(s0)
    80203568:	2701                	sext.w	a4,a4
    8020356a:	2781                	sext.w	a5,a5
    8020356c:	00f77b63          	bgeu	a4,a5,80203582 <init_fat_table+0x136>
/home/caigoubencai/Desktop/os_c-ch6/kernel/fs/fat32/fat_table/fat_table.c:133
    80203570:	fec42703          	lw	a4,-20(s0)
    80203574:	fd842783          	lw	a5,-40(s0)
    80203578:	2701                	sext.w	a4,a4
    8020357a:	2781                	sext.w	a5,a5
    8020357c:	f0f762e3          	bltu	a4,a5,80203480 <init_fat_table+0x34>
    80203580:	a011                	j	80203584 <init_fat_table+0x138>
/home/caigoubencai/Desktop/os_c-ch6/kernel/fs/fat32/fat_table/fat_table.c:161
    80203582:	0001                	nop
/home/caigoubencai/Desktop/os_c-ch6/kernel/fs/fat32/fat_table/fat_table.c:164
    80203584:	4785                	li	a5,1
/home/caigoubencai/Desktop/os_c-ch6/kernel/fs/fat32/fat_table/fat_table.c:165
    80203586:	853e                	mv	a0,a5
    80203588:	23813083          	ld	ra,568(sp)
    8020358c:	23013403          	ld	s0,560(sp)
    80203590:	24010113          	addi	sp,sp,576
    80203594:	8082                	ret

0000000080203596 <read_file>:
read_file():
/home/caigoubencai/Desktop/os_c-ch6/kernel/fs/fat32/file/file.c:11
    80203596:	7159                	addi	sp,sp,-112
    80203598:	f486                	sd	ra,104(sp)
    8020359a:	f0a2                	sd	s0,96(sp)
    8020359c:	1880                	addi	s0,sp,112
    8020359e:	faa43c23          	sd	a0,-72(s0)
    802035a2:	fab43823          	sd	a1,-80(s0)
/home/caigoubencai/Desktop/os_c-ch6/kernel/fs/fat32/file/file.c:13
    802035a6:	00028797          	auipc	a5,0x28
    802035aa:	bc278793          	addi	a5,a5,-1086 # 8022b168 <root_dir_entry>
    802035ae:	0007a883          	lw	a7,0(a5)
    802035b2:	0047a803          	lw	a6,4(a5)
    802035b6:	4788                	lw	a0,8(a5)
    802035b8:	47cc                	lw	a1,12(a5)
    802035ba:	4b90                	lw	a2,16(a5)
    802035bc:	4bd4                	lw	a3,20(a5)
    802035be:	4f98                	lw	a4,24(a5)
    802035c0:	4fdc                	lw	a5,28(a5)
    802035c2:	f9142823          	sw	a7,-112(s0)
    802035c6:	f9042a23          	sw	a6,-108(s0)
    802035ca:	f8a42c23          	sw	a0,-104(s0)
    802035ce:	f8b42e23          	sw	a1,-100(s0)
    802035d2:	fac42023          	sw	a2,-96(s0)
    802035d6:	fad42223          	sw	a3,-92(s0)
    802035da:	fae42423          	sw	a4,-88(s0)
    802035de:	faf42623          	sw	a5,-84(s0)
    802035e2:	f9040793          	addi	a5,s0,-112
    802035e6:	85be                	mv	a1,a5
    802035e8:	fb843503          	ld	a0,-72(s0)
    802035ec:	371010ef          	jal	ra,8020515c <find_directory_bfs>
    802035f0:	fca43823          	sd	a0,-48(s0)
/home/caigoubencai/Desktop/os_c-ch6/kernel/fs/fat32/file/file.c:14
    802035f4:	fd043783          	ld	a5,-48(s0)
    802035f8:	ef89                	bnez	a5,80203612 <read_file+0x7c>
/home/caigoubencai/Desktop/os_c-ch6/kernel/fs/fat32/file/file.c:16 (discriminator 1)
    802035fa:	0000e617          	auipc	a2,0xe
    802035fe:	b5660613          	addi	a2,a2,-1194 # 80211150 <MMIO+0x10>
    80203602:	45c1                	li	a1,16
    80203604:	0000e517          	auipc	a0,0xe
    80203608:	b6450513          	addi	a0,a0,-1180 # 80211168 <MMIO+0x28>
    8020360c:	260080ef          	jal	ra,8020b86c <_panic>
/home/caigoubencai/Desktop/os_c-ch6/kernel/fs/fat32/file/file.c:17 (discriminator 1)
    80203610:	aa15                	j	80203744 <read_file+0x1ae>
/home/caigoubencai/Desktop/os_c-ch6/kernel/fs/fat32/file/file.c:19
    80203612:	fd043503          	ld	a0,-48(s0)
    80203616:	78c010ef          	jal	ra,80204da2 <is_directory>
    8020361a:	87aa                	mv	a5,a0
    8020361c:	2781                	sext.w	a5,a5
    8020361e:	cb81                	beqz	a5,8020362e <read_file+0x98>
/home/caigoubencai/Desktop/os_c-ch6/kernel/fs/fat32/file/file.c:21
    80203620:	0000e517          	auipc	a0,0xe
    80203624:	b6050513          	addi	a0,a0,-1184 # 80211180 <MMIO+0x40>
    80203628:	a0aff0ef          	jal	ra,80202832 <printk>
/home/caigoubencai/Desktop/os_c-ch6/kernel/fs/fat32/file/file.c:22
    8020362c:	aa21                	j	80203744 <read_file+0x1ae>
/home/caigoubencai/Desktop/os_c-ch6/kernel/fs/fat32/file/file.c:26
    8020362e:	fd043503          	ld	a0,-48(s0)
    80203632:	1f4010ef          	jal	ra,80204826 <extract_cluster_number>
    80203636:	87aa                	mv	a5,a0
    80203638:	fef42623          	sw	a5,-20(s0)
/home/caigoubencai/Desktop/os_c-ch6/kernel/fs/fat32/file/file.c:27
    8020363c:	fd043503          	ld	a0,-48(s0)
    80203640:	110010ef          	jal	ra,80204750 <get_file_or_dir_size>
    80203644:	87aa                	mv	a5,a0
    80203646:	2781                	sext.w	a5,a5
    80203648:	1782                	slli	a5,a5,0x20
    8020364a:	9381                	srli	a5,a5,0x20
    8020364c:	fcf43423          	sd	a5,-56(s0)
/home/caigoubencai/Desktop/os_c-ch6/kernel/fs/fat32/file/file.c:28
    80203650:	fc843783          	ld	a5,-56(s0)
    80203654:	eb81                	bnez	a5,80203664 <read_file+0xce>
/home/caigoubencai/Desktop/os_c-ch6/kernel/fs/fat32/file/file.c:30
    80203656:	0000e517          	auipc	a0,0xe
    8020365a:	b3a50513          	addi	a0,a0,-1222 # 80211190 <MMIO+0x50>
    8020365e:	9d4ff0ef          	jal	ra,80202832 <printk>
/home/caigoubencai/Desktop/os_c-ch6/kernel/fs/fat32/file/file.c:31
    80203662:	a0cd                	j	80203744 <read_file+0x1ae>
/home/caigoubencai/Desktop/os_c-ch6/kernel/fs/fat32/file/file.c:33
    80203664:	fe042423          	sw	zero,-24(s0)
/home/caigoubencai/Desktop/os_c-ch6/kernel/fs/fat32/file/file.c:34
    80203668:	fb043783          	ld	a5,-80(s0)
    8020366c:	fef43023          	sd	a5,-32(s0)
/home/caigoubencai/Desktop/os_c-ch6/kernel/fs/fat32/file/file.c:37
    80203670:	a0c1                	j	80203730 <read_file+0x19a>
/home/caigoubencai/Desktop/os_c-ch6/kernel/fs/fat32/file/file.c:39
    80203672:	6785                	lui	a5,0x1
    80203674:	fcf42e23          	sw	a5,-36(s0)
/home/caigoubencai/Desktop/os_c-ch6/kernel/fs/fat32/file/file.c:40
    80203678:	fe846783          	lwu	a5,-24(s0)
    8020367c:	fc843703          	ld	a4,-56(s0)
    80203680:	8f1d                	sub	a4,a4,a5
    80203682:	6785                	lui	a5,0x1
    80203684:	00f77c63          	bgeu	a4,a5,8020369c <read_file+0x106>
/home/caigoubencai/Desktop/os_c-ch6/kernel/fs/fat32/file/file.c:42
    80203688:	fc843783          	ld	a5,-56(s0)
    8020368c:	0007871b          	sext.w	a4,a5
    80203690:	fe842783          	lw	a5,-24(s0)
    80203694:	40f707bb          	subw	a5,a4,a5
    80203698:	fcf42e23          	sw	a5,-36(s0)
/home/caigoubencai/Desktop/os_c-ch6/kernel/fs/fat32/file/file.c:45
    8020369c:	fec46783          	lwu	a5,-20(s0)
    802036a0:	fdc46703          	lwu	a4,-36(s0)
    802036a4:	fe043683          	ld	a3,-32(s0)
    802036a8:	863a                	mv	a2,a4
    802036aa:	4581                	li	a1,0
    802036ac:	853e                	mv	a0,a5
    802036ae:	0f2030ef          	jal	ra,802067a0 <read_by_byte_cluser>
    802036b2:	87aa                	mv	a5,a0
    802036b4:	fcf42223          	sw	a5,-60(s0)
/home/caigoubencai/Desktop/os_c-ch6/kernel/fs/fat32/file/file.c:46
    802036b8:	fc442783          	lw	a5,-60(s0)
    802036bc:	0007871b          	sext.w	a4,a5
    802036c0:	57fd                	li	a5,-1
    802036c2:	06f70e63          	beq	a4,a5,8020373e <read_file+0x1a8>
/home/caigoubencai/Desktop/os_c-ch6/kernel/fs/fat32/file/file.c:52
    802036c6:	fe842703          	lw	a4,-24(s0)
    802036ca:	fdc42783          	lw	a5,-36(s0)
    802036ce:	9fb9                	addw	a5,a5,a4
    802036d0:	fef42423          	sw	a5,-24(s0)
/home/caigoubencai/Desktop/os_c-ch6/kernel/fs/fat32/file/file.c:53
    802036d4:	fdc46783          	lwu	a5,-36(s0)
    802036d8:	fe043703          	ld	a4,-32(s0)
    802036dc:	97ba                	add	a5,a5,a4
    802036de:	fef43023          	sd	a5,-32(s0)
/home/caigoubencai/Desktop/os_c-ch6/kernel/fs/fat32/file/file.c:54
    802036e2:	fec42783          	lw	a5,-20(s0)
    802036e6:	0007871b          	sext.w	a4,a5
    802036ea:	4785                	li	a5,1
    802036ec:	00e7ee63          	bltu	a5,a4,80203708 <read_file+0x172>
/home/caigoubencai/Desktop/os_c-ch6/kernel/fs/fat32/file/file.c:56
    802036f0:	0000e617          	auipc	a2,0xe
    802036f4:	ab860613          	addi	a2,a2,-1352 # 802111a8 <MMIO+0x68>
    802036f8:	03800593          	li	a1,56
    802036fc:	0000e517          	auipc	a0,0xe
    80203700:	a6c50513          	addi	a0,a0,-1428 # 80211168 <MMIO+0x28>
    80203704:	168080ef          	jal	ra,8020b86c <_panic>
/home/caigoubencai/Desktop/os_c-ch6/kernel/fs/fat32/file/file.c:58
    80203708:	fec42783          	lw	a5,-20(s0)
    8020370c:	37f9                	addiw	a5,a5,-2
    8020370e:	2781                	sext.w	a5,a5
    80203710:	1782                	slli	a5,a5,0x20
    80203712:	9381                	srli	a5,a5,0x20
    80203714:	853e                	mv	a0,a5
    80203716:	b5fff0ef          	jal	ra,80203274 <parse_cluster_number>
    8020371a:	87aa                	mv	a5,a0
    8020371c:	fef42623          	sw	a5,-20(s0)
/home/caigoubencai/Desktop/os_c-ch6/kernel/fs/fat32/file/file.c:59
    80203720:	fec42783          	lw	a5,-20(s0)
    80203724:	0007871b          	sext.w	a4,a5
    80203728:	6789                	lui	a5,0x2
    8020372a:	17c1                	addi	a5,a5,-16
    8020372c:	00e7eb63          	bltu	a5,a4,80203742 <read_file+0x1ac>
/home/caigoubencai/Desktop/os_c-ch6/kernel/fs/fat32/file/file.c:37
    80203730:	fe846783          	lwu	a5,-24(s0)
    80203734:	fc843703          	ld	a4,-56(s0)
    80203738:	f2e7ede3          	bltu	a5,a4,80203672 <read_file+0xdc>
    8020373c:	a021                	j	80203744 <read_file+0x1ae>
/home/caigoubencai/Desktop/os_c-ch6/kernel/fs/fat32/file/file.c:49
    8020373e:	0001                	nop
    80203740:	a011                	j	80203744 <read_file+0x1ae>
/home/caigoubencai/Desktop/os_c-ch6/kernel/fs/fat32/file/file.c:60
    80203742:	0001                	nop
/home/caigoubencai/Desktop/os_c-ch6/kernel/fs/fat32/file/file.c:62
    80203744:	70a6                	ld	ra,104(sp)
    80203746:	7406                	ld	s0,96(sp)
    80203748:	6165                	addi	sp,sp,112
    8020374a:	8082                	ret

000000008020374c <over_write_file>:
over_write_file():
/home/caigoubencai/Desktop/os_c-ch6/kernel/fs/fat32/file/file.c:65
    8020374c:	7175                	addi	sp,sp,-144
    8020374e:	e506                	sd	ra,136(sp)
    80203750:	e122                	sd	s0,128(sp)
    80203752:	0900                	addi	s0,sp,144
    80203754:	faa43423          	sd	a0,-88(s0)
    80203758:	fab43023          	sd	a1,-96(s0)
    8020375c:	f8c43c23          	sd	a2,-104(s0)
/home/caigoubencai/Desktop/os_c-ch6/kernel/fs/fat32/file/file.c:67
    80203760:	00028797          	auipc	a5,0x28
    80203764:	a0878793          	addi	a5,a5,-1528 # 8022b168 <root_dir_entry>
    80203768:	0007a883          	lw	a7,0(a5)
    8020376c:	0047a803          	lw	a6,4(a5)
    80203770:	4788                	lw	a0,8(a5)
    80203772:	47cc                	lw	a1,12(a5)
    80203774:	4b90                	lw	a2,16(a5)
    80203776:	4bd4                	lw	a3,20(a5)
    80203778:	4f98                	lw	a4,24(a5)
    8020377a:	4fdc                	lw	a5,28(a5)
    8020377c:	f7142823          	sw	a7,-144(s0)
    80203780:	f7042a23          	sw	a6,-140(s0)
    80203784:	f6a42c23          	sw	a0,-136(s0)
    80203788:	f6b42e23          	sw	a1,-132(s0)
    8020378c:	f8c42023          	sw	a2,-128(s0)
    80203790:	f8d42223          	sw	a3,-124(s0)
    80203794:	f8e42423          	sw	a4,-120(s0)
    80203798:	f8f42623          	sw	a5,-116(s0)
    8020379c:	f7040793          	addi	a5,s0,-144
    802037a0:	85be                	mv	a1,a5
    802037a2:	fa843503          	ld	a0,-88(s0)
    802037a6:	1b7010ef          	jal	ra,8020515c <find_directory_bfs>
    802037aa:	fca43823          	sd	a0,-48(s0)
/home/caigoubencai/Desktop/os_c-ch6/kernel/fs/fat32/file/file.c:68
    802037ae:	fd043783          	ld	a5,-48(s0)
    802037b2:	eb81                	bnez	a5,802037c2 <over_write_file+0x76>
/home/caigoubencai/Desktop/os_c-ch6/kernel/fs/fat32/file/file.c:70
    802037b4:	0000e517          	auipc	a0,0xe
    802037b8:	a0450513          	addi	a0,a0,-1532 # 802111b8 <MMIO+0x78>
    802037bc:	876ff0ef          	jal	ra,80202832 <printk>
/home/caigoubencai/Desktop/os_c-ch6/kernel/fs/fat32/file/file.c:71
    802037c0:	aa55                	j	80203974 <over_write_file+0x228>
/home/caigoubencai/Desktop/os_c-ch6/kernel/fs/fat32/file/file.c:75
    802037c2:	fd043503          	ld	a0,-48(s0)
    802037c6:	5dc010ef          	jal	ra,80204da2 <is_directory>
    802037ca:	87aa                	mv	a5,a0
    802037cc:	2781                	sext.w	a5,a5
    802037ce:	cb81                	beqz	a5,802037de <over_write_file+0x92>
/home/caigoubencai/Desktop/os_c-ch6/kernel/fs/fat32/file/file.c:77
    802037d0:	0000e517          	auipc	a0,0xe
    802037d4:	9f850513          	addi	a0,a0,-1544 # 802111c8 <MMIO+0x88>
    802037d8:	85aff0ef          	jal	ra,80202832 <printk>
/home/caigoubencai/Desktop/os_c-ch6/kernel/fs/fat32/file/file.c:78
    802037dc:	aa61                	j	80203974 <over_write_file+0x228>
/home/caigoubencai/Desktop/os_c-ch6/kernel/fs/fat32/file/file.c:82
    802037de:	fd043503          	ld	a0,-48(s0)
    802037e2:	044010ef          	jal	ra,80204826 <extract_cluster_number>
    802037e6:	87aa                	mv	a5,a0
    802037e8:	fef42623          	sw	a5,-20(s0)
/home/caigoubencai/Desktop/os_c-ch6/kernel/fs/fat32/file/file.c:84
    802037ec:	fd043503          	ld	a0,-48(s0)
    802037f0:	761000ef          	jal	ra,80204750 <get_file_or_dir_size>
    802037f4:	87aa                	mv	a5,a0
    802037f6:	2781                	sext.w	a5,a5
    802037f8:	1782                	slli	a5,a5,0x20
    802037fa:	9381                	srli	a5,a5,0x20
    802037fc:	fcf43423          	sd	a5,-56(s0)
/home/caigoubencai/Desktop/os_c-ch6/kernel/fs/fat32/file/file.c:86
    80203800:	fc843703          	ld	a4,-56(s0)
    80203804:	6785                	lui	a5,0x1
    80203806:	17fd                	addi	a5,a5,-1
    80203808:	97ba                	add	a5,a5,a4
    8020380a:	83b1                	srli	a5,a5,0xc
    8020380c:	fcf42223          	sw	a5,-60(s0)
/home/caigoubencai/Desktop/os_c-ch6/kernel/fs/fat32/file/file.c:89
    80203810:	fec42783          	lw	a5,-20(s0)
    80203814:	fef42423          	sw	a5,-24(s0)
/home/caigoubencai/Desktop/os_c-ch6/kernel/fs/fat32/file/file.c:90
    80203818:	4785                	li	a5,1
    8020381a:	fef42223          	sw	a5,-28(s0)
    8020381e:	a03d                	j	8020384c <over_write_file+0x100>
/home/caigoubencai/Desktop/os_c-ch6/kernel/fs/fat32/file/file.c:92 (discriminator 3)
    80203820:	fe846783          	lwu	a5,-24(s0)
    80203824:	853e                	mv	a0,a5
    80203826:	a4fff0ef          	jal	ra,80203274 <parse_cluster_number>
    8020382a:	87aa                	mv	a5,a0
    8020382c:	faf42e23          	sw	a5,-68(s0)
/home/caigoubencai/Desktop/os_c-ch6/kernel/fs/fat32/file/file.c:93 (discriminator 3)
    80203830:	fe846783          	lwu	a5,-24(s0)
    80203834:	853e                	mv	a0,a5
    80203836:	a0dff0ef          	jal	ra,80203242 <set_cluser_free>
/home/caigoubencai/Desktop/os_c-ch6/kernel/fs/fat32/file/file.c:94 (discriminator 3)
    8020383a:	fbc42783          	lw	a5,-68(s0)
    8020383e:	fef42423          	sw	a5,-24(s0)
/home/caigoubencai/Desktop/os_c-ch6/kernel/fs/fat32/file/file.c:90 (discriminator 3)
    80203842:	fe442783          	lw	a5,-28(s0)
    80203846:	2785                	addiw	a5,a5,1
    80203848:	fef42223          	sw	a5,-28(s0)
/home/caigoubencai/Desktop/os_c-ch6/kernel/fs/fat32/file/file.c:90 (discriminator 1)
    8020384c:	fe442703          	lw	a4,-28(s0)
    80203850:	fc442783          	lw	a5,-60(s0)
    80203854:	2781                	sext.w	a5,a5
    80203856:	fcf765e3          	bltu	a4,a5,80203820 <over_write_file+0xd4>
/home/caigoubencai/Desktop/os_c-ch6/kernel/fs/fat32/file/file.c:98
    8020385a:	fe042023          	sw	zero,-32(s0)
/home/caigoubencai/Desktop/os_c-ch6/kernel/fs/fat32/file/file.c:99
    8020385e:	a0d9                	j	80203924 <over_write_file+0x1d8>
/home/caigoubencai/Desktop/os_c-ch6/kernel/fs/fat32/file/file.c:101
    80203860:	fe046783          	lwu	a5,-32(s0)
    80203864:	f9843703          	ld	a4,-104(s0)
    80203868:	40f707b3          	sub	a5,a4,a5
    8020386c:	6705                	lui	a4,0x1
    8020386e:	00f77363          	bgeu	a4,a5,80203874 <over_write_file+0x128>
    80203872:	6785                	lui	a5,0x1
    80203874:	fcf42e23          	sw	a5,-36(s0)
/home/caigoubencai/Desktop/os_c-ch6/kernel/fs/fat32/file/file.c:102
    80203878:	fdc42703          	lw	a4,-36(s0)
    8020387c:	fe042783          	lw	a5,-32(s0)
    80203880:	9fb9                	addw	a5,a5,a4
    80203882:	2781                	sext.w	a5,a5
    80203884:	1782                	slli	a5,a5,0x20
    80203886:	9381                	srli	a5,a5,0x20
    80203888:	f9843703          	ld	a4,-104(s0)
    8020388c:	00f77c63          	bgeu	a4,a5,802038a4 <over_write_file+0x158>
/home/caigoubencai/Desktop/os_c-ch6/kernel/fs/fat32/file/file.c:104
    80203890:	f9843783          	ld	a5,-104(s0)
    80203894:	0007871b          	sext.w	a4,a5
    80203898:	fe042783          	lw	a5,-32(s0)
    8020389c:	40f707bb          	subw	a5,a4,a5
    802038a0:	fcf42e23          	sw	a5,-36(s0)
/home/caigoubencai/Desktop/os_c-ch6/kernel/fs/fat32/file/file.c:106
    802038a4:	fec46503          	lwu	a0,-20(s0)
    802038a8:	fdc46603          	lwu	a2,-36(s0)
    802038ac:	fe046783          	lwu	a5,-32(s0)
    802038b0:	fa043703          	ld	a4,-96(s0)
    802038b4:	97ba                	add	a5,a5,a4
    802038b6:	86be                	mv	a3,a5
    802038b8:	4581                	li	a1,0
    802038ba:	795020ef          	jal	ra,8020684e <write_by_byte_cluser>
    802038be:	87aa                	mv	a5,a0
    802038c0:	fcf42023          	sw	a5,-64(s0)
/home/caigoubencai/Desktop/os_c-ch6/kernel/fs/fat32/file/file.c:107
    802038c4:	fc042783          	lw	a5,-64(s0)
    802038c8:	2781                	sext.w	a5,a5
    802038ca:	cb81                	beqz	a5,802038da <over_write_file+0x18e>
/home/caigoubencai/Desktop/os_c-ch6/kernel/fs/fat32/file/file.c:109
    802038cc:	0000e517          	auipc	a0,0xe
    802038d0:	92450513          	addi	a0,a0,-1756 # 802111f0 <MMIO+0xb0>
    802038d4:	f5ffe0ef          	jal	ra,80202832 <printk>
/home/caigoubencai/Desktop/os_c-ch6/kernel/fs/fat32/file/file.c:110
    802038d8:	a871                	j	80203974 <over_write_file+0x228>
/home/caigoubencai/Desktop/os_c-ch6/kernel/fs/fat32/file/file.c:112
    802038da:	fe042703          	lw	a4,-32(s0)
    802038de:	fdc42783          	lw	a5,-36(s0)
    802038e2:	9fb9                	addw	a5,a5,a4
    802038e4:	fef42023          	sw	a5,-32(s0)
/home/caigoubencai/Desktop/os_c-ch6/kernel/fs/fat32/file/file.c:113
    802038e8:	fe046783          	lwu	a5,-32(s0)
    802038ec:	f9843703          	ld	a4,-104(s0)
    802038f0:	02e7fa63          	bgeu	a5,a4,80203924 <over_write_file+0x1d8>
/home/caigoubencai/Desktop/os_c-ch6/kernel/fs/fat32/file/file.c:115
    802038f4:	fec46783          	lwu	a5,-20(s0)
    802038f8:	853e                	mv	a0,a5
    802038fa:	88fff0ef          	jal	ra,80203188 <find_next_free_cluster>
    802038fe:	87aa                	mv	a5,a0
    80203900:	fef42623          	sw	a5,-20(s0)
/home/caigoubencai/Desktop/os_c-ch6/kernel/fs/fat32/file/file.c:116
    80203904:	fe842783          	lw	a5,-24(s0)
    80203908:	37f9                	addiw	a5,a5,-2
    8020390a:	2781                	sext.w	a5,a5
    8020390c:	1782                	slli	a5,a5,0x20
    8020390e:	9381                	srli	a5,a5,0x20
    80203910:	fec42703          	lw	a4,-20(s0)
    80203914:	85ba                	mv	a1,a4
    80203916:	853e                	mv	a0,a5
    80203918:	993ff0ef          	jal	ra,802032aa <set_cluster_number>
/home/caigoubencai/Desktop/os_c-ch6/kernel/fs/fat32/file/file.c:117
    8020391c:	fec42783          	lw	a5,-20(s0)
    80203920:	fef42423          	sw	a5,-24(s0)
/home/caigoubencai/Desktop/os_c-ch6/kernel/fs/fat32/file/file.c:99
    80203924:	fe046783          	lwu	a5,-32(s0)
    80203928:	f9843703          	ld	a4,-104(s0)
    8020392c:	f2e7eae3          	bltu	a5,a4,80203860 <over_write_file+0x114>
/home/caigoubencai/Desktop/os_c-ch6/kernel/fs/fat32/file/file.c:121
    80203930:	f9843783          	ld	a5,-104(s0)
    80203934:	2781                	sext.w	a5,a5
    80203936:	85be                	mv	a1,a5
    80203938:	fd043503          	ld	a0,-48(s0)
    8020393c:	264010ef          	jal	ra,80204ba0 <set_file_or_dir_size>
/home/caigoubencai/Desktop/os_c-ch6/kernel/fs/fat32/file/file.c:122
    80203940:	fd043783          	ld	a5,-48(s0)
    80203944:	fd043583          	ld	a1,-48(s0)
    80203948:	853e                	mv	a0,a5
    8020394a:	745010ef          	jal	ra,8020588e <update_dir>
/home/caigoubencai/Desktop/os_c-ch6/kernel/fs/fat32/file/file.c:123
    8020394e:	fec46783          	lwu	a5,-20(s0)
    80203952:	853e                	mv	a0,a5
    80203954:	8bdff0ef          	jal	ra,80203210 <set_cluser_end>
/home/caigoubencai/Desktop/os_c-ch6/kernel/fs/fat32/file/file.c:124
    80203958:	fd043583          	ld	a1,-48(s0)
    8020395c:	fa843503          	ld	a0,-88(s0)
    80203960:	72f010ef          	jal	ra,8020588e <update_dir>
/home/caigoubencai/Desktop/os_c-ch6/kernel/fs/fat32/file/file.c:125
    80203964:	fa843583          	ld	a1,-88(s0)
    80203968:	0000e517          	auipc	a0,0xe
    8020396c:	8a850513          	addi	a0,a0,-1880 # 80211210 <MMIO+0xd0>
    80203970:	ec3fe0ef          	jal	ra,80202832 <printk>
/home/caigoubencai/Desktop/os_c-ch6/kernel/fs/fat32/file/file.c:126
    80203974:	60aa                	ld	ra,136(sp)
    80203976:	640a                	ld	s0,128(sp)
    80203978:	6149                	addi	sp,sp,144
    8020397a:	8082                	ret

000000008020397c <append_to_file>:
append_to_file():
/home/caigoubencai/Desktop/os_c-ch6/kernel/fs/fat32/file/file.c:129
    8020397c:	7159                	addi	sp,sp,-112
    8020397e:	f486                	sd	ra,104(sp)
    80203980:	f0a2                	sd	s0,96(sp)
    80203982:	1880                	addi	s0,sp,112
    80203984:	fca43423          	sd	a0,-56(s0)
    80203988:	fcb43023          	sd	a1,-64(s0)
    8020398c:	fac43c23          	sd	a2,-72(s0)
/home/caigoubencai/Desktop/os_c-ch6/kernel/fs/fat32/file/file.c:130
    80203990:	00027797          	auipc	a5,0x27
    80203994:	7d878793          	addi	a5,a5,2008 # 8022b168 <root_dir_entry>
    80203998:	0007a883          	lw	a7,0(a5)
    8020399c:	0047a803          	lw	a6,4(a5)
    802039a0:	4788                	lw	a0,8(a5)
    802039a2:	47cc                	lw	a1,12(a5)
    802039a4:	4b90                	lw	a2,16(a5)
    802039a6:	4bd4                	lw	a3,20(a5)
    802039a8:	4f98                	lw	a4,24(a5)
    802039aa:	4fdc                	lw	a5,28(a5)
    802039ac:	f9142823          	sw	a7,-112(s0)
    802039b0:	f9042a23          	sw	a6,-108(s0)
    802039b4:	f8a42c23          	sw	a0,-104(s0)
    802039b8:	f8b42e23          	sw	a1,-100(s0)
    802039bc:	fac42023          	sw	a2,-96(s0)
    802039c0:	fad42223          	sw	a3,-92(s0)
    802039c4:	fae42423          	sw	a4,-88(s0)
    802039c8:	faf42623          	sw	a5,-84(s0)
    802039cc:	f9040793          	addi	a5,s0,-112
    802039d0:	85be                	mv	a1,a5
    802039d2:	fc843503          	ld	a0,-56(s0)
    802039d6:	786010ef          	jal	ra,8020515c <find_directory_bfs>
    802039da:	fea43423          	sd	a0,-24(s0)
/home/caigoubencai/Desktop/os_c-ch6/kernel/fs/fat32/file/file.c:131
    802039de:	fe843783          	ld	a5,-24(s0)
    802039e2:	eb81                	bnez	a5,802039f2 <append_to_file+0x76>
/home/caigoubencai/Desktop/os_c-ch6/kernel/fs/fat32/file/file.c:133
    802039e4:	0000d517          	auipc	a0,0xd
    802039e8:	7d450513          	addi	a0,a0,2004 # 802111b8 <MMIO+0x78>
    802039ec:	e47fe0ef          	jal	ra,80202832 <printk>
/home/caigoubencai/Desktop/os_c-ch6/kernel/fs/fat32/file/file.c:134
    802039f0:	a239                	j	80203afe <append_to_file+0x182>
/home/caigoubencai/Desktop/os_c-ch6/kernel/fs/fat32/file/file.c:136
    802039f2:	fe843503          	ld	a0,-24(s0)
    802039f6:	3ac010ef          	jal	ra,80204da2 <is_directory>
    802039fa:	87aa                	mv	a5,a0
    802039fc:	2781                	sext.w	a5,a5
    802039fe:	cb81                	beqz	a5,80203a0e <append_to_file+0x92>
/home/caigoubencai/Desktop/os_c-ch6/kernel/fs/fat32/file/file.c:138
    80203a00:	0000d517          	auipc	a0,0xd
    80203a04:	7c850513          	addi	a0,a0,1992 # 802111c8 <MMIO+0x88>
    80203a08:	e2bfe0ef          	jal	ra,80202832 <printk>
/home/caigoubencai/Desktop/os_c-ch6/kernel/fs/fat32/file/file.c:139
    80203a0c:	a8cd                	j	80203afe <append_to_file+0x182>
/home/caigoubencai/Desktop/os_c-ch6/kernel/fs/fat32/file/file.c:143
    80203a0e:	fe843503          	ld	a0,-24(s0)
    80203a12:	53f000ef          	jal	ra,80204750 <get_file_or_dir_size>
    80203a16:	87aa                	mv	a5,a0
    80203a18:	2781                	sext.w	a5,a5
    80203a1a:	1782                	slli	a5,a5,0x20
    80203a1c:	9381                	srli	a5,a5,0x20
    80203a1e:	fef43023          	sd	a5,-32(s0)
/home/caigoubencai/Desktop/os_c-ch6/kernel/fs/fat32/file/file.c:144
    80203a22:	fe043503          	ld	a0,-32(s0)
    80203a26:	623060ef          	jal	ra,8020a848 <bd_malloc>
    80203a2a:	fca43c23          	sd	a0,-40(s0)
/home/caigoubencai/Desktop/os_c-ch6/kernel/fs/fat32/file/file.c:145
    80203a2e:	fd843783          	ld	a5,-40(s0)
    80203a32:	eb81                	bnez	a5,80203a42 <append_to_file+0xc6>
/home/caigoubencai/Desktop/os_c-ch6/kernel/fs/fat32/file/file.c:147
    80203a34:	0000e517          	auipc	a0,0xe
    80203a38:	80c50513          	addi	a0,a0,-2036 # 80211240 <MMIO+0x100>
    80203a3c:	df7fe0ef          	jal	ra,80202832 <printk>
/home/caigoubencai/Desktop/os_c-ch6/kernel/fs/fat32/file/file.c:148
    80203a40:	a87d                	j	80203afe <append_to_file+0x182>
/home/caigoubencai/Desktop/os_c-ch6/kernel/fs/fat32/file/file.c:150
    80203a42:	fd843583          	ld	a1,-40(s0)
    80203a46:	fc843503          	ld	a0,-56(s0)
    80203a4a:	b4dff0ef          	jal	ra,80203596 <read_file>
/home/caigoubencai/Desktop/os_c-ch6/kernel/fs/fat32/file/file.c:153
    80203a4e:	fe043703          	ld	a4,-32(s0)
    80203a52:	fb843783          	ld	a5,-72(s0)
    80203a56:	97ba                	add	a5,a5,a4
    80203a58:	853e                	mv	a0,a5
    80203a5a:	5ef060ef          	jal	ra,8020a848 <bd_malloc>
    80203a5e:	fca43823          	sd	a0,-48(s0)
/home/caigoubencai/Desktop/os_c-ch6/kernel/fs/fat32/file/file.c:154
    80203a62:	fd043783          	ld	a5,-48(s0)
    80203a66:	ef81                	bnez	a5,80203a7e <append_to_file+0x102>
/home/caigoubencai/Desktop/os_c-ch6/kernel/fs/fat32/file/file.c:156
    80203a68:	0000d517          	auipc	a0,0xd
    80203a6c:	7d850513          	addi	a0,a0,2008 # 80211240 <MMIO+0x100>
    80203a70:	dc3fe0ef          	jal	ra,80202832 <printk>
/home/caigoubencai/Desktop/os_c-ch6/kernel/fs/fat32/file/file.c:157
    80203a74:	fd843503          	ld	a0,-40(s0)
    80203a78:	7eb060ef          	jal	ra,8020aa62 <bd_free>
/home/caigoubencai/Desktop/os_c-ch6/kernel/fs/fat32/file/file.c:158
    80203a7c:	a049                	j	80203afe <append_to_file+0x182>
/home/caigoubencai/Desktop/os_c-ch6/kernel/fs/fat32/file/file.c:160
    80203a7e:	fe043783          	ld	a5,-32(s0)
    80203a82:	2781                	sext.w	a5,a5
    80203a84:	863e                	mv	a2,a5
    80203a86:	fd843583          	ld	a1,-40(s0)
    80203a8a:	fd043503          	ld	a0,-48(s0)
    80203a8e:	013040ef          	jal	ra,802082a0 <memcpy>
/home/caigoubencai/Desktop/os_c-ch6/kernel/fs/fat32/file/file.c:161
    80203a92:	fd043703          	ld	a4,-48(s0)
    80203a96:	fe043783          	ld	a5,-32(s0)
    80203a9a:	97ba                	add	a5,a5,a4
    80203a9c:	fb843703          	ld	a4,-72(s0)
    80203aa0:	2701                	sext.w	a4,a4
    80203aa2:	863a                	mv	a2,a4
    80203aa4:	fc043583          	ld	a1,-64(s0)
    80203aa8:	853e                	mv	a0,a5
    80203aaa:	7f6040ef          	jal	ra,802082a0 <memcpy>
/home/caigoubencai/Desktop/os_c-ch6/kernel/fs/fat32/file/file.c:164
    80203aae:	fe043703          	ld	a4,-32(s0)
    80203ab2:	fb843783          	ld	a5,-72(s0)
    80203ab6:	97ba                	add	a5,a5,a4
    80203ab8:	863e                	mv	a2,a5
    80203aba:	fd043583          	ld	a1,-48(s0)
    80203abe:	fc843503          	ld	a0,-56(s0)
    80203ac2:	c8bff0ef          	jal	ra,8020374c <over_write_file>
/home/caigoubencai/Desktop/os_c-ch6/kernel/fs/fat32/file/file.c:165
    80203ac6:	fe043783          	ld	a5,-32(s0)
    80203aca:	0007871b          	sext.w	a4,a5
    80203ace:	fb843783          	ld	a5,-72(s0)
    80203ad2:	2781                	sext.w	a5,a5
    80203ad4:	9fb9                	addw	a5,a5,a4
    80203ad6:	2781                	sext.w	a5,a5
    80203ad8:	85be                	mv	a1,a5
    80203ada:	fe843503          	ld	a0,-24(s0)
    80203ade:	0c2010ef          	jal	ra,80204ba0 <set_file_or_dir_size>
/home/caigoubencai/Desktop/os_c-ch6/kernel/fs/fat32/file/file.c:166
    80203ae2:	fe843583          	ld	a1,-24(s0)
    80203ae6:	fc843503          	ld	a0,-56(s0)
    80203aea:	5a5010ef          	jal	ra,8020588e <update_dir>
/home/caigoubencai/Desktop/os_c-ch6/kernel/fs/fat32/file/file.c:167
    80203aee:	fd843503          	ld	a0,-40(s0)
    80203af2:	771060ef          	jal	ra,8020aa62 <bd_free>
/home/caigoubencai/Desktop/os_c-ch6/kernel/fs/fat32/file/file.c:168
    80203af6:	fd043503          	ld	a0,-48(s0)
    80203afa:	769060ef          	jal	ra,8020aa62 <bd_free>
/home/caigoubencai/Desktop/os_c-ch6/kernel/fs/fat32/file/file.c:169
    80203afe:	70a6                	ld	ra,104(sp)
    80203b00:	7406                	ld	s0,96(sp)
    80203b02:	6165                	addi	sp,sp,112
    80203b04:	8082                	ret

0000000080203b06 <remove_file>:
remove_file():
/home/caigoubencai/Desktop/os_c-ch6/kernel/fs/fat32/file/file.c:173
    80203b06:	7171                	addi	sp,sp,-176
    80203b08:	f506                	sd	ra,168(sp)
    80203b0a:	f122                	sd	s0,160(sp)
    80203b0c:	ed26                	sd	s1,152(sp)
    80203b0e:	1900                	addi	s0,sp,176
    80203b10:	737d                	lui	t1,0xfffff
    80203b12:	911a                	add	sp,sp,t1
    80203b14:	77fd                	lui	a5,0xfffff
    80203b16:	fe040713          	addi	a4,s0,-32
    80203b1a:	97ba                	add	a5,a5,a4
    80203b1c:	f8a7bc23          	sd	a0,-104(a5) # ffffffffffffef98 <ebss+0xffffffff7f0b9f98>
/home/caigoubencai/Desktop/os_c-ch6/kernel/fs/fat32/file/file.c:174
    80203b20:	00027717          	auipc	a4,0x27
    80203b24:	64870713          	addi	a4,a4,1608 # 8022b168 <root_dir_entry>
    80203b28:	77fd                	lui	a5,0xfffff
    80203b2a:	fe040693          	addi	a3,s0,-32
    80203b2e:	97b6                	add	a5,a5,a3
    80203b30:	00072303          	lw	t1,0(a4)
    80203b34:	00472883          	lw	a7,4(a4)
    80203b38:	00872803          	lw	a6,8(a4)
    80203b3c:	4748                	lw	a0,12(a4)
    80203b3e:	4b0c                	lw	a1,16(a4)
    80203b40:	4b50                	lw	a2,20(a4)
    80203b42:	4f14                	lw	a3,24(a4)
    80203b44:	4f58                	lw	a4,28(a4)
    80203b46:	f667a823          	sw	t1,-144(a5) # ffffffffffffef70 <ebss+0xffffffff7f0b9f70>
    80203b4a:	f717aa23          	sw	a7,-140(a5)
    80203b4e:	f707ac23          	sw	a6,-136(a5)
    80203b52:	f6a7ae23          	sw	a0,-132(a5)
    80203b56:	f8b7a023          	sw	a1,-128(a5)
    80203b5a:	f8c7a223          	sw	a2,-124(a5)
    80203b5e:	f8d7a423          	sw	a3,-120(a5)
    80203b62:	f8e7a623          	sw	a4,-116(a5)
    80203b66:	77fd                	lui	a5,0xfffff
    80203b68:	f7078793          	addi	a5,a5,-144 # ffffffffffffef70 <ebss+0xffffffff7f0b9f70>
    80203b6c:	fe040713          	addi	a4,s0,-32
    80203b70:	973e                	add	a4,a4,a5
    80203b72:	77fd                	lui	a5,0xfffff
    80203b74:	fe040693          	addi	a3,s0,-32
    80203b78:	97b6                	add	a5,a5,a3
    80203b7a:	85ba                	mv	a1,a4
    80203b7c:	f987b503          	ld	a0,-104(a5) # ffffffffffffef98 <ebss+0xffffffff7f0b9f98>
    80203b80:	5dc010ef          	jal	ra,8020515c <find_directory_bfs>
    80203b84:	fca43823          	sd	a0,-48(s0)
/home/caigoubencai/Desktop/os_c-ch6/kernel/fs/fat32/file/file.c:175
    80203b88:	77fd                	lui	a5,0xfffff
    80203b8a:	fe040713          	addi	a4,s0,-32
    80203b8e:	97ba                	add	a5,a5,a4
    80203b90:	00027597          	auipc	a1,0x27
    80203b94:	5d858593          	addi	a1,a1,1496 # 8022b168 <root_dir_entry>
    80203b98:	f987b503          	ld	a0,-104(a5) # ffffffffffffef98 <ebss+0xffffffff7f0b9f98>
    80203b9c:	794010ef          	jal	ra,80205330 <find_parent_directory_bfs>
    80203ba0:	fca43423          	sd	a0,-56(s0)
/home/caigoubencai/Desktop/os_c-ch6/kernel/fs/fat32/file/file.c:176
    80203ba4:	fc843503          	ld	a0,-56(s0)
    80203ba8:	47f000ef          	jal	ra,80204826 <extract_cluster_number>
    80203bac:	87aa                	mv	a5,a0
    80203bae:	fcf42223          	sw	a5,-60(s0)
/home/caigoubencai/Desktop/os_c-ch6/kernel/fs/fat32/file/file.c:177
    80203bb2:	fd043503          	ld	a0,-48(s0)
    80203bb6:	121010ef          	jal	ra,802054d6 <dir_child_dir_num>
    80203bba:	87aa                	mv	a5,a0
    80203bbc:	fcf42023          	sw	a5,-64(s0)
/home/caigoubencai/Desktop/os_c-ch6/kernel/fs/fat32/file/file.c:178
    80203bc0:	fc042783          	lw	a5,-64(s0)
    80203bc4:	2781                	sext.w	a5,a5
    80203bc6:	cb81                	beqz	a5,80203bd6 <remove_file+0xd0>
/home/caigoubencai/Desktop/os_c-ch6/kernel/fs/fat32/file/file.c:180
    80203bc8:	0000d517          	auipc	a0,0xd
    80203bcc:	69850513          	addi	a0,a0,1688 # 80211260 <MMIO+0x120>
    80203bd0:	c63fe0ef          	jal	ra,80202832 <printk>
/home/caigoubencai/Desktop/os_c-ch6/kernel/fs/fat32/file/file.c:181
    80203bd4:	aa01                	j	80203ce4 <remove_file+0x1de>
/home/caigoubencai/Desktop/os_c-ch6/kernel/fs/fat32/file/file.c:186
    80203bd6:	fc843503          	ld	a0,-56(s0)
    80203bda:	44d000ef          	jal	ra,80204826 <extract_cluster_number>
    80203bde:	87aa                	mv	a5,a0
    80203be0:	faf42e23          	sw	a5,-68(s0)
/home/caigoubencai/Desktop/os_c-ch6/kernel/fs/fat32/file/file.c:188
    80203be4:	fbc46703          	lwu	a4,-68(s0)
    80203be8:	77fd                	lui	a5,0xfffff
    80203bea:	fc878793          	addi	a5,a5,-56 # ffffffffffffefc8 <ebss+0xffffffff7f0b9fc8>
    80203bee:	fe040693          	addi	a3,s0,-32
    80203bf2:	97b6                	add	a5,a5,a3
    80203bf4:	85be                	mv	a1,a5
    80203bf6:	853a                	mv	a0,a4
    80203bf8:	163020ef          	jal	ra,8020655a <read_by_cluster>
/home/caigoubencai/Desktop/os_c-ch6/kernel/fs/fat32/file/file.c:190
    80203bfc:	fc042e23          	sw	zero,-36(s0)
    80203c00:	a8d9                	j	80203cd6 <remove_file+0x1d0>
/home/caigoubencai/Desktop/os_c-ch6/kernel/fs/fat32/file/file.c:193
    80203c02:	fdc42783          	lw	a5,-36(s0)
    80203c06:	0796                	slli	a5,a5,0x5
    80203c08:	faf43823          	sd	a5,-80(s0)
/home/caigoubencai/Desktop/os_c-ch6/kernel/fs/fat32/file/file.c:195
    80203c0c:	77fd                	lui	a5,0xfffff
    80203c0e:	fc878793          	addi	a5,a5,-56 # ffffffffffffefc8 <ebss+0xffffffff7f0b9fc8>
    80203c12:	fe040713          	addi	a4,s0,-32
    80203c16:	973e                	add	a4,a4,a5
    80203c18:	fb043783          	ld	a5,-80(s0)
    80203c1c:	973e                	add	a4,a4,a5
    80203c1e:	77fd                	lui	a5,0xfffff
    80203c20:	fe040693          	addi	a3,s0,-32
    80203c24:	00f684b3          	add	s1,a3,a5
    80203c28:	77fd                	lui	a5,0xfffff
    80203c2a:	f7078793          	addi	a5,a5,-144 # ffffffffffffef70 <ebss+0xffffffff7f0b9f70>
    80203c2e:	fe040693          	addi	a3,s0,-32
    80203c32:	97b6                	add	a5,a5,a3
    80203c34:	85ba                	mv	a1,a4
    80203c36:	853e                	mv	a0,a5
    80203c38:	47d000ef          	jal	ra,802048b4 <parse_directory_entry>
    80203c3c:	77fd                	lui	a5,0xfffff
    80203c3e:	fe040713          	addi	a4,s0,-32
    80203c42:	97ba                	add	a5,a5,a4
    80203c44:	f707a883          	lw	a7,-144(a5) # ffffffffffffef70 <ebss+0xffffffff7f0b9f70>
    80203c48:	f747a803          	lw	a6,-140(a5)
    80203c4c:	f787a503          	lw	a0,-136(a5)
    80203c50:	f7c7a583          	lw	a1,-132(a5)
    80203c54:	f807a603          	lw	a2,-128(a5)
    80203c58:	f847a683          	lw	a3,-124(a5)
    80203c5c:	f887a703          	lw	a4,-120(a5)
    80203c60:	f8c7a783          	lw	a5,-116(a5)
    80203c64:	fb14a423          	sw	a7,-88(s1)
    80203c68:	fb04a623          	sw	a6,-84(s1)
    80203c6c:	faa4a823          	sw	a0,-80(s1)
    80203c70:	fab4aa23          	sw	a1,-76(s1)
    80203c74:	fac4ac23          	sw	a2,-72(s1)
    80203c78:	fad4ae23          	sw	a3,-68(s1)
    80203c7c:	fce4a023          	sw	a4,-64(s1)
    80203c80:	fcf4a223          	sw	a5,-60(s1)
/home/caigoubencai/Desktop/os_c-ch6/kernel/fs/fat32/file/file.c:196
    80203c84:	77fd                	lui	a5,0xfffff
    80203c86:	fe040713          	addi	a4,s0,-32
    80203c8a:	97ba                	add	a5,a5,a4
    80203c8c:	777d                	lui	a4,0xfffff
    80203c8e:	fa870713          	addi	a4,a4,-88 # ffffffffffffefa8 <ebss+0xffffffff7f0b9fa8>
    80203c92:	fe040693          	addi	a3,s0,-32
    80203c96:	9736                	add	a4,a4,a3
    80203c98:	f987b583          	ld	a1,-104(a5) # ffffffffffffef98 <ebss+0xffffffff7f0b9f98>
    80203c9c:	853a                	mv	a0,a4
    80203c9e:	3e1000ef          	jal	ra,8020487e <compare_dir_entry_name>
    80203ca2:	87aa                	mv	a5,a0
    80203ca4:	873e                	mv	a4,a5
    80203ca6:	4785                	li	a5,1
    80203ca8:	02f71263          	bne	a4,a5,80203ccc <remove_file+0x1c6>
/home/caigoubencai/Desktop/os_c-ch6/kernel/fs/fat32/file/file.c:199
    80203cac:	4795                	li	a5,5
    80203cae:	faf407a3          	sb	a5,-81(s0)
/home/caigoubencai/Desktop/os_c-ch6/kernel/fs/fat32/file/file.c:200
    80203cb2:	fbc46703          	lwu	a4,-68(s0)
    80203cb6:	fb043783          	ld	a5,-80(s0)
    80203cba:	07ad                	addi	a5,a5,11
    80203cbc:	faf40693          	addi	a3,s0,-81
    80203cc0:	4605                	li	a2,1
    80203cc2:	85be                	mv	a1,a5
    80203cc4:	853a                	mv	a0,a4
    80203cc6:	389020ef          	jal	ra,8020684e <write_by_byte_cluser>
    80203cca:	a829                	j	80203ce4 <remove_file+0x1de>
/home/caigoubencai/Desktop/os_c-ch6/kernel/fs/fat32/file/file.c:190
    80203ccc:	fdc42783          	lw	a5,-36(s0)
    80203cd0:	2785                	addiw	a5,a5,1
    80203cd2:	fcf42e23          	sw	a5,-36(s0)
/home/caigoubencai/Desktop/os_c-ch6/kernel/fs/fat32/file/file.c:190 (discriminator 1)
    80203cd6:	fdc42783          	lw	a5,-36(s0)
    80203cda:	873e                	mv	a4,a5
    80203cdc:	07f00793          	li	a5,127
    80203ce0:	f2e7f1e3          	bgeu	a5,a4,80203c02 <remove_file+0xfc>
/home/caigoubencai/Desktop/os_c-ch6/kernel/fs/fat32/file/file.c:205
    80203ce4:	6305                	lui	t1,0x1
    80203ce6:	911a                	add	sp,sp,t1
    80203ce8:	70aa                	ld	ra,168(sp)
    80203cea:	740a                	ld	s0,160(sp)
    80203cec:	64ea                	ld	s1,152(sp)
    80203cee:	614d                	addi	sp,sp,176
    80203cf0:	8082                	ret

0000000080203cf2 <rename_file_or_dir>:
rename_file_or_dir():
/home/caigoubencai/Desktop/os_c-ch6/kernel/fs/fat32/file/file.c:208
    80203cf2:	7175                	addi	sp,sp,-144
    80203cf4:	e506                	sd	ra,136(sp)
    80203cf6:	e122                	sd	s0,128(sp)
    80203cf8:	0900                	addi	s0,sp,144
    80203cfa:	737d                	lui	t1,0xfffff
    80203cfc:	911a                	add	sp,sp,t1
    80203cfe:	77fd                	lui	a5,0xfffff
    80203d00:	ff040713          	addi	a4,s0,-16
    80203d04:	97ba                	add	a5,a5,a4
    80203d06:	faa7b423          	sd	a0,-88(a5) # ffffffffffffefa8 <ebss+0xffffffff7f0b9fa8>
    80203d0a:	77fd                	lui	a5,0xfffff
    80203d0c:	ff040713          	addi	a4,s0,-16
    80203d10:	97ba                	add	a5,a5,a4
    80203d12:	fab7b023          	sd	a1,-96(a5) # ffffffffffffefa0 <ebss+0xffffffff7f0b9fa0>
/home/caigoubencai/Desktop/os_c-ch6/kernel/fs/fat32/file/file.c:209
    80203d16:	00027717          	auipc	a4,0x27
    80203d1a:	45270713          	addi	a4,a4,1106 # 8022b168 <root_dir_entry>
    80203d1e:	77fd                	lui	a5,0xfffff
    80203d20:	ff040693          	addi	a3,s0,-16
    80203d24:	97b6                	add	a5,a5,a3
    80203d26:	00072303          	lw	t1,0(a4)
    80203d2a:	00472883          	lw	a7,4(a4)
    80203d2e:	00872803          	lw	a6,8(a4)
    80203d32:	4748                	lw	a0,12(a4)
    80203d34:	4b0c                	lw	a1,16(a4)
    80203d36:	4b50                	lw	a2,20(a4)
    80203d38:	4f14                	lw	a3,24(a4)
    80203d3a:	4f58                	lw	a4,28(a4)
    80203d3c:	f867a023          	sw	t1,-128(a5) # ffffffffffffef80 <ebss+0xffffffff7f0b9f80>
    80203d40:	f917a223          	sw	a7,-124(a5)
    80203d44:	f907a423          	sw	a6,-120(a5)
    80203d48:	f8a7a623          	sw	a0,-116(a5)
    80203d4c:	f8b7a823          	sw	a1,-112(a5)
    80203d50:	f8c7aa23          	sw	a2,-108(a5)
    80203d54:	f8d7ac23          	sw	a3,-104(a5)
    80203d58:	f8e7ae23          	sw	a4,-100(a5)
    80203d5c:	77fd                	lui	a5,0xfffff
    80203d5e:	f8078793          	addi	a5,a5,-128 # ffffffffffffef80 <ebss+0xffffffff7f0b9f80>
    80203d62:	ff040713          	addi	a4,s0,-16
    80203d66:	973e                	add	a4,a4,a5
    80203d68:	77fd                	lui	a5,0xfffff
    80203d6a:	ff040693          	addi	a3,s0,-16
    80203d6e:	97b6                	add	a5,a5,a3
    80203d70:	85ba                	mv	a1,a4
    80203d72:	fa87b503          	ld	a0,-88(a5) # ffffffffffffefa8 <ebss+0xffffffff7f0b9fa8>
    80203d76:	3e6010ef          	jal	ra,8020515c <find_directory_bfs>
    80203d7a:	fea43023          	sd	a0,-32(s0)
/home/caigoubencai/Desktop/os_c-ch6/kernel/fs/fat32/file/file.c:210
    80203d7e:	77fd                	lui	a5,0xfffff
    80203d80:	ff040713          	addi	a4,s0,-16
    80203d84:	97ba                	add	a5,a5,a4
    80203d86:	00027597          	auipc	a1,0x27
    80203d8a:	3e258593          	addi	a1,a1,994 # 8022b168 <root_dir_entry>
    80203d8e:	fa87b503          	ld	a0,-88(a5) # ffffffffffffefa8 <ebss+0xffffffff7f0b9fa8>
    80203d92:	59e010ef          	jal	ra,80205330 <find_parent_directory_bfs>
    80203d96:	fca43c23          	sd	a0,-40(s0)
/home/caigoubencai/Desktop/os_c-ch6/kernel/fs/fat32/file/file.c:211
    80203d9a:	fd843503          	ld	a0,-40(s0)
    80203d9e:	289000ef          	jal	ra,80204826 <extract_cluster_number>
    80203da2:	87aa                	mv	a5,a0
    80203da4:	fcf42a23          	sw	a5,-44(s0)
/home/caigoubencai/Desktop/os_c-ch6/kernel/fs/fat32/file/file.c:213
    80203da8:	fd446703          	lwu	a4,-44(s0)
    80203dac:	77fd                	lui	a5,0xfffff
    80203dae:	fd878793          	addi	a5,a5,-40 # ffffffffffffefd8 <ebss+0xffffffff7f0b9fd8>
    80203db2:	ff040693          	addi	a3,s0,-16
    80203db6:	97b6                	add	a5,a5,a3
    80203db8:	85be                	mv	a1,a5
    80203dba:	853a                	mv	a0,a4
    80203dbc:	79e020ef          	jal	ra,8020655a <read_by_cluster>
/home/caigoubencai/Desktop/os_c-ch6/kernel/fs/fat32/file/file.c:215
    80203dc0:	fe042623          	sw	zero,-20(s0)
    80203dc4:	a8d1                	j	80203e98 <rename_file_or_dir+0x1a6>
/home/caigoubencai/Desktop/os_c-ch6/kernel/fs/fat32/file/file.c:218
    80203dc6:	fec42783          	lw	a5,-20(s0)
    80203dca:	0796                	slli	a5,a5,0x5
    80203dcc:	fcf43423          	sd	a5,-56(s0)
/home/caigoubencai/Desktop/os_c-ch6/kernel/fs/fat32/file/file.c:219
    80203dd0:	77fd                	lui	a5,0xfffff
    80203dd2:	fd878793          	addi	a5,a5,-40 # ffffffffffffefd8 <ebss+0xffffffff7f0b9fd8>
    80203dd6:	ff040713          	addi	a4,s0,-16
    80203dda:	973e                	add	a4,a4,a5
    80203ddc:	fc843783          	ld	a5,-56(s0)
    80203de0:	973e                	add	a4,a4,a5
    80203de2:	77fd                	lui	a5,0xfffff
    80203de4:	ff040693          	addi	a3,s0,-16
    80203de8:	97b6                	add	a5,a5,a3
    80203dea:	fb878793          	addi	a5,a5,-72 # ffffffffffffefb8 <ebss+0xffffffff7f0b9fb8>
    80203dee:	85ba                	mv	a1,a4
    80203df0:	853e                	mv	a0,a5
    80203df2:	2c3000ef          	jal	ra,802048b4 <parse_directory_entry>
/home/caigoubencai/Desktop/os_c-ch6/kernel/fs/fat32/file/file.c:220
    80203df6:	77fd                	lui	a5,0xfffff
    80203df8:	ff040713          	addi	a4,s0,-16
    80203dfc:	97ba                	add	a5,a5,a4
    80203dfe:	777d                	lui	a4,0xfffff
    80203e00:	fb870713          	addi	a4,a4,-72 # ffffffffffffefb8 <ebss+0xffffffff7f0b9fb8>
    80203e04:	ff040693          	addi	a3,s0,-16
    80203e08:	9736                	add	a4,a4,a3
    80203e0a:	fa87b583          	ld	a1,-88(a5) # ffffffffffffefa8 <ebss+0xffffffff7f0b9fa8>
    80203e0e:	853a                	mv	a0,a4
    80203e10:	26f000ef          	jal	ra,8020487e <compare_dir_entry_name>
    80203e14:	87aa                	mv	a5,a0
    80203e16:	873e                	mv	a4,a5
    80203e18:	4785                	li	a5,1
    80203e1a:	06f71a63          	bne	a4,a5,80203e8e <rename_file_or_dir+0x19c>
/home/caigoubencai/Desktop/os_c-ch6/kernel/fs/fat32/file/file.c:223
    80203e1e:	77fd                	lui	a5,0xfffff
    80203e20:	fb878793          	addi	a5,a5,-72 # ffffffffffffefb8 <ebss+0xffffffff7f0b9fb8>
    80203e24:	ff040713          	addi	a4,s0,-16
    80203e28:	97ba                	add	a5,a5,a4
    80203e2a:	462d                	li	a2,11
    80203e2c:	02000593          	li	a1,32
    80203e30:	853e                	mv	a0,a5
    80203e32:	4bc040ef          	jal	ra,802082ee <memset>
/home/caigoubencai/Desktop/os_c-ch6/kernel/fs/fat32/file/file.c:224
    80203e36:	77fd                	lui	a5,0xfffff
    80203e38:	ff040713          	addi	a4,s0,-16
    80203e3c:	97ba                	add	a5,a5,a4
    80203e3e:	fa07b503          	ld	a0,-96(a5) # ffffffffffffefa0 <ebss+0xffffffff7f0b9fa0>
    80203e42:	694040ef          	jal	ra,802084d6 <strlen>
    80203e46:	87aa                	mv	a5,a0
    80203e48:	0007869b          	sext.w	a3,a5
    80203e4c:	77fd                	lui	a5,0xfffff
    80203e4e:	ff040713          	addi	a4,s0,-16
    80203e52:	97ba                	add	a5,a5,a4
    80203e54:	777d                	lui	a4,0xfffff
    80203e56:	fb870713          	addi	a4,a4,-72 # ffffffffffffefb8 <ebss+0xffffffff7f0b9fb8>
    80203e5a:	ff040613          	addi	a2,s0,-16
    80203e5e:	9732                	add	a4,a4,a2
    80203e60:	8636                	mv	a2,a3
    80203e62:	fa07b583          	ld	a1,-96(a5) # ffffffffffffefa0 <ebss+0xffffffff7f0b9fa0>
    80203e66:	853a                	mv	a0,a4
    80203e68:	438040ef          	jal	ra,802082a0 <memcpy>
/home/caigoubencai/Desktop/os_c-ch6/kernel/fs/fat32/file/file.c:225
    80203e6c:	fd446703          	lwu	a4,-44(s0)
    80203e70:	77fd                	lui	a5,0xfffff
    80203e72:	fb878793          	addi	a5,a5,-72 # ffffffffffffefb8 <ebss+0xffffffff7f0b9fb8>
    80203e76:	ff040693          	addi	a3,s0,-16
    80203e7a:	97b6                	add	a5,a5,a3
    80203e7c:	86be                	mv	a3,a5
    80203e7e:	02000613          	li	a2,32
    80203e82:	fc843583          	ld	a1,-56(s0)
    80203e86:	853a                	mv	a0,a4
    80203e88:	1c7020ef          	jal	ra,8020684e <write_by_byte_cluser>
    80203e8c:	a829                	j	80203ea6 <rename_file_or_dir+0x1b4>
/home/caigoubencai/Desktop/os_c-ch6/kernel/fs/fat32/file/file.c:215
    80203e8e:	fec42783          	lw	a5,-20(s0)
    80203e92:	2785                	addiw	a5,a5,1
    80203e94:	fef42623          	sw	a5,-20(s0)
/home/caigoubencai/Desktop/os_c-ch6/kernel/fs/fat32/file/file.c:215 (discriminator 1)
    80203e98:	fec42783          	lw	a5,-20(s0)
    80203e9c:	873e                	mv	a4,a5
    80203e9e:	07f00793          	li	a5,127
    80203ea2:	f2e7f2e3          	bgeu	a5,a4,80203dc6 <rename_file_or_dir+0xd4>
/home/caigoubencai/Desktop/os_c-ch6/kernel/fs/fat32/file/file.c:229
    80203ea6:	6305                	lui	t1,0x1
    80203ea8:	911a                	add	sp,sp,t1
    80203eaa:	60aa                	ld	ra,136(sp)
    80203eac:	640a                	ld	s0,128(sp)
    80203eae:	6149                	addi	sp,sp,144
    80203eb0:	8082                	ret

0000000080203eb2 <read_file_by_byte>:
read_file_by_byte():
/home/caigoubencai/Desktop/os_c-ch6/kernel/fs/fat32/file/file.c:232
    80203eb2:	7139                	addi	sp,sp,-64
    80203eb4:	fc06                	sd	ra,56(sp)
    80203eb6:	f822                	sd	s0,48(sp)
    80203eb8:	0080                	addi	s0,sp,64
    80203eba:	fca43c23          	sd	a0,-40(s0)
    80203ebe:	87ae                	mv	a5,a1
    80203ec0:	fcc43423          	sd	a2,-56(s0)
    80203ec4:	fcd43023          	sd	a3,-64(s0)
    80203ec8:	fcf42a23          	sw	a5,-44(s0)
/home/caigoubencai/Desktop/os_c-ch6/kernel/fs/fat32/file/file.c:233
    80203ecc:	fd843783          	ld	a5,-40(s0)
    80203ed0:	c781                	beqz	a5,80203ed8 <read_file_by_byte+0x26>
/home/caigoubencai/Desktop/os_c-ch6/kernel/fs/fat32/file/file.c:233 (discriminator 1)
    80203ed2:	fc843783          	ld	a5,-56(s0)
    80203ed6:	ef89                	bnez	a5,80203ef0 <read_file_by_byte+0x3e>
/home/caigoubencai/Desktop/os_c-ch6/kernel/fs/fat32/file/file.c:234 (discriminator 1)
    80203ed8:	0000d617          	auipc	a2,0xd
    80203edc:	27860613          	addi	a2,a2,632 # 80211150 <MMIO+0x10>
    80203ee0:	0ea00593          	li	a1,234
    80203ee4:	0000d517          	auipc	a0,0xd
    80203ee8:	28450513          	addi	a0,a0,644 # 80211168 <MMIO+0x28>
    80203eec:	181070ef          	jal	ra,8020b86c <_panic>
/home/caigoubencai/Desktop/os_c-ch6/kernel/fs/fat32/file/file.c:235
    80203ef0:	fd843503          	ld	a0,-40(s0)
    80203ef4:	133000ef          	jal	ra,80204826 <extract_cluster_number>
    80203ef8:	87aa                	mv	a5,a0
    80203efa:	fef42623          	sw	a5,-20(s0)
/home/caigoubencai/Desktop/os_c-ch6/kernel/fs/fat32/file/file.c:236
    80203efe:	fd843503          	ld	a0,-40(s0)
    80203f02:	04f000ef          	jal	ra,80204750 <get_file_or_dir_size>
    80203f06:	87aa                	mv	a5,a0
    80203f08:	fef42423          	sw	a5,-24(s0)
/home/caigoubencai/Desktop/os_c-ch6/kernel/fs/fat32/file/file.c:237
    80203f0c:	fe846783          	lwu	a5,-24(s0)
    80203f10:	853e                	mv	a0,a5
    80203f12:	137060ef          	jal	ra,8020a848 <bd_malloc>
    80203f16:	fea43023          	sd	a0,-32(s0)
/home/caigoubencai/Desktop/os_c-ch6/kernel/fs/fat32/file/file.c:238
    80203f1a:	fd843783          	ld	a5,-40(s0)
    80203f1e:	fe043583          	ld	a1,-32(s0)
    80203f22:	853e                	mv	a0,a5
    80203f24:	e72ff0ef          	jal	ra,80203596 <read_file>
/home/caigoubencai/Desktop/os_c-ch6/kernel/fs/fat32/file/file.c:239
    80203f28:	fd446783          	lwu	a5,-44(s0)
    80203f2c:	fe043703          	ld	a4,-32(s0)
    80203f30:	97ba                	add	a5,a5,a4
    80203f32:	fc043703          	ld	a4,-64(s0)
    80203f36:	2701                	sext.w	a4,a4
    80203f38:	863a                	mv	a2,a4
    80203f3a:	85be                	mv	a1,a5
    80203f3c:	fc843503          	ld	a0,-56(s0)
    80203f40:	360040ef          	jal	ra,802082a0 <memcpy>
/home/caigoubencai/Desktop/os_c-ch6/kernel/fs/fat32/file/file.c:240
    80203f44:	0001                	nop
    80203f46:	70e2                	ld	ra,56(sp)
    80203f48:	7442                	ld	s0,48(sp)
    80203f4a:	6121                	addi	sp,sp,64
    80203f4c:	8082                	ret

0000000080203f4e <write_file_by_byte>:
write_file_by_byte():
/home/caigoubencai/Desktop/os_c-ch6/kernel/fs/fat32/file/file.c:243
    80203f4e:	7139                	addi	sp,sp,-64
    80203f50:	fc06                	sd	ra,56(sp)
    80203f52:	f822                	sd	s0,48(sp)
    80203f54:	0080                	addi	s0,sp,64
    80203f56:	fca43c23          	sd	a0,-40(s0)
    80203f5a:	87ae                	mv	a5,a1
    80203f5c:	fcc43423          	sd	a2,-56(s0)
    80203f60:	fcd43023          	sd	a3,-64(s0)
    80203f64:	fcf42a23          	sw	a5,-44(s0)
/home/caigoubencai/Desktop/os_c-ch6/kernel/fs/fat32/file/file.c:244
    80203f68:	fd843783          	ld	a5,-40(s0)
    80203f6c:	c781                	beqz	a5,80203f74 <write_file_by_byte+0x26>
/home/caigoubencai/Desktop/os_c-ch6/kernel/fs/fat32/file/file.c:244 (discriminator 1)
    80203f6e:	fc843783          	ld	a5,-56(s0)
    80203f72:	ef89                	bnez	a5,80203f8c <write_file_by_byte+0x3e>
/home/caigoubencai/Desktop/os_c-ch6/kernel/fs/fat32/file/file.c:245 (discriminator 1)
    80203f74:	0000d617          	auipc	a2,0xd
    80203f78:	1dc60613          	addi	a2,a2,476 # 80211150 <MMIO+0x10>
    80203f7c:	0f500593          	li	a1,245
    80203f80:	0000d517          	auipc	a0,0xd
    80203f84:	1e850513          	addi	a0,a0,488 # 80211168 <MMIO+0x28>
    80203f88:	0e5070ef          	jal	ra,8020b86c <_panic>
/home/caigoubencai/Desktop/os_c-ch6/kernel/fs/fat32/file/file.c:246
    80203f8c:	fd843503          	ld	a0,-40(s0)
    80203f90:	097000ef          	jal	ra,80204826 <extract_cluster_number>
    80203f94:	87aa                	mv	a5,a0
    80203f96:	fef42623          	sw	a5,-20(s0)
/home/caigoubencai/Desktop/os_c-ch6/kernel/fs/fat32/file/file.c:247
    80203f9a:	fd843503          	ld	a0,-40(s0)
    80203f9e:	7b2000ef          	jal	ra,80204750 <get_file_or_dir_size>
    80203fa2:	87aa                	mv	a5,a0
    80203fa4:	fef42423          	sw	a5,-24(s0)
/home/caigoubencai/Desktop/os_c-ch6/kernel/fs/fat32/file/file.c:248
    80203fa8:	0001                	nop
    80203faa:	70e2                	ld	ra,56(sp)
    80203fac:	7442                	ld	s0,48(sp)
    80203fae:	6121                	addi	sp,sp,64
    80203fb0:	8082                	ret

0000000080203fb2 <find_dir_by_path>:
find_dir_by_path():
/home/caigoubencai/Desktop/os_c-ch6/kernel/fs/fat32/file/file.c:251
    80203fb2:	b3010113          	addi	sp,sp,-1232
    80203fb6:	4c113423          	sd	ra,1224(sp)
    80203fba:	4c813023          	sd	s0,1216(sp)
    80203fbe:	4d010413          	addi	s0,sp,1232
    80203fc2:	b2a43c23          	sd	a0,-1224(s0)
/home/caigoubencai/Desktop/os_c-ch6/kernel/fs/fat32/file/file.c:253
    80203fc6:	f4040793          	addi	a5,s0,-192
    80203fca:	85be                	mv	a1,a5
    80203fcc:	b3843503          	ld	a0,-1224(s0)
    80203fd0:	57d020ef          	jal	ra,80206d4c <parse_path>
/home/caigoubencai/Desktop/os_c-ch6/kernel/fs/fat32/file/file.c:254
    80203fd4:	b4043023          	sd	zero,-1216(s0)
    80203fd8:	b4840793          	addi	a5,s0,-1208
    80203fdc:	3f800713          	li	a4,1016
    80203fe0:	863a                	mv	a2,a4
    80203fe2:	4581                	li	a1,0
    80203fe4:	853e                	mv	a0,a5
    80203fe6:	308040ef          	jal	ra,802082ee <memset>
/home/caigoubencai/Desktop/os_c-ch6/kernel/fs/fat32/file/file.c:255
    80203fea:	f4040793          	addi	a5,s0,-192
    80203fee:	00027597          	auipc	a1,0x27
    80203ff2:	17a58593          	addi	a1,a1,378 # 8022b168 <root_dir_entry>
    80203ff6:	853e                	mv	a0,a5
    80203ff8:	720040ef          	jal	ra,80208718 <strcmp>
    80203ffc:	87aa                	mv	a5,a0
    80203ffe:	c3d9                	beqz	a5,80204084 <find_dir_by_path+0xd2>
/home/caigoubencai/Desktop/os_c-ch6/kernel/fs/fat32/file/file.c:257
    80204000:	6c8080ef          	jal	ra,8020c6c8 <processor_current_task>
    80204004:	87aa                	mv	a5,a0
    80204006:	19078793          	addi	a5,a5,400
    8020400a:	fcf43c23          	sd	a5,-40(s0)
/home/caigoubencai/Desktop/os_c-ch6/kernel/fs/fat32/file/file.c:258
    8020400e:	b4040793          	addi	a5,s0,-1216
    80204012:	3ff00613          	li	a2,1023
    80204016:	fd843583          	ld	a1,-40(s0)
    8020401a:	853e                	mv	a0,a5
    8020401c:	4f4040ef          	jal	ra,80208510 <strncpy>
/home/caigoubencai/Desktop/os_c-ch6/kernel/fs/fat32/file/file.c:259
    80204020:	f2040fa3          	sb	zero,-193(s0)
/home/caigoubencai/Desktop/os_c-ch6/kernel/fs/fat32/file/file.c:260
    80204024:	b4040793          	addi	a5,s0,-1216
    80204028:	853e                	mv	a0,a5
    8020402a:	4ac040ef          	jal	ra,802084d6 <strlen>
    8020402e:	fca43823          	sd	a0,-48(s0)
/home/caigoubencai/Desktop/os_c-ch6/kernel/fs/fat32/file/file.c:261
    80204032:	fd043703          	ld	a4,-48(s0)
    80204036:	3fe00793          	li	a5,1022
    8020403a:	02e7e363          	bltu	a5,a4,80204060 <find_dir_by_path+0xae>
/home/caigoubencai/Desktop/os_c-ch6/kernel/fs/fat32/file/file.c:263
    8020403e:	fd043783          	ld	a5,-48(s0)
    80204042:	ff040713          	addi	a4,s0,-16
    80204046:	97ba                	add	a5,a5,a4
    80204048:	05c00713          	li	a4,92
    8020404c:	b4e78823          	sb	a4,-1200(a5)
/home/caigoubencai/Desktop/os_c-ch6/kernel/fs/fat32/file/file.c:264
    80204050:	fd043783          	ld	a5,-48(s0)
    80204054:	0785                	addi	a5,a5,1
    80204056:	ff040713          	addi	a4,s0,-16
    8020405a:	97ba                	add	a5,a5,a4
    8020405c:	b4078823          	sb	zero,-1200(a5)
/home/caigoubencai/Desktop/os_c-ch6/kernel/fs/fat32/file/file.c:266
    80204060:	b4040793          	addi	a5,s0,-1216
    80204064:	853e                	mv	a0,a5
    80204066:	470040ef          	jal	ra,802084d6 <strlen>
    8020406a:	872a                	mv	a4,a0
    8020406c:	3ff00793          	li	a5,1023
    80204070:	40e78733          	sub	a4,a5,a4
    80204074:	b4040793          	addi	a5,s0,-1216
    80204078:	863a                	mv	a2,a4
    8020407a:	b3843583          	ld	a1,-1224(s0)
    8020407e:	853e                	mv	a0,a5
    80204080:	60c040ef          	jal	ra,8020868c <strncat>
/home/caigoubencai/Desktop/os_c-ch6/kernel/fs/fat32/file/file.c:268
    80204084:	f4040713          	addi	a4,s0,-192
    80204088:	b4040793          	addi	a5,s0,-1216
    8020408c:	85ba                	mv	a1,a4
    8020408e:	853e                	mv	a0,a5
    80204090:	4bd020ef          	jal	ra,80206d4c <parse_path>
/home/caigoubencai/Desktop/os_c-ch6/kernel/fs/fat32/file/file.c:269
    80204094:	f4040793          	addi	a5,s0,-192
    80204098:	853e                	mv	a0,a5
    8020409a:	ba3fe0ef          	jal	ra,80202c3c <count_valid_components>
    8020409e:	87aa                	mv	a5,a0
    802040a0:	fcf42623          	sw	a5,-52(s0)
/home/caigoubencai/Desktop/os_c-ch6/kernel/fs/fat32/file/file.c:270
    802040a4:	00027797          	auipc	a5,0x27
    802040a8:	0c478793          	addi	a5,a5,196 # 8022b168 <root_dir_entry>
    802040ac:	fef43423          	sd	a5,-24(s0)
/home/caigoubencai/Desktop/os_c-ch6/kernel/fs/fat32/file/file.c:271
    802040b0:	fe042223          	sw	zero,-28(s0)
    802040b4:	a8a1                	j	8020410c <find_dir_by_path+0x15a>
/home/caigoubencai/Desktop/os_c-ch6/kernel/fs/fat32/file/file.c:273
    802040b6:	f4040693          	addi	a3,s0,-192
    802040ba:	fe442703          	lw	a4,-28(s0)
    802040be:	87ba                	mv	a5,a4
    802040c0:	0786                	slli	a5,a5,0x1
    802040c2:	97ba                	add	a5,a5,a4
    802040c4:	078a                	slli	a5,a5,0x2
    802040c6:	97b6                	add	a5,a5,a3
    802040c8:	fcf43023          	sd	a5,-64(s0)
/home/caigoubencai/Desktop/os_c-ch6/kernel/fs/fat32/file/file.c:274
    802040cc:	fe442783          	lw	a5,-28(s0)
    802040d0:	2785                	addiw	a5,a5,1
    802040d2:	0007871b          	sext.w	a4,a5
    802040d6:	f4040693          	addi	a3,s0,-192
    802040da:	87ba                	mv	a5,a4
    802040dc:	0786                	slli	a5,a5,0x1
    802040de:	97ba                	add	a5,a5,a4
    802040e0:	078a                	slli	a5,a5,0x2
    802040e2:	97b6                	add	a5,a5,a3
    802040e4:	faf43c23          	sd	a5,-72(s0)
/home/caigoubencai/Desktop/os_c-ch6/kernel/fs/fat32/file/file.c:275
    802040e8:	fb843583          	ld	a1,-72(s0)
    802040ec:	fe843503          	ld	a0,-24(s0)
    802040f0:	0ad000ef          	jal	ra,8020499c <find_dir_entry>
    802040f4:	fea43423          	sd	a0,-24(s0)
/home/caigoubencai/Desktop/os_c-ch6/kernel/fs/fat32/file/file.c:276
    802040f8:	fe843783          	ld	a5,-24(s0)
    802040fc:	e399                	bnez	a5,80204102 <find_dir_by_path+0x150>
/home/caigoubencai/Desktop/os_c-ch6/kernel/fs/fat32/file/file.c:277
    802040fe:	4781                	li	a5,0
    80204100:	a00d                	j	80204122 <find_dir_by_path+0x170>
/home/caigoubencai/Desktop/os_c-ch6/kernel/fs/fat32/file/file.c:271 (discriminator 2)
    80204102:	fe442783          	lw	a5,-28(s0)
    80204106:	2785                	addiw	a5,a5,1
    80204108:	fef42223          	sw	a5,-28(s0)
/home/caigoubencai/Desktop/os_c-ch6/kernel/fs/fat32/file/file.c:271 (discriminator 1)
    8020410c:	fcc42783          	lw	a5,-52(s0)
    80204110:	37fd                	addiw	a5,a5,-1
    80204112:	0007871b          	sext.w	a4,a5
    80204116:	fe442783          	lw	a5,-28(s0)
    8020411a:	f8e7eee3          	bltu	a5,a4,802040b6 <find_dir_by_path+0x104>
/home/caigoubencai/Desktop/os_c-ch6/kernel/fs/fat32/file/file.c:279
    8020411e:	fe843783          	ld	a5,-24(s0)
/home/caigoubencai/Desktop/os_c-ch6/kernel/fs/fat32/file/file.c:280 (discriminator 1)
    80204122:	853e                	mv	a0,a5
    80204124:	4c813083          	ld	ra,1224(sp)
    80204128:	4c013403          	ld	s0,1216(sp)
    8020412c:	4d010113          	addi	sp,sp,1232
    80204130:	8082                	ret

0000000080204132 <create_file_or_dir_by_path>:
create_file_or_dir_by_path():
/home/caigoubencai/Desktop/os_c-ch6/kernel/fs/fat32/file/file.c:283
    80204132:	7155                	addi	sp,sp,-208
    80204134:	e586                	sd	ra,200(sp)
    80204136:	e1a2                	sd	s0,192(sp)
    80204138:	0980                	addi	s0,sp,208
    8020413a:	f2a43c23          	sd	a0,-200(s0)
    8020413e:	87ae                	mv	a5,a1
    80204140:	f2f42a23          	sw	a5,-204(s0)
/home/caigoubencai/Desktop/os_c-ch6/kernel/fs/fat32/file/file.c:285
    80204144:	f6040793          	addi	a5,s0,-160
    80204148:	85be                	mv	a1,a5
    8020414a:	f3843503          	ld	a0,-200(s0)
    8020414e:	3ff020ef          	jal	ra,80206d4c <parse_path>
/home/caigoubencai/Desktop/os_c-ch6/kernel/fs/fat32/file/file.c:286
    80204152:	f3843503          	ld	a0,-200(s0)
    80204156:	e5dff0ef          	jal	ra,80203fb2 <find_dir_by_path>
    8020415a:	fea43423          	sd	a0,-24(s0)
/home/caigoubencai/Desktop/os_c-ch6/kernel/fs/fat32/file/file.c:287
    8020415e:	fe843783          	ld	a5,-24(s0)
    80204162:	c781                	beqz	a5,8020416a <create_file_or_dir_by_path+0x38>
/home/caigoubencai/Desktop/os_c-ch6/kernel/fs/fat32/file/file.c:288
    80204164:	fe843783          	ld	a5,-24(s0)
    80204168:	a835                	j	802041a4 <create_file_or_dir_by_path+0x72>
/home/caigoubencai/Desktop/os_c-ch6/kernel/fs/fat32/file/file.c:289
    8020416a:	f3843503          	ld	a0,-200(s0)
    8020416e:	577020ef          	jal	ra,80206ee4 <get_last_path_component>
    80204172:	fea43023          	sd	a0,-32(s0)
/home/caigoubencai/Desktop/os_c-ch6/kernel/fs/fat32/file/file.c:290
    80204176:	f3843503          	ld	a0,-200(s0)
    8020417a:	4d9020ef          	jal	ra,80206e52 <remove_last_path_component>
/home/caigoubencai/Desktop/os_c-ch6/kernel/fs/fat32/file/file.c:291
    8020417e:	f3843503          	ld	a0,-200(s0)
    80204182:	e31ff0ef          	jal	ra,80203fb2 <find_dir_by_path>
    80204186:	fca43c23          	sd	a0,-40(s0)
/home/caigoubencai/Desktop/os_c-ch6/kernel/fs/fat32/file/file.c:292
    8020418a:	f3446703          	lwu	a4,-204(s0)
    8020418e:	f4040793          	addi	a5,s0,-192
    80204192:	fd843683          	ld	a3,-40(s0)
    80204196:	863a                	mv	a2,a4
    80204198:	fe043583          	ld	a1,-32(s0)
    8020419c:	853e                	mv	a0,a5
    8020419e:	71b000ef          	jal	ra,802050b8 <add_file_or_dir_to_parent_directory>
/home/caigoubencai/Desktop/os_c-ch6/kernel/fs/fat32/file/file.c:293
    802041a2:	4781                	li	a5,0
/home/caigoubencai/Desktop/os_c-ch6/kernel/fs/fat32/file/file.c:294 (discriminator 1)
    802041a4:	853e                	mv	a0,a5
    802041a6:	60ae                	ld	ra,200(sp)
    802041a8:	640e                	ld	s0,192(sp)
    802041aa:	6169                	addi	sp,sp,208
    802041ac:	8082                	ret

00000000802041ae <append_to_file_by_dir>:
append_to_file_by_dir():
/home/caigoubencai/Desktop/os_c-ch6/kernel/fs/fat32/file/file.c:297
    802041ae:	715d                	addi	sp,sp,-80
    802041b0:	e486                	sd	ra,72(sp)
    802041b2:	e0a2                	sd	s0,64(sp)
    802041b4:	0880                	addi	s0,sp,80
    802041b6:	fca43423          	sd	a0,-56(s0)
    802041ba:	fcb43023          	sd	a1,-64(s0)
    802041be:	fac43c23          	sd	a2,-72(s0)
/home/caigoubencai/Desktop/os_c-ch6/kernel/fs/fat32/file/file.c:299
    802041c2:	fc843503          	ld	a0,-56(s0)
    802041c6:	58a000ef          	jal	ra,80204750 <get_file_or_dir_size>
    802041ca:	87aa                	mv	a5,a0
    802041cc:	2781                	sext.w	a5,a5
    802041ce:	1782                	slli	a5,a5,0x20
    802041d0:	9381                	srli	a5,a5,0x20
    802041d2:	fef43423          	sd	a5,-24(s0)
/home/caigoubencai/Desktop/os_c-ch6/kernel/fs/fat32/file/file.c:300
    802041d6:	fe843503          	ld	a0,-24(s0)
    802041da:	66e060ef          	jal	ra,8020a848 <bd_malloc>
    802041de:	fea43023          	sd	a0,-32(s0)
/home/caigoubencai/Desktop/os_c-ch6/kernel/fs/fat32/file/file.c:301
    802041e2:	fe043783          	ld	a5,-32(s0)
    802041e6:	eb81                	bnez	a5,802041f6 <append_to_file_by_dir+0x48>
/home/caigoubencai/Desktop/os_c-ch6/kernel/fs/fat32/file/file.c:303
    802041e8:	0000d517          	auipc	a0,0xd
    802041ec:	05850513          	addi	a0,a0,88 # 80211240 <MMIO+0x100>
    802041f0:	e42fe0ef          	jal	ra,80202832 <printk>
/home/caigoubencai/Desktop/os_c-ch6/kernel/fs/fat32/file/file.c:304
    802041f4:	a0d1                	j	802042b8 <append_to_file_by_dir+0x10a>
/home/caigoubencai/Desktop/os_c-ch6/kernel/fs/fat32/file/file.c:306
    802041f6:	fc843783          	ld	a5,-56(s0)
    802041fa:	fe043583          	ld	a1,-32(s0)
    802041fe:	853e                	mv	a0,a5
    80204200:	b96ff0ef          	jal	ra,80203596 <read_file>
/home/caigoubencai/Desktop/os_c-ch6/kernel/fs/fat32/file/file.c:308
    80204204:	fe843703          	ld	a4,-24(s0)
    80204208:	fb843783          	ld	a5,-72(s0)
    8020420c:	97ba                	add	a5,a5,a4
    8020420e:	853e                	mv	a0,a5
    80204210:	638060ef          	jal	ra,8020a848 <bd_malloc>
    80204214:	fca43c23          	sd	a0,-40(s0)
/home/caigoubencai/Desktop/os_c-ch6/kernel/fs/fat32/file/file.c:309
    80204218:	fd843783          	ld	a5,-40(s0)
    8020421c:	ef81                	bnez	a5,80204234 <append_to_file_by_dir+0x86>
/home/caigoubencai/Desktop/os_c-ch6/kernel/fs/fat32/file/file.c:311
    8020421e:	0000d517          	auipc	a0,0xd
    80204222:	02250513          	addi	a0,a0,34 # 80211240 <MMIO+0x100>
    80204226:	e0cfe0ef          	jal	ra,80202832 <printk>
/home/caigoubencai/Desktop/os_c-ch6/kernel/fs/fat32/file/file.c:312
    8020422a:	fe043503          	ld	a0,-32(s0)
    8020422e:	035060ef          	jal	ra,8020aa62 <bd_free>
/home/caigoubencai/Desktop/os_c-ch6/kernel/fs/fat32/file/file.c:313
    80204232:	a059                	j	802042b8 <append_to_file_by_dir+0x10a>
/home/caigoubencai/Desktop/os_c-ch6/kernel/fs/fat32/file/file.c:315
    80204234:	fe843783          	ld	a5,-24(s0)
    80204238:	2781                	sext.w	a5,a5
    8020423a:	863e                	mv	a2,a5
    8020423c:	fe043583          	ld	a1,-32(s0)
    80204240:	fd843503          	ld	a0,-40(s0)
    80204244:	05c040ef          	jal	ra,802082a0 <memcpy>
/home/caigoubencai/Desktop/os_c-ch6/kernel/fs/fat32/file/file.c:316
    80204248:	fd843703          	ld	a4,-40(s0)
    8020424c:	fe843783          	ld	a5,-24(s0)
    80204250:	97ba                	add	a5,a5,a4
    80204252:	fb843703          	ld	a4,-72(s0)
    80204256:	2701                	sext.w	a4,a4
    80204258:	863a                	mv	a2,a4
    8020425a:	fc043583          	ld	a1,-64(s0)
    8020425e:	853e                	mv	a0,a5
    80204260:	040040ef          	jal	ra,802082a0 <memcpy>
/home/caigoubencai/Desktop/os_c-ch6/kernel/fs/fat32/file/file.c:319
    80204264:	fc843683          	ld	a3,-56(s0)
    80204268:	fe843703          	ld	a4,-24(s0)
    8020426c:	fb843783          	ld	a5,-72(s0)
    80204270:	97ba                	add	a5,a5,a4
    80204272:	863e                	mv	a2,a5
    80204274:	fd843583          	ld	a1,-40(s0)
    80204278:	8536                	mv	a0,a3
    8020427a:	cd2ff0ef          	jal	ra,8020374c <over_write_file>
/home/caigoubencai/Desktop/os_c-ch6/kernel/fs/fat32/file/file.c:320
    8020427e:	fe843783          	ld	a5,-24(s0)
    80204282:	0007871b          	sext.w	a4,a5
    80204286:	fb843783          	ld	a5,-72(s0)
    8020428a:	2781                	sext.w	a5,a5
    8020428c:	9fb9                	addw	a5,a5,a4
    8020428e:	2781                	sext.w	a5,a5
    80204290:	85be                	mv	a1,a5
    80204292:	fc843503          	ld	a0,-56(s0)
    80204296:	10b000ef          	jal	ra,80204ba0 <set_file_or_dir_size>
/home/caigoubencai/Desktop/os_c-ch6/kernel/fs/fat32/file/file.c:321
    8020429a:	fc843783          	ld	a5,-56(s0)
    8020429e:	fc843583          	ld	a1,-56(s0)
    802042a2:	853e                	mv	a0,a5
    802042a4:	5ea010ef          	jal	ra,8020588e <update_dir>
/home/caigoubencai/Desktop/os_c-ch6/kernel/fs/fat32/file/file.c:322
    802042a8:	fe043503          	ld	a0,-32(s0)
    802042ac:	7b6060ef          	jal	ra,8020aa62 <bd_free>
/home/caigoubencai/Desktop/os_c-ch6/kernel/fs/fat32/file/file.c:323
    802042b0:	fd843503          	ld	a0,-40(s0)
    802042b4:	7ae060ef          	jal	ra,8020aa62 <bd_free>
/home/caigoubencai/Desktop/os_c-ch6/kernel/fs/fat32/file/file.c:324
    802042b8:	853e                	mv	a0,a5
    802042ba:	60a6                	ld	ra,72(sp)
    802042bc:	6406                	ld	s0,64(sp)
    802042be:	6161                	addi	sp,sp,80
    802042c0:	8082                	ret

00000000802042c2 <read_file_by_dirent>:
read_file_by_dirent():
/home/caigoubencai/Desktop/os_c-ch6/kernel/fs/fat32/file/file.c:327
    802042c2:	715d                	addi	sp,sp,-80
    802042c4:	e486                	sd	ra,72(sp)
    802042c6:	e0a2                	sd	s0,64(sp)
    802042c8:	0880                	addi	s0,sp,80
    802042ca:	faa43c23          	sd	a0,-72(s0)
    802042ce:	fab43823          	sd	a1,-80(s0)
/home/caigoubencai/Desktop/os_c-ch6/kernel/fs/fat32/file/file.c:328
    802042d2:	fb843783          	ld	a5,-72(s0)
    802042d6:	ef91                	bnez	a5,802042f2 <read_file_by_dirent+0x30>
/home/caigoubencai/Desktop/os_c-ch6/kernel/fs/fat32/file/file.c:330 (discriminator 1)
    802042d8:	0000d617          	auipc	a2,0xd
    802042dc:	e7860613          	addi	a2,a2,-392 # 80211150 <MMIO+0x10>
    802042e0:	14a00593          	li	a1,330
    802042e4:	0000d517          	auipc	a0,0xd
    802042e8:	e8450513          	addi	a0,a0,-380 # 80211168 <MMIO+0x28>
    802042ec:	580070ef          	jal	ra,8020b86c <_panic>
/home/caigoubencai/Desktop/os_c-ch6/kernel/fs/fat32/file/file.c:331 (discriminator 1)
    802042f0:	aa15                	j	80204424 <read_file_by_dirent+0x162>
/home/caigoubencai/Desktop/os_c-ch6/kernel/fs/fat32/file/file.c:333
    802042f2:	fb843503          	ld	a0,-72(s0)
    802042f6:	2ad000ef          	jal	ra,80204da2 <is_directory>
    802042fa:	87aa                	mv	a5,a0
    802042fc:	2781                	sext.w	a5,a5
    802042fe:	cb81                	beqz	a5,8020430e <read_file_by_dirent+0x4c>
/home/caigoubencai/Desktop/os_c-ch6/kernel/fs/fat32/file/file.c:335
    80204300:	0000d517          	auipc	a0,0xd
    80204304:	e8050513          	addi	a0,a0,-384 # 80211180 <MMIO+0x40>
    80204308:	d2afe0ef          	jal	ra,80202832 <printk>
/home/caigoubencai/Desktop/os_c-ch6/kernel/fs/fat32/file/file.c:336
    8020430c:	aa21                	j	80204424 <read_file_by_dirent+0x162>
/home/caigoubencai/Desktop/os_c-ch6/kernel/fs/fat32/file/file.c:340
    8020430e:	fb843503          	ld	a0,-72(s0)
    80204312:	514000ef          	jal	ra,80204826 <extract_cluster_number>
    80204316:	87aa                	mv	a5,a0
    80204318:	fef42623          	sw	a5,-20(s0)
/home/caigoubencai/Desktop/os_c-ch6/kernel/fs/fat32/file/file.c:341
    8020431c:	fb843503          	ld	a0,-72(s0)
    80204320:	430000ef          	jal	ra,80204750 <get_file_or_dir_size>
    80204324:	87aa                	mv	a5,a0
    80204326:	2781                	sext.w	a5,a5
    80204328:	1782                	slli	a5,a5,0x20
    8020432a:	9381                	srli	a5,a5,0x20
    8020432c:	fcf43823          	sd	a5,-48(s0)
/home/caigoubencai/Desktop/os_c-ch6/kernel/fs/fat32/file/file.c:342
    80204330:	fd043783          	ld	a5,-48(s0)
    80204334:	eb81                	bnez	a5,80204344 <read_file_by_dirent+0x82>
/home/caigoubencai/Desktop/os_c-ch6/kernel/fs/fat32/file/file.c:344
    80204336:	0000d517          	auipc	a0,0xd
    8020433a:	e5a50513          	addi	a0,a0,-422 # 80211190 <MMIO+0x50>
    8020433e:	cf4fe0ef          	jal	ra,80202832 <printk>
/home/caigoubencai/Desktop/os_c-ch6/kernel/fs/fat32/file/file.c:345
    80204342:	a0cd                	j	80204424 <read_file_by_dirent+0x162>
/home/caigoubencai/Desktop/os_c-ch6/kernel/fs/fat32/file/file.c:347
    80204344:	fe042423          	sw	zero,-24(s0)
/home/caigoubencai/Desktop/os_c-ch6/kernel/fs/fat32/file/file.c:348
    80204348:	fb043783          	ld	a5,-80(s0)
    8020434c:	fef43023          	sd	a5,-32(s0)
/home/caigoubencai/Desktop/os_c-ch6/kernel/fs/fat32/file/file.c:351
    80204350:	a0c1                	j	80204410 <read_file_by_dirent+0x14e>
/home/caigoubencai/Desktop/os_c-ch6/kernel/fs/fat32/file/file.c:353
    80204352:	6785                	lui	a5,0x1
    80204354:	fcf42e23          	sw	a5,-36(s0)
/home/caigoubencai/Desktop/os_c-ch6/kernel/fs/fat32/file/file.c:354
    80204358:	fe846783          	lwu	a5,-24(s0)
    8020435c:	fd043703          	ld	a4,-48(s0)
    80204360:	8f1d                	sub	a4,a4,a5
    80204362:	6785                	lui	a5,0x1
    80204364:	00f77c63          	bgeu	a4,a5,8020437c <read_file_by_dirent+0xba>
/home/caigoubencai/Desktop/os_c-ch6/kernel/fs/fat32/file/file.c:356
    80204368:	fd043783          	ld	a5,-48(s0)
    8020436c:	0007871b          	sext.w	a4,a5
    80204370:	fe842783          	lw	a5,-24(s0)
    80204374:	40f707bb          	subw	a5,a4,a5
    80204378:	fcf42e23          	sw	a5,-36(s0)
/home/caigoubencai/Desktop/os_c-ch6/kernel/fs/fat32/file/file.c:359
    8020437c:	fec46783          	lwu	a5,-20(s0)
    80204380:	fdc46703          	lwu	a4,-36(s0)
    80204384:	fe043683          	ld	a3,-32(s0)
    80204388:	863a                	mv	a2,a4
    8020438a:	4581                	li	a1,0
    8020438c:	853e                	mv	a0,a5
    8020438e:	412020ef          	jal	ra,802067a0 <read_by_byte_cluser>
    80204392:	87aa                	mv	a5,a0
    80204394:	fcf42623          	sw	a5,-52(s0)
/home/caigoubencai/Desktop/os_c-ch6/kernel/fs/fat32/file/file.c:360
    80204398:	fcc42783          	lw	a5,-52(s0)
    8020439c:	0007871b          	sext.w	a4,a5
    802043a0:	57fd                	li	a5,-1
    802043a2:	06f70e63          	beq	a4,a5,8020441e <read_file_by_dirent+0x15c>
/home/caigoubencai/Desktop/os_c-ch6/kernel/fs/fat32/file/file.c:366
    802043a6:	fe842703          	lw	a4,-24(s0)
    802043aa:	fdc42783          	lw	a5,-36(s0)
    802043ae:	9fb9                	addw	a5,a5,a4
    802043b0:	fef42423          	sw	a5,-24(s0)
/home/caigoubencai/Desktop/os_c-ch6/kernel/fs/fat32/file/file.c:367
    802043b4:	fdc46783          	lwu	a5,-36(s0)
    802043b8:	fe043703          	ld	a4,-32(s0)
    802043bc:	97ba                	add	a5,a5,a4
    802043be:	fef43023          	sd	a5,-32(s0)
/home/caigoubencai/Desktop/os_c-ch6/kernel/fs/fat32/file/file.c:368
    802043c2:	fec42783          	lw	a5,-20(s0)
    802043c6:	0007871b          	sext.w	a4,a5
    802043ca:	4785                	li	a5,1
    802043cc:	00e7ee63          	bltu	a5,a4,802043e8 <read_file_by_dirent+0x126>
/home/caigoubencai/Desktop/os_c-ch6/kernel/fs/fat32/file/file.c:370
    802043d0:	0000d617          	auipc	a2,0xd
    802043d4:	dd860613          	addi	a2,a2,-552 # 802111a8 <MMIO+0x68>
    802043d8:	17200593          	li	a1,370
    802043dc:	0000d517          	auipc	a0,0xd
    802043e0:	d8c50513          	addi	a0,a0,-628 # 80211168 <MMIO+0x28>
    802043e4:	488070ef          	jal	ra,8020b86c <_panic>
/home/caigoubencai/Desktop/os_c-ch6/kernel/fs/fat32/file/file.c:372
    802043e8:	fec42783          	lw	a5,-20(s0)
    802043ec:	37f9                	addiw	a5,a5,-2
    802043ee:	2781                	sext.w	a5,a5
    802043f0:	1782                	slli	a5,a5,0x20
    802043f2:	9381                	srli	a5,a5,0x20
    802043f4:	853e                	mv	a0,a5
    802043f6:	e7ffe0ef          	jal	ra,80203274 <parse_cluster_number>
    802043fa:	87aa                	mv	a5,a0
    802043fc:	fef42623          	sw	a5,-20(s0)
/home/caigoubencai/Desktop/os_c-ch6/kernel/fs/fat32/file/file.c:373
    80204400:	fec42783          	lw	a5,-20(s0)
    80204404:	0007871b          	sext.w	a4,a5
    80204408:	6789                	lui	a5,0x2
    8020440a:	17c1                	addi	a5,a5,-16
    8020440c:	00e7eb63          	bltu	a5,a4,80204422 <read_file_by_dirent+0x160>
/home/caigoubencai/Desktop/os_c-ch6/kernel/fs/fat32/file/file.c:351
    80204410:	fe846783          	lwu	a5,-24(s0)
    80204414:	fd043703          	ld	a4,-48(s0)
    80204418:	f2e7ede3          	bltu	a5,a4,80204352 <read_file_by_dirent+0x90>
    8020441c:	a021                	j	80204424 <read_file_by_dirent+0x162>
/home/caigoubencai/Desktop/os_c-ch6/kernel/fs/fat32/file/file.c:363
    8020441e:	0001                	nop
    80204420:	a011                	j	80204424 <read_file_by_dirent+0x162>
/home/caigoubencai/Desktop/os_c-ch6/kernel/fs/fat32/file/file.c:374
    80204422:	0001                	nop
/home/caigoubencai/Desktop/os_c-ch6/kernel/fs/fat32/file/file.c:376
    80204424:	60a6                	ld	ra,72(sp)
    80204426:	6406                	ld	s0,64(sp)
    80204428:	6161                	addi	sp,sp,80
    8020442a:	8082                	ret

000000008020442c <creat_dir_entry>:
creat_dir_entry():
/home/caigoubencai/Desktop/os_c-ch6/kernel/fs/fat32/dir/dir.c:14
    8020442c:	7139                	addi	sp,sp,-64
    8020442e:	fc06                	sd	ra,56(sp)
    80204430:	f822                	sd	s0,48(sp)
    80204432:	0080                	addi	s0,sp,64
    80204434:	fca43c23          	sd	a0,-40(s0)
    80204438:	fcb43823          	sd	a1,-48(s0)
    8020443c:	87b2                	mv	a5,a2
    8020443e:	fcf407a3          	sb	a5,-49(s0)
/home/caigoubencai/Desktop/os_c-ch6/kernel/fs/fat32/dir/dir.c:16
    80204442:	fd843783          	ld	a5,-40(s0)
    80204446:	c7e1                	beqz	a5,8020450e <creat_dir_entry+0xe2>
/home/caigoubencai/Desktop/os_c-ch6/kernel/fs/fat32/dir/dir.c:16 (discriminator 1)
    80204448:	fd043783          	ld	a5,-48(s0)
    8020444c:	c3e9                	beqz	a5,8020450e <creat_dir_entry+0xe2>
/home/caigoubencai/Desktop/os_c-ch6/kernel/fs/fat32/dir/dir.c:22
    8020444e:	fe042623          	sw	zero,-20(s0)
    80204452:	a025                	j	8020447a <creat_dir_entry+0x4e>
/home/caigoubencai/Desktop/os_c-ch6/kernel/fs/fat32/dir/dir.c:24 (discriminator 3)
    80204454:	fec42783          	lw	a5,-20(s0)
    80204458:	fd043703          	ld	a4,-48(s0)
    8020445c:	97ba                	add	a5,a5,a4
    8020445e:	0007c703          	lbu	a4,0(a5) # 2000 <n+0x1fe0>
    80204462:	fd843683          	ld	a3,-40(s0)
    80204466:	fec42783          	lw	a5,-20(s0)
    8020446a:	97b6                	add	a5,a5,a3
    8020446c:	00e78023          	sb	a4,0(a5)
/home/caigoubencai/Desktop/os_c-ch6/kernel/fs/fat32/dir/dir.c:22 (discriminator 3)
    80204470:	fec42783          	lw	a5,-20(s0)
    80204474:	2785                	addiw	a5,a5,1
    80204476:	fef42623          	sw	a5,-20(s0)
/home/caigoubencai/Desktop/os_c-ch6/kernel/fs/fat32/dir/dir.c:22 (discriminator 1)
    8020447a:	fec42783          	lw	a5,-20(s0)
    8020447e:	0007871b          	sext.w	a4,a5
    80204482:	47a9                	li	a5,10
    80204484:	fce7d8e3          	bge	a5,a4,80204454 <creat_dir_entry+0x28>
/home/caigoubencai/Desktop/os_c-ch6/kernel/fs/fat32/dir/dir.c:28
    80204488:	fd843783          	ld	a5,-40(s0)
    8020448c:	fcf44703          	lbu	a4,-49(s0)
    80204490:	00e785a3          	sb	a4,11(a5)
/home/caigoubencai/Desktop/os_c-ch6/kernel/fs/fat32/dir/dir.c:29
    80204494:	fd843783          	ld	a5,-40(s0)
    80204498:	00078623          	sb	zero,12(a5)
/home/caigoubencai/Desktop/os_c-ch6/kernel/fs/fat32/dir/dir.c:30
    8020449c:	fd843783          	ld	a5,-40(s0)
    802044a0:	000786a3          	sb	zero,13(a5)
/home/caigoubencai/Desktop/os_c-ch6/kernel/fs/fat32/dir/dir.c:31
    802044a4:	fd843783          	ld	a5,-40(s0)
    802044a8:	00079723          	sh	zero,14(a5)
/home/caigoubencai/Desktop/os_c-ch6/kernel/fs/fat32/dir/dir.c:32
    802044ac:	fd843783          	ld	a5,-40(s0)
    802044b0:	00079823          	sh	zero,16(a5)
/home/caigoubencai/Desktop/os_c-ch6/kernel/fs/fat32/dir/dir.c:33
    802044b4:	fd843783          	ld	a5,-40(s0)
    802044b8:	00079923          	sh	zero,18(a5)
/home/caigoubencai/Desktop/os_c-ch6/kernel/fs/fat32/dir/dir.c:34
    802044bc:	fd843783          	ld	a5,-40(s0)
    802044c0:	00079b23          	sh	zero,22(a5)
/home/caigoubencai/Desktop/os_c-ch6/kernel/fs/fat32/dir/dir.c:35
    802044c4:	fd843783          	ld	a5,-40(s0)
    802044c8:	00079c23          	sh	zero,24(a5)
/home/caigoubencai/Desktop/os_c-ch6/kernel/fs/fat32/dir/dir.c:36
    802044cc:	fd843783          	ld	a5,-40(s0)
    802044d0:	0007ae23          	sw	zero,28(a5)
/home/caigoubencai/Desktop/os_c-ch6/kernel/fs/fat32/dir/dir.c:39
    802044d4:	c6ffe0ef          	jal	ra,80203142 <find_first_valid_cluster>
    802044d8:	87aa                	mv	a5,a0
    802044da:	2781                	sext.w	a5,a5
    802044dc:	2789                	addiw	a5,a5,2
    802044de:	fef42423          	sw	a5,-24(s0)
/home/caigoubencai/Desktop/os_c-ch6/kernel/fs/fat32/dir/dir.c:40
    802044e2:	fe842783          	lw	a5,-24(s0)
    802044e6:	0107d79b          	srliw	a5,a5,0x10
    802044ea:	2781                	sext.w	a5,a5
    802044ec:	03079713          	slli	a4,a5,0x30
    802044f0:	9341                	srli	a4,a4,0x30
    802044f2:	fd843783          	ld	a5,-40(s0)
    802044f6:	00e79a23          	sh	a4,20(a5)
/home/caigoubencai/Desktop/os_c-ch6/kernel/fs/fat32/dir/dir.c:41
    802044fa:	fe842783          	lw	a5,-24(s0)
    802044fe:	03079713          	slli	a4,a5,0x30
    80204502:	9341                	srli	a4,a4,0x30
    80204504:	fd843783          	ld	a5,-40(s0)
    80204508:	00e79d23          	sh	a4,26(a5)
    8020450c:	a011                	j	80204510 <creat_dir_entry+0xe4>
/home/caigoubencai/Desktop/os_c-ch6/kernel/fs/fat32/dir/dir.c:18
    8020450e:	0001                	nop
/home/caigoubencai/Desktop/os_c-ch6/kernel/fs/fat32/dir/dir.c:42
    80204510:	70e2                	ld	ra,56(sp)
    80204512:	7442                	ld	s0,48(sp)
    80204514:	6121                	addi	sp,sp,64
    80204516:	8082                	ret

0000000080204518 <init_root_entry>:
init_root_entry():
/home/caigoubencai/Desktop/os_c-ch6/kernel/fs/fat32/dir/dir.c:46
    80204518:	1101                	addi	sp,sp,-32
    8020451a:	ec06                	sd	ra,24(sp)
    8020451c:	e822                	sd	s0,16(sp)
    8020451e:	1000                	addi	s0,sp,32
/home/caigoubencai/Desktop/os_c-ch6/kernel/fs/fat32/dir/dir.c:48
    80204520:	02000613          	li	a2,32
    80204524:	4581                	li	a1,0
    80204526:	00027517          	auipc	a0,0x27
    8020452a:	c4250513          	addi	a0,a0,-958 # 8022b168 <root_dir_entry>
    8020452e:	5c1030ef          	jal	ra,802082ee <memset>
/home/caigoubencai/Desktop/os_c-ch6/kernel/fs/fat32/dir/dir.c:49
    80204532:	462d                	li	a2,11
    80204534:	0000d597          	auipc	a1,0xd
    80204538:	d5458593          	addi	a1,a1,-684 # 80211288 <MMIO+0x10>
    8020453c:	00027517          	auipc	a0,0x27
    80204540:	c2c50513          	addi	a0,a0,-980 # 8022b168 <root_dir_entry>
    80204544:	7cd030ef          	jal	ra,80208510 <strncpy>
/home/caigoubencai/Desktop/os_c-ch6/kernel/fs/fat32/dir/dir.c:50
    80204548:	00027797          	auipc	a5,0x27
    8020454c:	c2078793          	addi	a5,a5,-992 # 8022b168 <root_dir_entry>
    80204550:	4741                	li	a4,16
    80204552:	00e785a3          	sb	a4,11(a5)
/home/caigoubencai/Desktop/os_c-ch6/kernel/fs/fat32/dir/dir.c:51
    80204556:	00027797          	auipc	a5,0x27
    8020455a:	c1278793          	addi	a5,a5,-1006 # 8022b168 <root_dir_entry>
    8020455e:	00079a23          	sh	zero,20(a5)
/home/caigoubencai/Desktop/os_c-ch6/kernel/fs/fat32/dir/dir.c:52
    80204562:	00027797          	auipc	a5,0x27
    80204566:	c0678793          	addi	a5,a5,-1018 # 8022b168 <root_dir_entry>
    8020456a:	4709                	li	a4,2
    8020456c:	00e79d23          	sh	a4,26(a5)
/home/caigoubencai/Desktop/os_c-ch6/kernel/fs/fat32/dir/dir.c:53
    80204570:	02000593          	li	a1,32
    80204574:	00027517          	auipc	a0,0x27
    80204578:	bf450513          	addi	a0,a0,-1036 # 8022b168 <root_dir_entry>
    8020457c:	624000ef          	jal	ra,80204ba0 <set_file_or_dir_size>
/home/caigoubencai/Desktop/os_c-ch6/kernel/fs/fat32/dir/dir.c:54
    80204580:	02000613          	li	a2,32
    80204584:	00027597          	auipc	a1,0x27
    80204588:	be458593          	addi	a1,a1,-1052 # 8022b168 <root_dir_entry>
    8020458c:	4509                	li	a0,2
    8020458e:	016020ef          	jal	ra,802065a4 <write_by_cluster>
/home/caigoubencai/Desktop/os_c-ch6/kernel/fs/fat32/dir/dir.c:55
    80204592:	bb1fe0ef          	jal	ra,80203142 <find_first_valid_cluster>
    80204596:	fea43423          	sd	a0,-24(s0)
/home/caigoubencai/Desktop/os_c-ch6/kernel/fs/fat32/dir/dir.c:56
    8020459a:	fe843503          	ld	a0,-24(s0)
    8020459e:	c73fe0ef          	jal	ra,80203210 <set_cluser_end>
/home/caigoubencai/Desktop/os_c-ch6/kernel/fs/fat32/dir/dir.c:58
    802045a2:	0001                	nop
    802045a4:	60e2                	ld	ra,24(sp)
    802045a6:	6442                	ld	s0,16(sp)
    802045a8:	6105                	addi	sp,sp,32
    802045aa:	8082                	ret

00000000802045ac <read_and_parse_root_entry>:
read_and_parse_root_entry():
/home/caigoubencai/Desktop/os_c-ch6/kernel/fs/fat32/dir/dir.c:62
    802045ac:	7179                	addi	sp,sp,-48
    802045ae:	f406                	sd	ra,40(sp)
    802045b0:	f022                	sd	s0,32(sp)
    802045b2:	1800                	addi	s0,sp,48
/home/caigoubencai/Desktop/os_c-ch6/kernel/fs/fat32/dir/dir.c:64
    802045b4:	6785                	lui	a5,0x1
    802045b6:	fef43423          	sd	a5,-24(s0)
/home/caigoubencai/Desktop/os_c-ch6/kernel/fs/fat32/dir/dir.c:65
    802045ba:	4789                	li	a5,2
    802045bc:	fef43023          	sd	a5,-32(s0)
/home/caigoubencai/Desktop/os_c-ch6/kernel/fs/fat32/dir/dir.c:66
    802045c0:	fe843503          	ld	a0,-24(s0)
    802045c4:	284060ef          	jal	ra,8020a848 <bd_malloc>
    802045c8:	fca43c23          	sd	a0,-40(s0)
/home/caigoubencai/Desktop/os_c-ch6/kernel/fs/fat32/dir/dir.c:67
    802045cc:	fd843783          	ld	a5,-40(s0)
    802045d0:	eb81                	bnez	a5,802045e0 <read_and_parse_root_entry+0x34>
/home/caigoubencai/Desktop/os_c-ch6/kernel/fs/fat32/dir/dir.c:69
    802045d2:	0000d517          	auipc	a0,0xd
    802045d6:	cbe50513          	addi	a0,a0,-834 # 80211290 <MMIO+0x18>
    802045da:	a58fe0ef          	jal	ra,80202832 <printk>
/home/caigoubencai/Desktop/os_c-ch6/kernel/fs/fat32/dir/dir.c:70
    802045de:	a2ad                	j	80204748 <read_and_parse_root_entry+0x19c>
/home/caigoubencai/Desktop/os_c-ch6/kernel/fs/fat32/dir/dir.c:72
    802045e0:	09d00793          	li	a5,157
    802045e4:	fcf43823          	sd	a5,-48(s0)
/home/caigoubencai/Desktop/os_c-ch6/kernel/fs/fat32/dir/dir.c:74
    802045e8:	fd843683          	ld	a3,-40(s0)
    802045ec:	02000613          	li	a2,32
    802045f0:	4581                	li	a1,0
    802045f2:	fe043503          	ld	a0,-32(s0)
    802045f6:	7ef010ef          	jal	ra,802065e4 <read_by_byte>
    802045fa:	87aa                	mv	a5,a0
    802045fc:	cf81                	beqz	a5,80204614 <read_and_parse_root_entry+0x68>
/home/caigoubencai/Desktop/os_c-ch6/kernel/fs/fat32/dir/dir.c:76
    802045fe:	0000d517          	auipc	a0,0xd
    80204602:	cba50513          	addi	a0,a0,-838 # 802112b8 <MMIO+0x40>
    80204606:	a2cfe0ef          	jal	ra,80202832 <printk>
/home/caigoubencai/Desktop/os_c-ch6/kernel/fs/fat32/dir/dir.c:77
    8020460a:	fd843503          	ld	a0,-40(s0)
    8020460e:	454060ef          	jal	ra,8020aa62 <bd_free>
/home/caigoubencai/Desktop/os_c-ch6/kernel/fs/fat32/dir/dir.c:78
    80204612:	aa1d                	j	80204748 <read_and_parse_root_entry+0x19c>
/home/caigoubencai/Desktop/os_c-ch6/kernel/fs/fat32/dir/dir.c:82
    80204614:	02000613          	li	a2,32
    80204618:	fd843583          	ld	a1,-40(s0)
    8020461c:	00027517          	auipc	a0,0x27
    80204620:	b4c50513          	addi	a0,a0,-1204 # 8022b168 <root_dir_entry>
    80204624:	47d030ef          	jal	ra,802082a0 <memcpy>
/home/caigoubencai/Desktop/os_c-ch6/kernel/fs/fat32/dir/dir.c:85
    80204628:	0000d517          	auipc	a0,0xd
    8020462c:	cc050513          	addi	a0,a0,-832 # 802112e8 <MMIO+0x70>
    80204630:	a02fe0ef          	jal	ra,80202832 <printk>
/home/caigoubencai/Desktop/os_c-ch6/kernel/fs/fat32/dir/dir.c:86
    80204634:	00027597          	auipc	a1,0x27
    80204638:	b3458593          	addi	a1,a1,-1228 # 8022b168 <root_dir_entry>
    8020463c:	0000d517          	auipc	a0,0xd
    80204640:	cc450513          	addi	a0,a0,-828 # 80211300 <MMIO+0x88>
    80204644:	9eefe0ef          	jal	ra,80202832 <printk>
/home/caigoubencai/Desktop/os_c-ch6/kernel/fs/fat32/dir/dir.c:87
    80204648:	00027797          	auipc	a5,0x27
    8020464c:	b2078793          	addi	a5,a5,-1248 # 8022b168 <root_dir_entry>
    80204650:	00b7c783          	lbu	a5,11(a5)
    80204654:	2781                	sext.w	a5,a5
    80204656:	85be                	mv	a1,a5
    80204658:	0000d517          	auipc	a0,0xd
    8020465c:	cb850513          	addi	a0,a0,-840 # 80211310 <MMIO+0x98>
    80204660:	9d2fe0ef          	jal	ra,80202832 <printk>
/home/caigoubencai/Desktop/os_c-ch6/kernel/fs/fat32/dir/dir.c:88
    80204664:	00027797          	auipc	a5,0x27
    80204668:	b0478793          	addi	a5,a5,-1276 # 8022b168 <root_dir_entry>
    8020466c:	00e7d783          	lhu	a5,14(a5)
    80204670:	2781                	sext.w	a5,a5
    80204672:	85be                	mv	a1,a5
    80204674:	0000d517          	auipc	a0,0xd
    80204678:	cac50513          	addi	a0,a0,-852 # 80211320 <MMIO+0xa8>
    8020467c:	9b6fe0ef          	jal	ra,80202832 <printk>
/home/caigoubencai/Desktop/os_c-ch6/kernel/fs/fat32/dir/dir.c:89
    80204680:	00027797          	auipc	a5,0x27
    80204684:	ae878793          	addi	a5,a5,-1304 # 8022b168 <root_dir_entry>
    80204688:	0107d783          	lhu	a5,16(a5)
    8020468c:	2781                	sext.w	a5,a5
    8020468e:	85be                	mv	a1,a5
    80204690:	0000d517          	auipc	a0,0xd
    80204694:	ca850513          	addi	a0,a0,-856 # 80211338 <MMIO+0xc0>
    80204698:	99afe0ef          	jal	ra,80202832 <printk>
/home/caigoubencai/Desktop/os_c-ch6/kernel/fs/fat32/dir/dir.c:90
    8020469c:	00027797          	auipc	a5,0x27
    802046a0:	acc78793          	addi	a5,a5,-1332 # 8022b168 <root_dir_entry>
    802046a4:	0127d783          	lhu	a5,18(a5)
    802046a8:	2781                	sext.w	a5,a5
    802046aa:	85be                	mv	a1,a5
    802046ac:	0000d517          	auipc	a0,0xd
    802046b0:	ca450513          	addi	a0,a0,-860 # 80211350 <MMIO+0xd8>
    802046b4:	97efe0ef          	jal	ra,80202832 <printk>
/home/caigoubencai/Desktop/os_c-ch6/kernel/fs/fat32/dir/dir.c:91
    802046b8:	00027797          	auipc	a5,0x27
    802046bc:	ab078793          	addi	a5,a5,-1360 # 8022b168 <root_dir_entry>
    802046c0:	0147d783          	lhu	a5,20(a5)
    802046c4:	2781                	sext.w	a5,a5
    802046c6:	85be                	mv	a1,a5
    802046c8:	0000d517          	auipc	a0,0xd
    802046cc:	ca050513          	addi	a0,a0,-864 # 80211368 <MMIO+0xf0>
    802046d0:	962fe0ef          	jal	ra,80202832 <printk>
/home/caigoubencai/Desktop/os_c-ch6/kernel/fs/fat32/dir/dir.c:92
    802046d4:	00027797          	auipc	a5,0x27
    802046d8:	a9478793          	addi	a5,a5,-1388 # 8022b168 <root_dir_entry>
    802046dc:	0167d783          	lhu	a5,22(a5)
    802046e0:	2781                	sext.w	a5,a5
    802046e2:	85be                	mv	a1,a5
    802046e4:	0000d517          	auipc	a0,0xd
    802046e8:	c9c50513          	addi	a0,a0,-868 # 80211380 <MMIO+0x108>
    802046ec:	946fe0ef          	jal	ra,80202832 <printk>
/home/caigoubencai/Desktop/os_c-ch6/kernel/fs/fat32/dir/dir.c:93
    802046f0:	00027797          	auipc	a5,0x27
    802046f4:	a7878793          	addi	a5,a5,-1416 # 8022b168 <root_dir_entry>
    802046f8:	0187d783          	lhu	a5,24(a5)
    802046fc:	2781                	sext.w	a5,a5
    802046fe:	85be                	mv	a1,a5
    80204700:	0000d517          	auipc	a0,0xd
    80204704:	c9050513          	addi	a0,a0,-880 # 80211390 <MMIO+0x118>
    80204708:	92afe0ef          	jal	ra,80202832 <printk>
/home/caigoubencai/Desktop/os_c-ch6/kernel/fs/fat32/dir/dir.c:94
    8020470c:	00027797          	auipc	a5,0x27
    80204710:	a5c78793          	addi	a5,a5,-1444 # 8022b168 <root_dir_entry>
    80204714:	01a7d783          	lhu	a5,26(a5)
    80204718:	2781                	sext.w	a5,a5
    8020471a:	85be                	mv	a1,a5
    8020471c:	0000d517          	auipc	a0,0xd
    80204720:	c8450513          	addi	a0,a0,-892 # 802113a0 <MMIO+0x128>
    80204724:	90efe0ef          	jal	ra,80202832 <printk>
/home/caigoubencai/Desktop/os_c-ch6/kernel/fs/fat32/dir/dir.c:95
    80204728:	00027797          	auipc	a5,0x27
    8020472c:	a4078793          	addi	a5,a5,-1472 # 8022b168 <root_dir_entry>
    80204730:	4fdc                	lw	a5,28(a5)
    80204732:	85be                	mv	a1,a5
    80204734:	0000d517          	auipc	a0,0xd
    80204738:	c8450513          	addi	a0,a0,-892 # 802113b8 <MMIO+0x140>
    8020473c:	8f6fe0ef          	jal	ra,80202832 <printk>
/home/caigoubencai/Desktop/os_c-ch6/kernel/fs/fat32/dir/dir.c:98
    80204740:	fd843503          	ld	a0,-40(s0)
    80204744:	31e060ef          	jal	ra,8020aa62 <bd_free>
/home/caigoubencai/Desktop/os_c-ch6/kernel/fs/fat32/dir/dir.c:99
    80204748:	70a2                	ld	ra,40(sp)
    8020474a:	7402                	ld	s0,32(sp)
    8020474c:	6145                	addi	sp,sp,48
    8020474e:	8082                	ret

0000000080204750 <get_file_or_dir_size>:
get_file_or_dir_size():
/home/caigoubencai/Desktop/os_c-ch6/kernel/fs/fat32/dir/dir.c:103
    80204750:	1101                	addi	sp,sp,-32
    80204752:	ec22                	sd	s0,24(sp)
    80204754:	1000                	addi	s0,sp,32
    80204756:	fea43423          	sd	a0,-24(s0)
/home/caigoubencai/Desktop/os_c-ch6/kernel/fs/fat32/dir/dir.c:104
    8020475a:	fe843783          	ld	a5,-24(s0)
    8020475e:	4fdc                	lw	a5,28(a5)
/home/caigoubencai/Desktop/os_c-ch6/kernel/fs/fat32/dir/dir.c:105
    80204760:	853e                	mv	a0,a5
    80204762:	6462                	ld	s0,24(sp)
    80204764:	6105                	addi	sp,sp,32
    80204766:	8082                	ret

0000000080204768 <get_creation_time>:
get_creation_time():
/home/caigoubencai/Desktop/os_c-ch6/kernel/fs/fat32/dir/dir.c:109
    80204768:	7179                	addi	sp,sp,-48
    8020476a:	f422                	sd	s0,40(sp)
    8020476c:	1800                	addi	s0,sp,48
    8020476e:	fca43c23          	sd	a0,-40(s0)
/home/caigoubencai/Desktop/os_c-ch6/kernel/fs/fat32/dir/dir.c:110
    80204772:	fd843783          	ld	a5,-40(s0)
    80204776:	0107d783          	lhu	a5,16(a5)
    8020477a:	fef43423          	sd	a5,-24(s0)
/home/caigoubencai/Desktop/os_c-ch6/kernel/fs/fat32/dir/dir.c:111
    8020477e:	fe843783          	ld	a5,-24(s0)
    80204782:	07c2                	slli	a5,a5,0x10
    80204784:	fef43423          	sd	a5,-24(s0)
/home/caigoubencai/Desktop/os_c-ch6/kernel/fs/fat32/dir/dir.c:112
    80204788:	fd843783          	ld	a5,-40(s0)
    8020478c:	00e7d783          	lhu	a5,14(a5)
    80204790:	873e                	mv	a4,a5
    80204792:	fe843783          	ld	a5,-24(s0)
    80204796:	8fd9                	or	a5,a5,a4
    80204798:	fef43423          	sd	a5,-24(s0)
/home/caigoubencai/Desktop/os_c-ch6/kernel/fs/fat32/dir/dir.c:113
    8020479c:	fe843783          	ld	a5,-24(s0)
/home/caigoubencai/Desktop/os_c-ch6/kernel/fs/fat32/dir/dir.c:114
    802047a0:	853e                	mv	a0,a5
    802047a2:	7422                	ld	s0,40(sp)
    802047a4:	6145                	addi	sp,sp,48
    802047a6:	8082                	ret

00000000802047a8 <get_last_modified_time>:
get_last_modified_time():
/home/caigoubencai/Desktop/os_c-ch6/kernel/fs/fat32/dir/dir.c:118
    802047a8:	7179                	addi	sp,sp,-48
    802047aa:	f422                	sd	s0,40(sp)
    802047ac:	1800                	addi	s0,sp,48
    802047ae:	fca43c23          	sd	a0,-40(s0)
/home/caigoubencai/Desktop/os_c-ch6/kernel/fs/fat32/dir/dir.c:119
    802047b2:	fd843783          	ld	a5,-40(s0)
    802047b6:	0187d783          	lhu	a5,24(a5)
    802047ba:	fef43423          	sd	a5,-24(s0)
/home/caigoubencai/Desktop/os_c-ch6/kernel/fs/fat32/dir/dir.c:120
    802047be:	fe843783          	ld	a5,-24(s0)
    802047c2:	07c2                	slli	a5,a5,0x10
    802047c4:	fef43423          	sd	a5,-24(s0)
/home/caigoubencai/Desktop/os_c-ch6/kernel/fs/fat32/dir/dir.c:121
    802047c8:	fd843783          	ld	a5,-40(s0)
    802047cc:	0167d783          	lhu	a5,22(a5)
    802047d0:	873e                	mv	a4,a5
    802047d2:	fe843783          	ld	a5,-24(s0)
    802047d6:	8fd9                	or	a5,a5,a4
    802047d8:	fef43423          	sd	a5,-24(s0)
/home/caigoubencai/Desktop/os_c-ch6/kernel/fs/fat32/dir/dir.c:122
    802047dc:	fe843783          	ld	a5,-24(s0)
/home/caigoubencai/Desktop/os_c-ch6/kernel/fs/fat32/dir/dir.c:123
    802047e0:	853e                	mv	a0,a5
    802047e2:	7422                	ld	s0,40(sp)
    802047e4:	6145                	addi	sp,sp,48
    802047e6:	8082                	ret

00000000802047e8 <get_last_access_time>:
get_last_access_time():
/home/caigoubencai/Desktop/os_c-ch6/kernel/fs/fat32/dir/dir.c:127
    802047e8:	1101                	addi	sp,sp,-32
    802047ea:	ec22                	sd	s0,24(sp)
    802047ec:	1000                	addi	s0,sp,32
    802047ee:	fea43423          	sd	a0,-24(s0)
/home/caigoubencai/Desktop/os_c-ch6/kernel/fs/fat32/dir/dir.c:128
    802047f2:	fe843783          	ld	a5,-24(s0)
    802047f6:	0127d783          	lhu	a5,18(a5)
/home/caigoubencai/Desktop/os_c-ch6/kernel/fs/fat32/dir/dir.c:129
    802047fa:	853e                	mv	a0,a5
    802047fc:	6462                	ld	s0,24(sp)
    802047fe:	6105                	addi	sp,sp,32
    80204800:	8082                	ret

0000000080204802 <set_file_or_dir_attribute>:
set_file_or_dir_attribute():
/home/caigoubencai/Desktop/os_c-ch6/kernel/fs/fat32/dir/dir.c:133
    80204802:	1101                	addi	sp,sp,-32
    80204804:	ec22                	sd	s0,24(sp)
    80204806:	1000                	addi	s0,sp,32
    80204808:	fea43423          	sd	a0,-24(s0)
    8020480c:	87ae                	mv	a5,a1
    8020480e:	fef403a3          	sb	a5,-25(s0)
/home/caigoubencai/Desktop/os_c-ch6/kernel/fs/fat32/dir/dir.c:134
    80204812:	fe843783          	ld	a5,-24(s0)
    80204816:	fe744703          	lbu	a4,-25(s0)
    8020481a:	00e785a3          	sb	a4,11(a5)
/home/caigoubencai/Desktop/os_c-ch6/kernel/fs/fat32/dir/dir.c:135
    8020481e:	0001                	nop
    80204820:	6462                	ld	s0,24(sp)
    80204822:	6105                	addi	sp,sp,32
    80204824:	8082                	ret

0000000080204826 <extract_cluster_number>:
extract_cluster_number():
/home/caigoubencai/Desktop/os_c-ch6/kernel/fs/fat32/dir/dir.c:139
    80204826:	7179                	addi	sp,sp,-48
    80204828:	f422                	sd	s0,40(sp)
    8020482a:	1800                	addi	s0,sp,48
    8020482c:	fca43c23          	sd	a0,-40(s0)
/home/caigoubencai/Desktop/os_c-ch6/kernel/fs/fat32/dir/dir.c:141
    80204830:	fd843783          	ld	a5,-40(s0)
    80204834:	0147d783          	lhu	a5,20(a5)
    80204838:	fef41723          	sh	a5,-18(s0)
/home/caigoubencai/Desktop/os_c-ch6/kernel/fs/fat32/dir/dir.c:142
    8020483c:	fd843783          	ld	a5,-40(s0)
    80204840:	01a7d783          	lhu	a5,26(a5)
    80204844:	fef41623          	sh	a5,-20(s0)
/home/caigoubencai/Desktop/os_c-ch6/kernel/fs/fat32/dir/dir.c:145
    80204848:	fee45783          	lhu	a5,-18(s0)
    8020484c:	2781                	sext.w	a5,a5
    8020484e:	0107979b          	slliw	a5,a5,0x10
    80204852:	0007871b          	sext.w	a4,a5
    80204856:	fec45783          	lhu	a5,-20(s0)
    8020485a:	2781                	sext.w	a5,a5
    8020485c:	8fd9                	or	a5,a5,a4
    8020485e:	fef42423          	sw	a5,-24(s0)
/home/caigoubencai/Desktop/os_c-ch6/kernel/fs/fat32/dir/dir.c:148
    80204862:	fe842703          	lw	a4,-24(s0)
    80204866:	100007b7          	lui	a5,0x10000
    8020486a:	17fd                	addi	a5,a5,-1
    8020486c:	8ff9                	and	a5,a5,a4
    8020486e:	fef42423          	sw	a5,-24(s0)
/home/caigoubencai/Desktop/os_c-ch6/kernel/fs/fat32/dir/dir.c:150
    80204872:	fe842783          	lw	a5,-24(s0)
/home/caigoubencai/Desktop/os_c-ch6/kernel/fs/fat32/dir/dir.c:151
    80204876:	853e                	mv	a0,a5
    80204878:	7422                	ld	s0,40(sp)
    8020487a:	6145                	addi	sp,sp,48
    8020487c:	8082                	ret

000000008020487e <compare_dir_entry_name>:
compare_dir_entry_name():
/home/caigoubencai/Desktop/os_c-ch6/kernel/fs/fat32/dir/dir.c:155
    8020487e:	1101                	addi	sp,sp,-32
    80204880:	ec06                	sd	ra,24(sp)
    80204882:	e822                	sd	s0,16(sp)
    80204884:	1000                	addi	s0,sp,32
    80204886:	fea43423          	sd	a0,-24(s0)
    8020488a:	feb43023          	sd	a1,-32(s0)
/home/caigoubencai/Desktop/os_c-ch6/kernel/fs/fat32/dir/dir.c:156
    8020488e:	fe843783          	ld	a5,-24(s0)
    80204892:	462d                	li	a2,11
    80204894:	fe043583          	ld	a1,-32(s0)
    80204898:	853e                	mv	a0,a5
    8020489a:	503030ef          	jal	ra,8020859c <strncmp>
    8020489e:	87aa                	mv	a5,a0
    802048a0:	0017b793          	seqz	a5,a5
    802048a4:	0ff7f793          	andi	a5,a5,255
    802048a8:	2781                	sext.w	a5,a5
/home/caigoubencai/Desktop/os_c-ch6/kernel/fs/fat32/dir/dir.c:157
    802048aa:	853e                	mv	a0,a5
    802048ac:	60e2                	ld	ra,24(sp)
    802048ae:	6442                	ld	s0,16(sp)
    802048b0:	6105                	addi	sp,sp,32
    802048b2:	8082                	ret

00000000802048b4 <parse_directory_entry>:
parse_directory_entry():
/home/caigoubencai/Desktop/os_c-ch6/kernel/fs/fat32/dir/dir.c:161
    802048b4:	7139                	addi	sp,sp,-64
    802048b6:	fc06                	sd	ra,56(sp)
    802048b8:	f822                	sd	s0,48(sp)
    802048ba:	0080                	addi	s0,sp,64
    802048bc:	fca43423          	sd	a0,-56(s0)
    802048c0:	fcb43023          	sd	a1,-64(s0)
/home/caigoubencai/Desktop/os_c-ch6/kernel/fs/fat32/dir/dir.c:165
    802048c4:	fd040793          	addi	a5,s0,-48
    802048c8:	462d                	li	a2,11
    802048ca:	fc043583          	ld	a1,-64(s0)
    802048ce:	853e                	mv	a0,a5
    802048d0:	1d1030ef          	jal	ra,802082a0 <memcpy>
/home/caigoubencai/Desktop/os_c-ch6/kernel/fs/fat32/dir/dir.c:166
    802048d4:	fc043783          	ld	a5,-64(s0)
    802048d8:	00b7c783          	lbu	a5,11(a5) # 1000000b <n+0xfffffeb>
    802048dc:	fcf40da3          	sb	a5,-37(s0)
/home/caigoubencai/Desktop/os_c-ch6/kernel/fs/fat32/dir/dir.c:167
    802048e0:	fc043783          	ld	a5,-64(s0)
    802048e4:	00c7c783          	lbu	a5,12(a5)
    802048e8:	fcf40e23          	sb	a5,-36(s0)
/home/caigoubencai/Desktop/os_c-ch6/kernel/fs/fat32/dir/dir.c:168
    802048ec:	fc043783          	ld	a5,-64(s0)
    802048f0:	00d7c783          	lbu	a5,13(a5)
    802048f4:	fcf40ea3          	sb	a5,-35(s0)
/home/caigoubencai/Desktop/os_c-ch6/kernel/fs/fat32/dir/dir.c:169
    802048f8:	fc043783          	ld	a5,-64(s0)
    802048fc:	00e7d783          	lhu	a5,14(a5)
    80204900:	fcf41f23          	sh	a5,-34(s0)
/home/caigoubencai/Desktop/os_c-ch6/kernel/fs/fat32/dir/dir.c:170
    80204904:	fc043783          	ld	a5,-64(s0)
    80204908:	0107d783          	lhu	a5,16(a5)
    8020490c:	fef41023          	sh	a5,-32(s0)
/home/caigoubencai/Desktop/os_c-ch6/kernel/fs/fat32/dir/dir.c:171
    80204910:	fc043783          	ld	a5,-64(s0)
    80204914:	0127d783          	lhu	a5,18(a5)
    80204918:	fef41123          	sh	a5,-30(s0)
/home/caigoubencai/Desktop/os_c-ch6/kernel/fs/fat32/dir/dir.c:172
    8020491c:	fc043783          	ld	a5,-64(s0)
    80204920:	0147d783          	lhu	a5,20(a5)
    80204924:	fef41223          	sh	a5,-28(s0)
/home/caigoubencai/Desktop/os_c-ch6/kernel/fs/fat32/dir/dir.c:173
    80204928:	fc043783          	ld	a5,-64(s0)
    8020492c:	0167d783          	lhu	a5,22(a5)
    80204930:	fef41323          	sh	a5,-26(s0)
/home/caigoubencai/Desktop/os_c-ch6/kernel/fs/fat32/dir/dir.c:174
    80204934:	fc043783          	ld	a5,-64(s0)
    80204938:	0187d783          	lhu	a5,24(a5)
    8020493c:	fef41423          	sh	a5,-24(s0)
/home/caigoubencai/Desktop/os_c-ch6/kernel/fs/fat32/dir/dir.c:175
    80204940:	fc043783          	ld	a5,-64(s0)
    80204944:	01a7d783          	lhu	a5,26(a5)
    80204948:	fef41523          	sh	a5,-22(s0)
/home/caigoubencai/Desktop/os_c-ch6/kernel/fs/fat32/dir/dir.c:176
    8020494c:	fc043783          	ld	a5,-64(s0)
    80204950:	4fdc                	lw	a5,28(a5)
    80204952:	fef42623          	sw	a5,-20(s0)
/home/caigoubencai/Desktop/os_c-ch6/kernel/fs/fat32/dir/dir.c:177
    80204956:	fc843783          	ld	a5,-56(s0)
    8020495a:	fd042303          	lw	t1,-48(s0)
    8020495e:	fd442883          	lw	a7,-44(s0)
    80204962:	fd842803          	lw	a6,-40(s0)
    80204966:	fdc42503          	lw	a0,-36(s0)
    8020496a:	fe042583          	lw	a1,-32(s0)
    8020496e:	fe442603          	lw	a2,-28(s0)
    80204972:	fe842683          	lw	a3,-24(s0)
    80204976:	fec42703          	lw	a4,-20(s0)
    8020497a:	0067a023          	sw	t1,0(a5)
    8020497e:	0117a223          	sw	a7,4(a5)
    80204982:	0107a423          	sw	a6,8(a5)
    80204986:	c7c8                	sw	a0,12(a5)
    80204988:	cb8c                	sw	a1,16(a5)
    8020498a:	cbd0                	sw	a2,20(a5)
    8020498c:	cf94                	sw	a3,24(a5)
    8020498e:	cfd8                	sw	a4,28(a5)
/home/caigoubencai/Desktop/os_c-ch6/kernel/fs/fat32/dir/dir.c:178
    80204990:	fc843503          	ld	a0,-56(s0)
    80204994:	70e2                	ld	ra,56(sp)
    80204996:	7442                	ld	s0,48(sp)
    80204998:	6121                	addi	sp,sp,64
    8020499a:	8082                	ret

000000008020499c <find_dir_entry>:
find_dir_entry():
/home/caigoubencai/Desktop/os_c-ch6/kernel/fs/fat32/dir/dir.c:181
    8020499c:	7175                	addi	sp,sp,-144
    8020499e:	e506                	sd	ra,136(sp)
    802049a0:	e122                	sd	s0,128(sp)
    802049a2:	fca6                	sd	s1,120(sp)
    802049a4:	0900                	addi	s0,sp,144
    802049a6:	737d                	lui	t1,0xfffff
    802049a8:	911a                	add	sp,sp,t1
    802049aa:	77fd                	lui	a5,0xfffff
    802049ac:	fe040713          	addi	a4,s0,-32
    802049b0:	97ba                	add	a5,a5,a4
    802049b2:	faa7bc23          	sd	a0,-72(a5) # ffffffffffffefb8 <ebss+0xffffffff7f0b9fb8>
    802049b6:	77fd                	lui	a5,0xfffff
    802049b8:	fe040713          	addi	a4,s0,-32
    802049bc:	97ba                	add	a5,a5,a4
    802049be:	fab7b823          	sd	a1,-80(a5) # ffffffffffffefb0 <ebss+0xffffffff7f0b9fb0>
/home/caigoubencai/Desktop/os_c-ch6/kernel/fs/fat32/dir/dir.c:182
    802049c2:	77fd                	lui	a5,0xfffff
    802049c4:	fe040713          	addi	a4,s0,-32
    802049c8:	97ba                	add	a5,a5,a4
    802049ca:	fb87b503          	ld	a0,-72(a5) # ffffffffffffefb8 <ebss+0xffffffff7f0b9fb8>
    802049ce:	e59ff0ef          	jal	ra,80204826 <extract_cluster_number>
    802049d2:	87aa                	mv	a5,a0
    802049d4:	fcf42c23          	sw	a5,-40(s0)
/home/caigoubencai/Desktop/os_c-ch6/kernel/fs/fat32/dir/dir.c:184
    802049d8:	fd846703          	lwu	a4,-40(s0)
    802049dc:	77fd                	lui	a5,0xfffff
    802049de:	17a1                	addi	a5,a5,-24
    802049e0:	fe040693          	addi	a3,s0,-32
    802049e4:	97b6                	add	a5,a5,a3
    802049e6:	85be                	mv	a1,a5
    802049e8:	853a                	mv	a0,a4
    802049ea:	371010ef          	jal	ra,8020655a <read_by_cluster>
/home/caigoubencai/Desktop/os_c-ch6/kernel/fs/fat32/dir/dir.c:186
    802049ee:	fc042e23          	sw	zero,-36(s0)
    802049f2:	a8e5                	j	80204aea <find_dir_entry+0x14e>
/home/caigoubencai/Desktop/os_c-ch6/kernel/fs/fat32/dir/dir.c:189
    802049f4:	fdc42783          	lw	a5,-36(s0)
    802049f8:	0796                	slli	a5,a5,0x5
    802049fa:	fcf43823          	sd	a5,-48(s0)
/home/caigoubencai/Desktop/os_c-ch6/kernel/fs/fat32/dir/dir.c:191
    802049fe:	77fd                	lui	a5,0xfffff
    80204a00:	17a1                	addi	a5,a5,-24
    80204a02:	fe040713          	addi	a4,s0,-32
    80204a06:	973e                	add	a4,a4,a5
    80204a08:	fd043783          	ld	a5,-48(s0)
    80204a0c:	973e                	add	a4,a4,a5
    80204a0e:	77fd                	lui	a5,0xfffff
    80204a10:	fe040693          	addi	a3,s0,-32
    80204a14:	00f684b3          	add	s1,a3,a5
    80204a18:	77fd                	lui	a5,0xfffff
    80204a1a:	f9078793          	addi	a5,a5,-112 # ffffffffffffef90 <ebss+0xffffffff7f0b9f90>
    80204a1e:	fe040693          	addi	a3,s0,-32
    80204a22:	97b6                	add	a5,a5,a3
    80204a24:	85ba                	mv	a1,a4
    80204a26:	853e                	mv	a0,a5
    80204a28:	e8dff0ef          	jal	ra,802048b4 <parse_directory_entry>
    80204a2c:	77fd                	lui	a5,0xfffff
    80204a2e:	fe040713          	addi	a4,s0,-32
    80204a32:	97ba                	add	a5,a5,a4
    80204a34:	f907a883          	lw	a7,-112(a5) # ffffffffffffef90 <ebss+0xffffffff7f0b9f90>
    80204a38:	f947a803          	lw	a6,-108(a5)
    80204a3c:	f987a503          	lw	a0,-104(a5)
    80204a40:	f9c7a583          	lw	a1,-100(a5)
    80204a44:	fa07a603          	lw	a2,-96(a5)
    80204a48:	fa47a683          	lw	a3,-92(a5)
    80204a4c:	fa87a703          	lw	a4,-88(a5)
    80204a50:	fac7a783          	lw	a5,-84(a5)
    80204a54:	fd14a423          	sw	a7,-56(s1)
    80204a58:	fd04a623          	sw	a6,-52(s1)
    80204a5c:	fca4a823          	sw	a0,-48(s1)
    80204a60:	fcb4aa23          	sw	a1,-44(s1)
    80204a64:	fcc4ac23          	sw	a2,-40(s1)
    80204a68:	fcd4ae23          	sw	a3,-36(s1)
    80204a6c:	fee4a023          	sw	a4,-32(s1)
    80204a70:	fef4a223          	sw	a5,-28(s1)
/home/caigoubencai/Desktop/os_c-ch6/kernel/fs/fat32/dir/dir.c:192
    80204a74:	77fd                	lui	a5,0xfffff
    80204a76:	fe040713          	addi	a4,s0,-32
    80204a7a:	97ba                	add	a5,a5,a4
    80204a7c:	777d                	lui	a4,0xfffff
    80204a7e:	fc870713          	addi	a4,a4,-56 # ffffffffffffefc8 <ebss+0xffffffff7f0b9fc8>
    80204a82:	fe040693          	addi	a3,s0,-32
    80204a86:	9736                	add	a4,a4,a3
    80204a88:	fb07b583          	ld	a1,-80(a5) # ffffffffffffefb0 <ebss+0xffffffff7f0b9fb0>
    80204a8c:	853a                	mv	a0,a4
    80204a8e:	df1ff0ef          	jal	ra,8020487e <compare_dir_entry_name>
    80204a92:	87aa                	mv	a5,a0
    80204a94:	873e                	mv	a4,a5
    80204a96:	4785                	li	a5,1
    80204a98:	04f71463          	bne	a4,a5,80204ae0 <find_dir_entry+0x144>
/home/caigoubencai/Desktop/os_c-ch6/kernel/fs/fat32/dir/dir.c:195
    80204a9c:	02000513          	li	a0,32
    80204aa0:	5a9050ef          	jal	ra,8020a848 <bd_malloc>
    80204aa4:	fca43423          	sd	a0,-56(s0)
/home/caigoubencai/Desktop/os_c-ch6/kernel/fs/fat32/dir/dir.c:196
    80204aa8:	fc843783          	ld	a5,-56(s0)
    80204aac:	eb91                	bnez	a5,80204ac0 <find_dir_entry+0x124>
/home/caigoubencai/Desktop/os_c-ch6/kernel/fs/fat32/dir/dir.c:198
    80204aae:	0000d517          	auipc	a0,0xd
    80204ab2:	91a50513          	addi	a0,a0,-1766 # 802113c8 <MMIO+0x150>
    80204ab6:	d7dfd0ef          	jal	ra,80202832 <printk>
/home/caigoubencai/Desktop/os_c-ch6/kernel/fs/fat32/dir/dir.c:199
    80204aba:	4505                	li	a0,1
    80204abc:	38c090ef          	jal	ra,8020de48 <exit>
/home/caigoubencai/Desktop/os_c-ch6/kernel/fs/fat32/dir/dir.c:201
    80204ac0:	77fd                	lui	a5,0xfffff
    80204ac2:	fc878793          	addi	a5,a5,-56 # ffffffffffffefc8 <ebss+0xffffffff7f0b9fc8>
    80204ac6:	fe040713          	addi	a4,s0,-32
    80204aca:	97ba                	add	a5,a5,a4
    80204acc:	02000613          	li	a2,32
    80204ad0:	85be                	mv	a1,a5
    80204ad2:	fc843503          	ld	a0,-56(s0)
    80204ad6:	7ca030ef          	jal	ra,802082a0 <memcpy>
/home/caigoubencai/Desktop/os_c-ch6/kernel/fs/fat32/dir/dir.c:202
    80204ada:	fc843783          	ld	a5,-56(s0)
    80204ade:	a831                	j	80204afa <find_dir_entry+0x15e>
/home/caigoubencai/Desktop/os_c-ch6/kernel/fs/fat32/dir/dir.c:186
    80204ae0:	fdc42783          	lw	a5,-36(s0)
    80204ae4:	2785                	addiw	a5,a5,1
    80204ae6:	fcf42e23          	sw	a5,-36(s0)
/home/caigoubencai/Desktop/os_c-ch6/kernel/fs/fat32/dir/dir.c:186 (discriminator 1)
    80204aea:	fdc42783          	lw	a5,-36(s0)
    80204aee:	873e                	mv	a4,a5
    80204af0:	07f00793          	li	a5,127
    80204af4:	f0e7f0e3          	bgeu	a5,a4,802049f4 <find_dir_entry+0x58>
/home/caigoubencai/Desktop/os_c-ch6/kernel/fs/fat32/dir/dir.c:205
    80204af8:	4781                	li	a5,0
/home/caigoubencai/Desktop/os_c-ch6/kernel/fs/fat32/dir/dir.c:206 (discriminator 1)
    80204afa:	853e                	mv	a0,a5
    80204afc:	6305                	lui	t1,0x1
    80204afe:	911a                	add	sp,sp,t1
    80204b00:	60aa                	ld	ra,136(sp)
    80204b02:	640a                	ld	s0,128(sp)
    80204b04:	74e6                	ld	s1,120(sp)
    80204b06:	6149                	addi	sp,sp,144
    80204b08:	8082                	ret

0000000080204b0a <find_file_or_dir_tail_cluser>:
find_file_or_dir_tail_cluser():
/home/caigoubencai/Desktop/os_c-ch6/kernel/fs/fat32/dir/dir.c:210
    80204b0a:	7179                	addi	sp,sp,-48
    80204b0c:	f406                	sd	ra,40(sp)
    80204b0e:	f022                	sd	s0,32(sp)
    80204b10:	1800                	addi	s0,sp,48
    80204b12:	fca43c23          	sd	a0,-40(s0)
/home/caigoubencai/Desktop/os_c-ch6/kernel/fs/fat32/dir/dir.c:211
    80204b16:	fd843503          	ld	a0,-40(s0)
    80204b1a:	d0dff0ef          	jal	ra,80204826 <extract_cluster_number>
    80204b1e:	87aa                	mv	a5,a0
    80204b20:	fef42623          	sw	a5,-20(s0)
/home/caigoubencai/Desktop/os_c-ch6/kernel/fs/fat32/dir/dir.c:212
    80204b24:	fec46783          	lwu	a5,-20(s0)
    80204b28:	17f9                	addi	a5,a5,-2
    80204b2a:	853e                	mv	a0,a5
    80204b2c:	85dfe0ef          	jal	ra,80203388 <find_last_cluster>
    80204b30:	87aa                	mv	a5,a0
    80204b32:	2781                	sext.w	a5,a5
/home/caigoubencai/Desktop/os_c-ch6/kernel/fs/fat32/dir/dir.c:213
    80204b34:	853e                	mv	a0,a5
    80204b36:	70a2                	ld	ra,40(sp)
    80204b38:	7402                	ld	s0,32(sp)
    80204b3a:	6145                	addi	sp,sp,48
    80204b3c:	8082                	ret

0000000080204b3e <append_data_to_directory>:
append_data_to_directory():
/home/caigoubencai/Desktop/os_c-ch6/kernel/fs/fat32/dir/dir.c:216
    80204b3e:	7139                	addi	sp,sp,-64
    80204b40:	fc06                	sd	ra,56(sp)
    80204b42:	f822                	sd	s0,48(sp)
    80204b44:	0080                	addi	s0,sp,64
    80204b46:	fca43c23          	sd	a0,-40(s0)
    80204b4a:	fcb43823          	sd	a1,-48(s0)
    80204b4e:	fcc43423          	sd	a2,-56(s0)
/home/caigoubencai/Desktop/os_c-ch6/kernel/fs/fat32/dir/dir.c:217
    80204b52:	fd843503          	ld	a0,-40(s0)
    80204b56:	bfbff0ef          	jal	ra,80204750 <get_file_or_dir_size>
    80204b5a:	87aa                	mv	a5,a0
    80204b5c:	fef42623          	sw	a5,-20(s0)
/home/caigoubencai/Desktop/os_c-ch6/kernel/fs/fat32/dir/dir.c:218
    80204b60:	fec42783          	lw	a5,-20(s0)
    80204b64:	00c7d79b          	srliw	a5,a5,0xc
    80204b68:	fef42423          	sw	a5,-24(s0)
/home/caigoubencai/Desktop/os_c-ch6/kernel/fs/fat32/dir/dir.c:219
    80204b6c:	fec42703          	lw	a4,-20(s0)
    80204b70:	6785                	lui	a5,0x1
    80204b72:	17fd                	addi	a5,a5,-1
    80204b74:	8ff9                	and	a5,a5,a4
    80204b76:	2781                	sext.w	a5,a5
    80204b78:	c791                	beqz	a5,80204b84 <append_data_to_directory+0x46>
/home/caigoubencai/Desktop/os_c-ch6/kernel/fs/fat32/dir/dir.c:220
    80204b7a:	fe842783          	lw	a5,-24(s0)
    80204b7e:	2785                	addiw	a5,a5,1
    80204b80:	fef42423          	sw	a5,-24(s0)
/home/caigoubencai/Desktop/os_c-ch6/kernel/fs/fat32/dir/dir.c:221
    80204b84:	fec42703          	lw	a4,-20(s0)
    80204b88:	6785                	lui	a5,0x1
    80204b8a:	17fd                	addi	a5,a5,-1
    80204b8c:	8ff9                	and	a5,a5,a4
    80204b8e:	2781                	sext.w	a5,a5
    80204b90:	2785                	addiw	a5,a5,1
    80204b92:	fef42223          	sw	a5,-28(s0)
/home/caigoubencai/Desktop/os_c-ch6/kernel/fs/fat32/dir/dir.c:222
    80204b96:	0001                	nop
    80204b98:	70e2                	ld	ra,56(sp)
    80204b9a:	7442                	ld	s0,48(sp)
    80204b9c:	6121                	addi	sp,sp,64
    80204b9e:	8082                	ret

0000000080204ba0 <set_file_or_dir_size>:
set_file_or_dir_size():
/home/caigoubencai/Desktop/os_c-ch6/kernel/fs/fat32/dir/dir.c:225
    80204ba0:	1101                	addi	sp,sp,-32
    80204ba2:	ec22                	sd	s0,24(sp)
    80204ba4:	1000                	addi	s0,sp,32
    80204ba6:	fea43423          	sd	a0,-24(s0)
    80204baa:	87ae                	mv	a5,a1
    80204bac:	fef42223          	sw	a5,-28(s0)
/home/caigoubencai/Desktop/os_c-ch6/kernel/fs/fat32/dir/dir.c:226
    80204bb0:	fe843783          	ld	a5,-24(s0)
    80204bb4:	fe442703          	lw	a4,-28(s0)
    80204bb8:	cfd8                	sw	a4,28(a5)
/home/caigoubencai/Desktop/os_c-ch6/kernel/fs/fat32/dir/dir.c:227
    80204bba:	0001                	nop
    80204bbc:	6462                	ld	s0,24(sp)
    80204bbe:	6105                	addi	sp,sp,32
    80204bc0:	8082                	ret

0000000080204bc2 <create_dir>:
create_dir():
/home/caigoubencai/Desktop/os_c-ch6/kernel/fs/fat32/dir/dir.c:231
    80204bc2:	711d                	addi	sp,sp,-96
    80204bc4:	ec86                	sd	ra,88(sp)
